Microsoft (R) COFF/PE Dumper Version 14.14.26431.0
Copyright (C) Microsoft Corporation.  All rights reserved.


Dump of file CppReverseEngApp.exe

File Type: EXECUTABLE IMAGE

  00411000: CC                 int         3
  00411001: CC                 int         3
  00411002: CC                 int         3
  00411003: CC                 int         3
  00411004: CC                 int         3
@ILT+0(__RTC_NumErrors):
  00411005: E9 56 20 00 00     jmp         __RTC_NumErrors
@ILT+5(__wmakepath_s):
  0041100A: E9 EE 3F 00 00     jmp         __wmakepath_s
@ILT+10(_SetUnhandledExceptionFilter@4):
  0041100F: E9 19 40 00 00     jmp         _SetUnhandledExceptionFilter@4
@ILT+15(__get_startup_argv_mode):
  00411014: E9 97 2A 00 00     jmp         __get_startup_argv_mode
@ILT+20(@_RTC_AllocaHelper@12):
  00411019: E9 52 0C 00 00     jmp         @_RTC_AllocaHelper@12
@ILT+25(___acrt_uninitialize):
  0041101E: E9 AD 40 00 00     jmp         ___acrt_uninitialize
@ILT+30(?setName@Employee@@QAEXPAD@Z):
  00411023: E9 E8 07 00 00     jmp         ?setName@Employee@@QAEXPAD@Z
@ILT+35(___acrt_initialize):
  00411028: E9 73 40 00 00     jmp         ___acrt_initialize
@ILT+40(___acrt_uninitialize_critical):
  0041102D: E9 AE 40 00 00     jmp         ___acrt_uninitialize_critical
@ILT+45(__configthreadlocale):
  00411032: E9 78 3F 00 00     jmp         __configthreadlocale
@ILT+50(__crt_debugger_hook):
  00411037: E9 54 2F 00 00     jmp         __crt_debugger_hook
@ILT+55(__get_initial_narrow_environment):
  0041103C: E9 2C 3F 00 00     jmp         __get_initial_narrow_environment
@ILT+60(?set_fmode@__scrt_file_policy@@SAXXZ):
  00411041: E9 4A 13 00 00     jmp         ?set_fmode@__scrt_file_policy@@SAXXZ
@ILT+65(?set_commode@__scrt_file_policy@@SAXXZ):
  00411046: E9 25 13 00 00     jmp         ?set_commode@__scrt_file_policy@@SAXXZ
@ILT+70(_HeapFree@12):
  0041104B: E9 2B 40 00 00     jmp         _HeapFree@12
@ILT+75(_ReadPointerNoFence):
  00411050: E9 3B 30 00 00     jmp         _ReadPointerNoFence
@ILT+80(__initialize_default_precision):
  00411055: E9 F6 2A 00 00     jmp         __initialize_default_precision
@ILT+85(_mainCRTStartup):
  0041105A: E9 51 13 00 00     jmp         _mainCRTStartup
@ILT+90(_wcscpy_s):
  0041105F: E9 A5 3F 00 00     jmp         _wcscpy_s
@ILT+95(_strcpy_s):
  00411064: E9 D4 3E 00 00     jmp         _strcpy_s
@ILT+100(___acrt_initialize):
  00411069: E9 32 40 00 00     jmp         ___acrt_initialize
@ILT+105(_strcat_s):
  0041106E: E9 4E 3F 00 00     jmp         _strcat_s
@ILT+110(__CRT_RTC_INITW):
  00411073: E9 48 0E 00 00     jmp         __CRT_RTC_INITW
@ILT+115(___scrt_fastfail):
  00411078: E9 D3 2B 00 00     jmp         ___scrt_fastfail
@ILT+120(___scrt_is_ucrt_dll_in_use):
  0041107D: E9 5E 3E 00 00     jmp         ___scrt_is_ucrt_dll_in_use
@ILT+125(?_RTC_Failure@@YAXPAXH@Z):
  00411082: E9 09 15 00 00     jmp         ?_RTC_Failure@@YAXPAXH@Z
@ILT+130(_NtCurrentTeb):
  00411087: E9 34 22 00 00     jmp         _NtCurrentTeb
@ILT+135(__get_startup_commit_mode):
  0041108C: E9 2F 2A 00 00     jmp         __get_startup_commit_mode
@ILT+140(__except_handler4_common):
  00411091: E9 83 3E 00 00     jmp         __except_handler4_common
@ILT+145(___acrt_iob_func):
  00411096: E9 96 3E 00 00     jmp         ___acrt_iob_func
@ILT+150(___acrt_thread_detach):
  0041109B: E9 20 40 00 00     jmp         ___acrt_thread_detach
@ILT+155(?_RTC_AllocaFailure@@YAXPAXPAU_RTC_ALLOCA_NODE@@H@Z):
  004110A0: E9 CB 13 00 00     jmp         ?_RTC_AllocaFailure@@YAXPAXPAU_RTC_ALLOCA_NODE@@H@Z
@ILT+160(__initterm_e):
  004110A5: E9 CF 3E 00 00     jmp         __initterm_e
@ILT+165(___scrt_initialize_winrt):
  004110AA: E9 81 2D 00 00     jmp         ___scrt_initialize_winrt
@ILT+170(?ShowData@Employee@@QAEXXZ):
  004110AF: E9 5C 06 00 00     jmp         ?ShowData@Employee@@QAEXXZ
@ILT+175(___acrt_uninitialize):
  004110B4: E9 17 40 00 00     jmp         ___acrt_uninitialize
@ILT+180(__get_startup_thread_locale_mode):
  004110B9: E9 32 2A 00 00     jmp         __get_startup_thread_locale_mode
@ILT+185(_GetStartupInfoW@4):
  004110BE: E9 A0 3F 00 00     jmp         _GetStartupInfoW@4
@ILT+190(__cexit):
  004110C3: E9 D5 3E 00 00     jmp         __cexit
@ILT+195(_atexit):
  004110C8: E9 63 28 00 00     jmp         _atexit
@ILT+200(?_RTC_GetErrorFuncW@@YAP6AHHPB_WH00ZZPBX@Z):
  004110CD: E9 5E 1F 00 00     jmp         ?_RTC_GetErrorFuncW@@YAP6AHHPB_WH00ZZPBX@Z
@ILT+205(_memset):
  004110D2: E9 3C 3E 00 00     jmp         _memset
@ILT+210(_GetCurrentThreadId@0):
  004110D7: E9 75 3F 00 00     jmp         _GetCurrentThreadId@0
@ILT+215(_GetLastError@0):
  004110DC: E9 8E 3F 00 00     jmp         _GetLastError@0
@ILT+220(___scrt_get_dyn_tls_dtor_callback):
  004110E1: E9 5A 2B 00 00     jmp         ___scrt_get_dyn_tls_dtor_callback
@ILT+225(__RTC_UninitUse):
  004110E6: E9 C5 19 00 00     jmp         __RTC_UninitUse
@ILT+230(__RTC_Initialize):
  004110EB: E9 C0 2E 00 00     jmp         __RTC_Initialize
@ILT+235(?_RTC_StackFailure@@YAXPAXPBD@Z):
  004110F0: E9 0B 15 00 00     jmp         ?_RTC_StackFailure@@YAXPAXPBD@Z
@ILT+240(_GetCurrentProcess@0):
  004110F5: E9 39 3F 00 00     jmp         _GetCurrentProcess@0
@ILT+245(___report_securityfailure):
  004110FA: E9 A1 1C 00 00     jmp         ___report_securityfailure
@ILT+250(___std_type_info_destroy_list):
  004110FF: E9 09 3E 00 00     jmp         ___std_type_info_destroy_list
@ILT+255(__set_fmode):
  00411104: E9 82 3E 00 00     jmp         __set_fmode
@ILT+260(___acrt_thread_attach):
  00411109: E9 A2 3F 00 00     jmp         ___acrt_thread_attach
@ILT+265(___acrt_uninitialize_critical):
  0041110E: E9 CD 3F 00 00     jmp         ___acrt_uninitialize_critical
@ILT+270(__CrtDbgReport):
  00411113: E9 2B 3E 00 00     jmp         __CrtDbgReport
@ILT+275(_QueryPerformanceCounter@4):
  00411118: E9 28 3F 00 00     jmp         _QueryPerformanceCounter@4
@ILT+280(___p__commode):
  0041111D: E9 99 3E 00 00     jmp         ___p__commode
@ILT+285(___scrt_is_user_matherr_present):
  00411122: E9 D9 2A 00 00     jmp         ___scrt_is_user_matherr_present
@ILT+290(___isa_available_init):
  00411127: E9 24 3A 00 00     jmp         ___isa_available_init
@ILT+295(?setNumber@Employee@@QAEXH@Z):
  0041112C: E9 5F 07 00 00     jmp         ?setNumber@Employee@@QAEXH@Z
@ILT+300(__RTC_CheckEsp):
  00411131: E9 1A 0D 00 00     jmp         __RTC_CheckEsp
@ILT+305(__RTC_Shutdown):
  00411136: E9 D5 0D 00 00     jmp         __RTC_Shutdown
@ILT+310(___scrt_is_managed_app):
  0041113B: E9 00 2D 00 00     jmp         ___scrt_is_managed_app
@ILT+315(__RTC_InitBase):
  00411140: E9 8B 0D 00 00     jmp         __RTC_InitBase
@ILT+320(??$__crt_fast_decode_pointer@PAP6AXXZ@@YAPAP6AXXZQAP6AXXZ@Z):
  00411145: E9 B6 1F 00 00     jmp         ??$__crt_fast_decode_pointer@PAP6AXXZ@@YAPAP6AXXZQAP6AXXZ@Z
@ILT+325(_at_quick_exit):
  0041114A: E9 81 27 00 00     jmp         _at_quick_exit
@ILT+330(_GetSystemTimeAsFileTime@4):
  0041114F: E9 03 3F 00 00     jmp         _GetSystemTimeAsFileTime@4
@ILT+335(___scrt_unhandled_exception_filter@4):
  00411154: E9 B7 2D 00 00     jmp         ___scrt_unhandled_exception_filter@4
@ILT+340(__vsprintf_s_l):
  00411159: E9 32 1A 00 00     jmp         __vsprintf_s_l
@ILT+345(___report_rangecheckfailure):
  0041115E: E9 2D 1C 00 00     jmp         ___report_rangecheckfailure
@ILT+350(___acrt_thread_detach):
  00411163: E9 58 3F 00 00     jmp         ___acrt_thread_detach
@ILT+355(_GetModuleHandleW@4):
  00411168: E9 FC 3E 00 00     jmp         _GetModuleHandleW@4
@ILT+360(?Test@Employee@@QAEXXZ):
  0041116D: E9 3E 06 00 00     jmp         ?Test@Employee@@QAEXXZ
@ILT+365(___stdio_common_vsprintf_s):
  00411172: E9 50 3E 00 00     jmp         ___stdio_common_vsprintf_s
@ILT+370(___scrt_set_unhandled_exception_filter):
  00411177: E9 74 2D 00 00     jmp         ___scrt_set_unhandled_exception_filter
@ILT+375(___scrt_uninitialize_crt):
  0041117C: E9 6F 26 00 00     jmp         ___scrt_uninitialize_crt
@ILT+380(___acrt_uninitialize_critical):
  00411181: E9 5A 3F 00 00     jmp         ___acrt_uninitialize_critical
@ILT+385(__crt_at_quick_exit):
  00411186: E9 60 3E 00 00     jmp         __crt_at_quick_exit
@ILT+390(___scrt_dllmain_after_initialize_c):
  0041118B: E9 A0 21 00 00     jmp         ___scrt_dllmain_after_initialize_c
@ILT+395(__RTC_Terminate):
  00411190: E9 5B 2E 00 00     jmp         __RTC_Terminate
@ILT+400(_HeapAlloc@12):
  00411195: E9 DB 3E 00 00     jmp         _HeapAlloc@12
@ILT+405(__initialize_invalid_parameter_handler):
  0041119A: E9 E1 29 00 00     jmp         __initialize_invalid_parameter_handler
@ILT+410(_WideCharToMultiByte@32):
  0041119F: E9 7D 3E 00 00     jmp         _WideCharToMultiByte@32
@ILT+415(__set_new_mode):
  004111A4: E9 0C 3E 00 00     jmp         __set_new_mode
@ILT+420(___stdio_common_vfprintf):
  004111A9: E9 89 3D 00 00     jmp         ___stdio_common_vfprintf
@ILT+425(__matherr):
  004111AE: E9 ED 28 00 00     jmp         __matherr
@ILT+430(__vfprintf_l):
  004111B3: E9 B8 07 00 00     jmp         __vfprintf_l
@ILT+435(?__crt_rotate_pointer_value@@YAIIH@Z):
  004111B8: E9 B3 1F 00 00     jmp         ?__crt_rotate_pointer_value@@YAIIH@Z
@ILT+440(___acrt_thread_attach):
  004111BD: E9 EE 3E 00 00     jmp         ___acrt_thread_attach
@ILT+445(__get_startup_new_mode):
  004111C2: E9 19 29 00 00     jmp         __get_startup_new_mode
@ILT+450(_GetCurrentProcessId@0):
  004111C7: E9 7F 3E 00 00     jmp         _GetCurrentProcessId@0
@ILT+455(__register_thread_local_exe_atexit_callback):
  004111CC: E9 D8 3D 00 00     jmp         __register_thread_local_exe_atexit_callback
@ILT+460(___acrt_thread_detach):
  004111D1: E9 EA 3E 00 00     jmp         ___acrt_thread_detach
@ILT+465(__exit):
  004111D6: E9 AA 3D 00 00     jmp         __exit
@ILT+470(__set_app_type):
  004111DB: E9 75 3D 00 00     jmp         __set_app_type
@ILT+475(_RaiseException@16):
  004111E0: E9 30 3E 00 00     jmp         _RaiseException@16
@ILT+480(___raise_securityfailure):
  004111E5: E9 16 1A 00 00     jmp         ___raise_securityfailure
@ILT+485(___report_securityfailureEx):
  004111EA: E9 C1 1C 00 00     jmp         ___report_securityfailureEx
@ILT+490(__initialize_denormal_control):
  004111EF: E9 9C 29 00 00     jmp         __initialize_denormal_control
@ILT+495(__initialize_onexit_table):
  004111F4: E9 DA 3D 00 00     jmp         __initialize_onexit_table
@ILT+500(_GetProcessHeap@0):
  004111F9: E9 83 3E 00 00     jmp         _GetProcessHeap@0
@ILT+505(__RTC_SetErrorFuncW):
  004111FE: E9 9D 1E 00 00     jmp         __RTC_SetErrorFuncW
@ILT+510(__guard_icall_checks_enforced):
  00411203: E9 A8 2E 00 00     jmp         __guard_icall_checks_enforced
@ILT+515(__initialize_narrow_environment):
  00411208: E9 5A 3D 00 00     jmp         __initialize_narrow_environment
@ILT+520(___local_stdio_scanf_options):
  0041120D: E9 8E 29 00 00     jmp         ___local_stdio_scanf_options
@ILT+525(___security_init_cookie):
  00411212: E9 E9 27 00 00     jmp         ___security_init_cookie
@ILT+530(___acrt_uninitialize):
  00411217: E9 B4 3E 00 00     jmp         ___acrt_uninitialize
@ILT+535(_MultiByteToWideChar@24):
  0041121C: E9 FA 3D 00 00     jmp         _MultiByteToWideChar@24
@ILT+540(?__scrt_initialize_type_info@@YAXXZ):
  00411221: E9 DA 28 00 00     jmp         ?__scrt_initialize_type_info@@YAXXZ
@ILT+545(_terminate):
  00411226: E9 CC 3D 00 00     jmp         _terminate
@ILT+550(__RTC_SetErrorFunc):
  0041122B: E9 40 1E 00 00     jmp         __RTC_SetErrorFunc
@ILT+555(?__scrt_uninitialize_type_info@@YAXXZ):
  00411230: E9 EB 28 00 00     jmp         ?__scrt_uninitialize_type_info@@YAXXZ
@ILT+560(___acrt_initialize):
  00411235: E9 66 3E 00 00     jmp         ___acrt_initialize
@ILT+565(___scrt_initialize_onexit_tables):
  0041123A: E9 E1 22 00 00     jmp         ___scrt_initialize_onexit_tables
@ILT+570(___scrt_dllmain_exception_filter):
  0041123F: E9 BC 21 00 00     jmp         ___scrt_dllmain_exception_filter
@ILT+575(__controlfp_s):
  00411244: E9 A8 3D 00 00     jmp         __controlfp_s
@ILT+580(@_RTC_CheckStackVars2@12):
  00411249: E9 62 0A 00 00     jmp         @_RTC_CheckStackVars2@12
@ILT+585(__CRT_RTC_INIT):
  0041124E: E9 5D 0C 00 00     jmp         __CRT_RTC_INIT
@ILT+590(?setPay@Employee@@QAEXJ@Z):
  00411253: E9 88 06 00 00     jmp         ?setPay@Employee@@QAEXJ@Z
@ILT+595(_UnhandledExceptionFilter@4):
  00411258: E9 CA 3D 00 00     jmp         _UnhandledExceptionFilter@4
@ILT+600(___scrt_initialize_default_local_stdio_options):
  0041125D: E9 4E 29 00 00     jmp         ___scrt_initialize_default_local_stdio_options
@ILT+605(?configure_argv@__scrt_narrow_argv_policy@@SAHXZ):
  00411262: E9 89 10 00 00     jmp         ?configure_argv@__scrt_narrow_argv_policy@@SAHXZ
@ILT+610(__onexit):
  00411267: E9 D4 25 00 00     jmp         __onexit
@ILT+615(__seh_filter_exe):
  0041126C: E9 DE 3C 00 00     jmp         __seh_filter_exe
@ILT+620(__seh_filter_dll):
  00411271: E9 57 3D 00 00     jmp         __seh_filter_dll
@ILT+625(___scrt_dllmain_uninitialize_c):
  00411276: E9 E5 21 00 00     jmp         ___scrt_dllmain_uninitialize_c
@ILT+630(@_RTC_CheckStackVars@8):
  0041127B: E9 50 0B 00 00     jmp         @_RTC_CheckStackVars@8
@ILT+635(__CrtDbgReportW):
  00411280: E9 C4 3C 00 00     jmp         __CrtDbgReportW
@ILT+640(___p___argc):
  00411285: E9 07 3D 00 00     jmp         ___p___argc
@ILT+645(___p___argv):
  0041128A: E9 08 3D 00 00     jmp         ___p___argv
@ILT+650(@__security_check_cookie@4):
  0041128F: E9 FC 0B 00 00     jmp         @__security_check_cookie@4
@ILT+655(___scrt_get_dyn_tls_init_callback):
  00411294: E9 97 29 00 00     jmp         ___scrt_get_dyn_tls_init_callback
@ILT+660(__register_onexit_function):
  00411299: E9 3B 3D 00 00     jmp         __register_onexit_function
@ILT+665(___scrt_initialize_crt):
  0041129E: E9 1D 22 00 00     jmp         ___scrt_initialize_crt
@ILT+670(@_guard_check_icall_nop@4):
  004112A3: E9 B8 2D 00 00     jmp         @_guard_check_icall_nop@4
@ILT+675(___scrt_get_show_window_mode):
  004112A8: E9 33 2B 00 00     jmp         ___scrt_get_show_window_mode
@ILT+680(_IsDebuggerPresent@0):
  004112AD: E9 5D 3D 00 00     jmp         _IsDebuggerPresent@0
@ILT+685(___acrt_thread_attach):
  004112B2: E9 F9 3D 00 00     jmp         ___acrt_thread_attach
@ILT+690(_main):
  004112B7: E9 34 07 00 00     jmp         _main
@ILT+695(__wsplitpath_s):
  004112BC: E9 42 3D 00 00     jmp         __wsplitpath_s
@ILT+700(___scrt_dllmain_crt_thread_attach):
  004112C1: E9 DA 20 00 00     jmp         ___scrt_dllmain_crt_thread_attach
@ILT+705(___scrt_dllmain_crt_thread_detach):
  004112C6: E9 15 21 00 00     jmp         ___scrt_dllmain_crt_thread_detach
@ILT+710(_GetProcAddress@8):
  004112CB: E9 C3 3D 00 00     jmp         _GetProcAddress@8
@ILT+715(_FreeLibrary@4):
  004112D0: E9 B8 3D 00 00     jmp         _FreeLibrary@4
@ILT+720(__RTC_SetErrorType):
  004112D5: E9 F6 1D 00 00     jmp         __RTC_SetErrorType
@ILT+725(___scrt_stub_for_is_c_termination_complete):
  004112DA: E9 11 3E 00 00     jmp         ___scrt_stub_for_is_c_termination_complete
@ILT+730(___report_gsfailure):
  004112DF: E9 5C 19 00 00     jmp         ___report_gsfailure
@ILT+735(_exit):
  004112E4: E9 96 3C 00 00     jmp         _exit
@ILT+740(__initterm):
  004112E9: E9 85 3C 00 00     jmp         __initterm
@ILT+745(__configure_narrow_argv):
  004112EE: E9 6E 3C 00 00     jmp         __configure_narrow_argv
@ILT+750(_ReadNoFence):
  004112F3: E9 78 2D 00 00     jmp         _ReadNoFence
@ILT+755(___setusermatherr):
  004112F8: E9 5E 3C 00 00     jmp         ___setusermatherr
@ILT+760(___vcrt_GetModuleFileNameW):
  004112FD: E9 1D 3C 00 00     jmp         ___vcrt_GetModuleFileNameW
@ILT+765(_TerminateProcess@8):
  00411302: E9 32 3D 00 00     jmp         _TerminateProcess@8
@ILT+770(??$__crt_fast_encode_pointer@PAP6AXXZ@@YAPAP6AXXZQAP6AXXZ@Z):
  00411307: E9 24 1E 00 00     jmp         ??$__crt_fast_encode_pointer@PAP6AXXZ@@YAPAP6AXXZQAP6AXXZ@Z
@ILT+775(_IsProcessorFeaturePresent@4):
  0041130C: E9 2E 3D 00 00     jmp         _IsProcessorFeaturePresent@4
@ILT+780(?initialize_environment@__scrt_narrow_environment_policy@@SAHXZ):
  00411311: E9 FA 0F 00 00     jmp         ?initialize_environment@__scrt_narrow_environment_policy@@SAHXZ
@ILT+785(?_RTC_GetErrorFunc@@YAP6AHHPBDH00ZZPBX@Z):
  00411316: E9 05 1D 00 00     jmp         ?_RTC_GetErrorFunc@@YAP6AHHPBDH00ZZPBX@Z
@ILT+790(_sprintf_s):
  0041131B: E9 B0 18 00 00     jmp         _sprintf_s
@ILT+795(_InitializeSListHead@4):
  00411320: E9 38 3D 00 00     jmp         _InitializeSListHead@4
@ILT+800(___scrt_stub_for_is_c_termination_complete):
  00411325: E9 C6 3D 00 00     jmp         ___scrt_stub_for_is_c_termination_complete
@ILT+805(___scrt_release_startup_lock):
  0041132A: E9 91 24 00 00     jmp         ___scrt_release_startup_lock
@ILT+810(__RTC_GetErrDesc):
  0041132F: E9 0C 1D 00 00     jmp         __RTC_GetErrDesc
@ILT+815(___scrt_acquire_startup_lock):
  00411334: E9 97 1F 00 00     jmp         ___scrt_acquire_startup_lock
@ILT+820(__crt_atexit):
  00411339: E9 A7 3C 00 00     jmp         __crt_atexit
@ILT+825(?_RTC_GetSrcLine@@YAHPAEPA_WKPAH1K@Z):
  0041133E: E9 3D 33 00 00     jmp         ?_RTC_GetSrcLine@@YAHPAEPA_WKPAH1K@Z
@ILT+830(_printf):
  00411343: E9 98 08 00 00     jmp         _printf
@ILT+835(___scrt_dllmain_before_initialize_c):
  00411348: E9 23 20 00 00     jmp         ___scrt_dllmain_before_initialize_c
@ILT+840(__c_exit):
  0041134D: E9 51 3C 00 00     jmp         __c_exit
@ILT+845(_VirtualQuery@12):
  00411352: E9 30 3D 00 00     jmp         _VirtualQuery@12
@ILT+850(___local_stdio_printf_options):
  00411357: E9 D4 05 00 00     jmp         ___local_stdio_printf_options
@ILT+855(__execute_onexit_table):
  0041135C: E9 7E 3C 00 00     jmp         __execute_onexit_table
@ILT+860(__get_startup_file_mode):
  00411361: E9 6A 27 00 00     jmp         __get_startup_file_mode
@ILT+865(___scrt_dllmain_uninitialize_critical):
  00411366: E9 35 21 00 00     jmp         ___scrt_dllmain_uninitialize_critical
@ILT+870(___vcrt_LoadLibraryExW):
  0041136B: E9 BB 3B 00 00     jmp         ___vcrt_LoadLibraryExW
@ILT+875(___scrt_is_nonwritable_in_current_image):
  00411370: E9 CB 22 00 00     jmp         ___scrt_is_nonwritable_in_current_image
@ILT+880(?set_app_type@__scrt_main_policy@@SAXXZ):
  00411375: E9 D6 0F 00 00     jmp         ?set_app_type@__scrt_main_policy@@SAXXZ
@ILT+885(__should_initialize_environment):
  0041137A: E9 C1 27 00 00     jmp         __should_initialize_environment
@ILT+890(___vcrt_GetModuleHandleW):
  0041137F: E9 A1 3B 00 00     jmp         ___vcrt_GetModuleHandleW
  00411384: CC                 int         3
  00411385: CC                 int         3
  00411386: CC                 int         3
  00411387: CC                 int         3
  00411388: CC                 int         3
  00411389: CC                 int         3
  0041138A: CC                 int         3
  0041138B: CC                 int         3
  0041138C: CC                 int         3
  0041138D: CC                 int         3
  0041138E: CC                 int         3
  0041138F: CC                 int         3
  00411390: CC                 int         3
  00411391: CC                 int         3
  00411392: CC                 int         3
  00411393: CC                 int         3
  00411394: CC                 int         3
  00411395: CC                 int         3
  00411396: CC                 int         3
  00411397: CC                 int         3
  00411398: CC                 int         3
  00411399: CC                 int         3
  0041139A: CC                 int         3
  0041139B: CC                 int         3
  0041139C: CC                 int         3
  0041139D: CC                 int         3
  0041139E: CC                 int         3
  0041139F: CC                 int         3
  004113A0: CC                 int         3
  004113A1: CC                 int         3
  004113A2: CC                 int         3
  004113A3: CC                 int         3
  004113A4: CC                 int         3
  004113A5: CC                 int         3
  004113A6: CC                 int         3
  004113A7: CC                 int         3
  004113A8: CC                 int         3
  004113A9: CC                 int         3
  004113AA: CC                 int         3
  004113AB: CC                 int         3
  004113AC: CC                 int         3
  004113AD: CC                 int         3
  004113AE: CC                 int         3
  004113AF: CC                 int         3
  004113B0: CC                 int         3
  004113B1: CC                 int         3
  004113B2: CC                 int         3
  004113B3: CC                 int         3
  004113B4: CC                 int         3
  004113B5: CC                 int         3
  004113B6: CC                 int         3
  004113B7: CC                 int         3
  004113B8: CC                 int         3
  004113B9: CC                 int         3
  004113BA: CC                 int         3
  004113BB: CC                 int         3
  004113BC: CC                 int         3
  004113BD: CC                 int         3
  004113BE: CC                 int         3
  004113BF: CC                 int         3
  004113C0: CC                 int         3
  004113C1: CC                 int         3
  004113C2: CC                 int         3
  004113C3: CC                 int         3
  004113C4: CC                 int         3
  004113C5: CC                 int         3
  004113C6: CC                 int         3
  004113C7: CC                 int         3
  004113C8: CC                 int         3
  004113C9: CC                 int         3
  004113CA: CC                 int         3
  004113CB: CC                 int         3
  004113CC: CC                 int         3
  004113CD: CC                 int         3
  004113CE: CC                 int         3
  004113CF: CC                 int         3
  004113D0: CC                 int         3
  004113D1: CC                 int         3
  004113D2: CC                 int         3
  004113D3: CC                 int         3
  004113D4: CC                 int         3
  004113D5: CC                 int         3
  004113D6: CC                 int         3
  004113D7: CC                 int         3
  004113D8: CC                 int         3
  004113D9: CC                 int         3
  004113DA: CC                 int         3
  004113DB: CC                 int         3
  004113DC: CC                 int         3
  004113DD: CC                 int         3
  004113DE: CC                 int         3
  004113DF: CC                 int         3
  004113E0: CC                 int         3
  004113E1: CC                 int         3
  004113E2: CC                 int         3
  004113E3: CC                 int         3
  004113E4: CC                 int         3
  004113E5: CC                 int         3
  004113E6: CC                 int         3
  004113E7: CC                 int         3
  004113E8: CC                 int         3
  004113E9: CC                 int         3
  004113EA: CC                 int         3
  004113EB: CC                 int         3
  004113EC: CC                 int         3
  004113ED: CC                 int         3
  004113EE: CC                 int         3
  004113EF: CC                 int         3
  004113F0: CC                 int         3
  004113F1: CC                 int         3
  004113F2: CC                 int         3
  004113F3: CC                 int         3
  004113F4: CC                 int         3
  004113F5: CC                 int         3
  004113F6: CC                 int         3
  004113F7: CC                 int         3
  004113F8: CC                 int         3
  004113F9: CC                 int         3
  004113FA: CC                 int         3
  004113FB: CC                 int         3
  004113FC: CC                 int         3
  004113FD: CC                 int         3
  004113FE: CC                 int         3
  004113FF: CC                 int         3
  00411400: CC                 int         3
  00411401: CC                 int         3
  00411402: CC                 int         3
  00411403: CC                 int         3
  00411404: CC                 int         3
  00411405: CC                 int         3
  00411406: CC                 int         3
  00411407: CC                 int         3
  00411408: CC                 int         3
  00411409: CC                 int         3
  0041140A: CC                 int         3
  0041140B: CC                 int         3
  0041140C: CC                 int         3
  0041140D: CC                 int         3
  0041140E: CC                 int         3
  0041140F: CC                 int         3
  00411410: CC                 int         3
  00411411: CC                 int         3
  00411412: CC                 int         3
  00411413: CC                 int         3
  00411414: CC                 int         3
  00411415: CC                 int         3
  00411416: CC                 int         3
  00411417: CC                 int         3
  00411418: CC                 int         3
  00411419: CC                 int         3
  0041141A: CC                 int         3
  0041141B: CC                 int         3
  0041141C: CC                 int         3
  0041141D: CC                 int         3
  0041141E: CC                 int         3
  0041141F: CC                 int         3
  00411420: CC                 int         3
  00411421: CC                 int         3
  00411422: CC                 int         3
  00411423: CC                 int         3
  00411424: CC                 int         3
  00411425: CC                 int         3
  00411426: CC                 int         3
  00411427: CC                 int         3
  00411428: CC                 int         3
  00411429: CC                 int         3
  0041142A: CC                 int         3
  0041142B: CC                 int         3
  0041142C: CC                 int         3
  0041142D: CC                 int         3
  0041142E: CC                 int         3
  0041142F: CC                 int         3
  00411430: CC                 int         3
  00411431: CC                 int         3
  00411432: CC                 int         3
  00411433: CC                 int         3
  00411434: CC                 int         3
  00411435: CC                 int         3
  00411436: CC                 int         3
  00411437: CC                 int         3
  00411438: CC                 int         3
  00411439: CC                 int         3
  0041143A: CC                 int         3
  0041143B: CC                 int         3
  0041143C: CC                 int         3
  0041143D: CC                 int         3
  0041143E: CC                 int         3
  0041143F: CC                 int         3
  00411440: CC                 int         3
  00411441: CC                 int         3
  00411442: CC                 int         3
  00411443: CC                 int         3
  00411444: CC                 int         3
  00411445: CC                 int         3
  00411446: CC                 int         3
  00411447: CC                 int         3
  00411448: CC                 int         3
  00411449: CC                 int         3
  0041144A: CC                 int         3
  0041144B: CC                 int         3
  0041144C: CC                 int         3
  0041144D: CC                 int         3
  0041144E: CC                 int         3
  0041144F: CC                 int         3
  00411450: CC                 int         3
  00411451: CC                 int         3
  00411452: CC                 int         3
  00411453: CC                 int         3
  00411454: CC                 int         3
  00411455: CC                 int         3
  00411456: CC                 int         3
  00411457: CC                 int         3
  00411458: CC                 int         3
  00411459: CC                 int         3
  0041145A: CC                 int         3
  0041145B: CC                 int         3
  0041145C: CC                 int         3
  0041145D: CC                 int         3
  0041145E: CC                 int         3
  0041145F: CC                 int         3
  00411460: CC                 int         3
  00411461: CC                 int         3
  00411462: CC                 int         3
  00411463: CC                 int         3
  00411464: CC                 int         3
  00411465: CC                 int         3
  00411466: CC                 int         3
  00411467: CC                 int         3
  00411468: CC                 int         3
  00411469: CC                 int         3
  0041146A: CC                 int         3
  0041146B: CC                 int         3
  0041146C: CC                 int         3
  0041146D: CC                 int         3
  0041146E: CC                 int         3
  0041146F: CC                 int         3
  00411470: CC                 int         3
  00411471: CC                 int         3
  00411472: CC                 int         3
  00411473: CC                 int         3
  00411474: CC                 int         3
  00411475: CC                 int         3
  00411476: CC                 int         3
  00411477: CC                 int         3
  00411478: CC                 int         3
  00411479: CC                 int         3
  0041147A: CC                 int         3
  0041147B: CC                 int         3
  0041147C: CC                 int         3
  0041147D: CC                 int         3
  0041147E: CC                 int         3
  0041147F: CC                 int         3
  00411480: CC                 int         3
  00411481: CC                 int         3
  00411482: CC                 int         3
  00411483: CC                 int         3
  00411484: CC                 int         3
  00411485: CC                 int         3
  00411486: CC                 int         3
  00411487: CC                 int         3
  00411488: CC                 int         3
  00411489: CC                 int         3
  0041148A: CC                 int         3
  0041148B: CC                 int         3
  0041148C: CC                 int         3
  0041148D: CC                 int         3
  0041148E: CC                 int         3
  0041148F: CC                 int         3
  00411490: CC                 int         3
  00411491: CC                 int         3
  00411492: CC                 int         3
  00411493: CC                 int         3
  00411494: CC                 int         3
  00411495: CC                 int         3
  00411496: CC                 int         3
  00411497: CC                 int         3
  00411498: CC                 int         3
  00411499: CC                 int         3
  0041149A: CC                 int         3
  0041149B: CC                 int         3
  0041149C: CC                 int         3
  0041149D: CC                 int         3
  0041149E: CC                 int         3
  0041149F: CC                 int         3
  004114A0: CC                 int         3
  004114A1: CC                 int         3
  004114A2: CC                 int         3
  004114A3: CC                 int         3
  004114A4: CC                 int         3
  004114A5: CC                 int         3
  004114A6: CC                 int         3
  004114A7: CC                 int         3
  004114A8: CC                 int         3
  004114A9: CC                 int         3
  004114AA: CC                 int         3
  004114AB: CC                 int         3
  004114AC: CC                 int         3
  004114AD: CC                 int         3
  004114AE: CC                 int         3
  004114AF: CC                 int         3
  004114B0: CC                 int         3
  004114B1: CC                 int         3
  004114B2: CC                 int         3
  004114B3: CC                 int         3
  004114B4: CC                 int         3
  004114B5: CC                 int         3
  004114B6: CC                 int         3
  004114B7: CC                 int         3
  004114B8: CC                 int         3
  004114B9: CC                 int         3
  004114BA: CC                 int         3
  004114BB: CC                 int         3
  004114BC: CC                 int         3
  004114BD: CC                 int         3
  004114BE: CC                 int         3
  004114BF: CC                 int         3
  004114C0: CC                 int         3
  004114C1: CC                 int         3
  004114C2: CC                 int         3
  004114C3: CC                 int         3
  004114C4: CC                 int         3
  004114C5: CC                 int         3
  004114C6: CC                 int         3
  004114C7: CC                 int         3
  004114C8: CC                 int         3
  004114C9: CC                 int         3
  004114CA: CC                 int         3
  004114CB: CC                 int         3
  004114CC: CC                 int         3
  004114CD: CC                 int         3
  004114CE: CC                 int         3
  004114CF: CC                 int         3
  004114D0: CC                 int         3
  004114D1: CC                 int         3
  004114D2: CC                 int         3
  004114D3: CC                 int         3
  004114D4: CC                 int         3
  004114D5: CC                 int         3
  004114D6: CC                 int         3
  004114D7: CC                 int         3
  004114D8: CC                 int         3
  004114D9: CC                 int         3
  004114DA: CC                 int         3
  004114DB: CC                 int         3
  004114DC: CC                 int         3
  004114DD: CC                 int         3
  004114DE: CC                 int         3
  004114DF: CC                 int         3
  004114E0: CC                 int         3
  004114E1: CC                 int         3
  004114E2: CC                 int         3
  004114E3: CC                 int         3
  004114E4: CC                 int         3
  004114E5: CC                 int         3
  004114E6: CC                 int         3
  004114E7: CC                 int         3
  004114E8: CC                 int         3
  004114E9: CC                 int         3
  004114EA: CC                 int         3
  004114EB: CC                 int         3
  004114EC: CC                 int         3
  004114ED: CC                 int         3
  004114EE: CC                 int         3
  004114EF: CC                 int         3
  004114F0: CC                 int         3
  004114F1: CC                 int         3
  004114F2: CC                 int         3
  004114F3: CC                 int         3
  004114F4: CC                 int         3
  004114F5: CC                 int         3
  004114F6: CC                 int         3
  004114F7: CC                 int         3
  004114F8: CC                 int         3
  004114F9: CC                 int         3
  004114FA: CC                 int         3
  004114FB: CC                 int         3
  004114FC: CC                 int         3
  004114FD: CC                 int         3
  004114FE: CC                 int         3
  004114FF: CC                 int         3
  00411500: CC                 int         3
  00411501: CC                 int         3
  00411502: CC                 int         3
  00411503: CC                 int         3
  00411504: CC                 int         3
  00411505: CC                 int         3
  00411506: CC                 int         3
  00411507: CC                 int         3
  00411508: CC                 int         3
  00411509: CC                 int         3
  0041150A: CC                 int         3
  0041150B: CC                 int         3
  0041150C: CC                 int         3
  0041150D: CC                 int         3
  0041150E: CC                 int         3
  0041150F: CC                 int         3
  00411510: CC                 int         3
  00411511: CC                 int         3
  00411512: CC                 int         3
  00411513: CC                 int         3
  00411514: CC                 int         3
  00411515: CC                 int         3
  00411516: CC                 int         3
  00411517: CC                 int         3
  00411518: CC                 int         3
  00411519: CC                 int         3
  0041151A: CC                 int         3
  0041151B: CC                 int         3
  0041151C: CC                 int         3
  0041151D: CC                 int         3
  0041151E: CC                 int         3
  0041151F: CC                 int         3
  00411520: CC                 int         3
  00411521: CC                 int         3
  00411522: CC                 int         3
  00411523: CC                 int         3
  00411524: CC                 int         3
  00411525: CC                 int         3
  00411526: CC                 int         3
  00411527: CC                 int         3
  00411528: CC                 int         3
  00411529: CC                 int         3
  0041152A: CC                 int         3
  0041152B: CC                 int         3
  0041152C: CC                 int         3
  0041152D: CC                 int         3
  0041152E: CC                 int         3
  0041152F: CC                 int         3
  00411530: CC                 int         3
  00411531: CC                 int         3
  00411532: CC                 int         3
  00411533: CC                 int         3
  00411534: CC                 int         3
  00411535: CC                 int         3
  00411536: CC                 int         3
  00411537: CC                 int         3
  00411538: CC                 int         3
  00411539: CC                 int         3
  0041153A: CC                 int         3
  0041153B: CC                 int         3
  0041153C: CC                 int         3
  0041153D: CC                 int         3
  0041153E: CC                 int         3
  0041153F: CC                 int         3
  00411540: CC                 int         3
  00411541: CC                 int         3
  00411542: CC                 int         3
  00411543: CC                 int         3
  00411544: CC                 int         3
  00411545: CC                 int         3
  00411546: CC                 int         3
  00411547: CC                 int         3
  00411548: CC                 int         3
  00411549: CC                 int         3
  0041154A: CC                 int         3
  0041154B: CC                 int         3
  0041154C: CC                 int         3
  0041154D: CC                 int         3
  0041154E: CC                 int         3
  0041154F: CC                 int         3
  00411550: CC                 int         3
  00411551: CC                 int         3
  00411552: CC                 int         3
  00411553: CC                 int         3
  00411554: CC                 int         3
  00411555: CC                 int         3
  00411556: CC                 int         3
  00411557: CC                 int         3
  00411558: CC                 int         3
  00411559: CC                 int         3
  0041155A: CC                 int         3
  0041155B: CC                 int         3
  0041155C: CC                 int         3
  0041155D: CC                 int         3
  0041155E: CC                 int         3
  0041155F: CC                 int         3
  00411560: CC                 int         3
  00411561: CC                 int         3
  00411562: CC                 int         3
  00411563: CC                 int         3
  00411564: CC                 int         3
  00411565: CC                 int         3
  00411566: CC                 int         3
  00411567: CC                 int         3
  00411568: CC                 int         3
  00411569: CC                 int         3
  0041156A: CC                 int         3
  0041156B: CC                 int         3
  0041156C: CC                 int         3
  0041156D: CC                 int         3
  0041156E: CC                 int         3
  0041156F: CC                 int         3
  00411570: CC                 int         3
  00411571: CC                 int         3
  00411572: CC                 int         3
  00411573: CC                 int         3
  00411574: CC                 int         3
  00411575: CC                 int         3
  00411576: CC                 int         3
  00411577: CC                 int         3
  00411578: CC                 int         3
  00411579: CC                 int         3
  0041157A: CC                 int         3
  0041157B: CC                 int         3
  0041157C: CC                 int         3
  0041157D: CC                 int         3
  0041157E: CC                 int         3
  0041157F: CC                 int         3
  00411580: CC                 int         3
  00411581: CC                 int         3
  00411582: CC                 int         3
  00411583: CC                 int         3
  00411584: CC                 int         3
  00411585: CC                 int         3
  00411586: CC                 int         3
  00411587: CC                 int         3
  00411588: CC                 int         3
  00411589: CC                 int         3
  0041158A: CC                 int         3
  0041158B: CC                 int         3
  0041158C: CC                 int         3
  0041158D: CC                 int         3
  0041158E: CC                 int         3
  0041158F: CC                 int         3
  00411590: CC                 int         3
  00411591: CC                 int         3
  00411592: CC                 int         3
  00411593: CC                 int         3
  00411594: CC                 int         3
  00411595: CC                 int         3
  00411596: CC                 int         3
  00411597: CC                 int         3
  00411598: CC                 int         3
  00411599: CC                 int         3
  0041159A: CC                 int         3
  0041159B: CC                 int         3
  0041159C: CC                 int         3
  0041159D: CC                 int         3
  0041159E: CC                 int         3
  0041159F: CC                 int         3
  004115A0: CC                 int         3
  004115A1: CC                 int         3
  004115A2: CC                 int         3
  004115A3: CC                 int         3
  004115A4: CC                 int         3
  004115A5: CC                 int         3
  004115A6: CC                 int         3
  004115A7: CC                 int         3
  004115A8: CC                 int         3
  004115A9: CC                 int         3
  004115AA: CC                 int         3
  004115AB: CC                 int         3
  004115AC: CC                 int         3
  004115AD: CC                 int         3
  004115AE: CC                 int         3
  004115AF: CC                 int         3
  004115B0: CC                 int         3
  004115B1: CC                 int         3
  004115B2: CC                 int         3
  004115B3: CC                 int         3
  004115B4: CC                 int         3
  004115B5: CC                 int         3
  004115B6: CC                 int         3
  004115B7: CC                 int         3
  004115B8: CC                 int         3
  004115B9: CC                 int         3
  004115BA: CC                 int         3
  004115BB: CC                 int         3
  004115BC: CC                 int         3
  004115BD: CC                 int         3
  004115BE: CC                 int         3
  004115BF: CC                 int         3
  004115C0: CC                 int         3
  004115C1: CC                 int         3
  004115C2: CC                 int         3
  004115C3: CC                 int         3
  004115C4: CC                 int         3
  004115C5: CC                 int         3
  004115C6: CC                 int         3
  004115C7: CC                 int         3
  004115C8: CC                 int         3
  004115C9: CC                 int         3
  004115CA: CC                 int         3
  004115CB: CC                 int         3
  004115CC: CC                 int         3
  004115CD: CC                 int         3
  004115CE: CC                 int         3
  004115CF: CC                 int         3
  004115D0: CC                 int         3
  004115D1: CC                 int         3
  004115D2: CC                 int         3
  004115D3: CC                 int         3
  004115D4: CC                 int         3
  004115D5: CC                 int         3
  004115D6: CC                 int         3
  004115D7: CC                 int         3
  004115D8: CC                 int         3
  004115D9: CC                 int         3
  004115DA: CC                 int         3
  004115DB: CC                 int         3
  004115DC: CC                 int         3
  004115DD: CC                 int         3
  004115DE: CC                 int         3
  004115DF: CC                 int         3
  004115E0: CC                 int         3
  004115E1: CC                 int         3
  004115E2: CC                 int         3
  004115E3: CC                 int         3
  004115E4: CC                 int         3
  004115E5: CC                 int         3
  004115E6: CC                 int         3
  004115E7: CC                 int         3
  004115E8: CC                 int         3
  004115E9: CC                 int         3
  004115EA: CC                 int         3
  004115EB: CC                 int         3
  004115EC: CC                 int         3
  004115ED: CC                 int         3
  004115EE: CC                 int         3
  004115EF: CC                 int         3
  004115F0: CC                 int         3
  004115F1: CC                 int         3
  004115F2: CC                 int         3
  004115F3: CC                 int         3
  004115F4: CC                 int         3
  004115F5: CC                 int         3
  004115F6: CC                 int         3
  004115F7: CC                 int         3
  004115F8: CC                 int         3
  004115F9: CC                 int         3
  004115FA: CC                 int         3
  004115FB: CC                 int         3
  004115FC: CC                 int         3
  004115FD: CC                 int         3
  004115FE: CC                 int         3
  004115FF: CC                 int         3
  00411600: CC                 int         3
  00411601: CC                 int         3
  00411602: CC                 int         3
  00411603: CC                 int         3
  00411604: CC                 int         3
  00411605: CC                 int         3
  00411606: CC                 int         3
  00411607: CC                 int         3
  00411608: CC                 int         3
  00411609: CC                 int         3
  0041160A: CC                 int         3
  0041160B: CC                 int         3
  0041160C: CC                 int         3
  0041160D: CC                 int         3
  0041160E: CC                 int         3
  0041160F: CC                 int         3
  00411610: CC                 int         3
  00411611: CC                 int         3
  00411612: CC                 int         3
  00411613: CC                 int         3
  00411614: CC                 int         3
  00411615: CC                 int         3
  00411616: CC                 int         3
  00411617: CC                 int         3
  00411618: CC                 int         3
  00411619: CC                 int         3
  0041161A: CC                 int         3
  0041161B: CC                 int         3
  0041161C: CC                 int         3
  0041161D: CC                 int         3
  0041161E: CC                 int         3
  0041161F: CC                 int         3
  00411620: CC                 int         3
  00411621: CC                 int         3
  00411622: CC                 int         3
  00411623: CC                 int         3
  00411624: CC                 int         3
  00411625: CC                 int         3
  00411626: CC                 int         3
  00411627: CC                 int         3
  00411628: CC                 int         3
  00411629: CC                 int         3
  0041162A: CC                 int         3
  0041162B: CC                 int         3
  0041162C: CC                 int         3
  0041162D: CC                 int         3
  0041162E: CC                 int         3
  0041162F: CC                 int         3
  00411630: CC                 int         3
  00411631: CC                 int         3
  00411632: CC                 int         3
  00411633: CC                 int         3
  00411634: CC                 int         3
  00411635: CC                 int         3
  00411636: CC                 int         3
  00411637: CC                 int         3
  00411638: CC                 int         3
  00411639: CC                 int         3
  0041163A: CC                 int         3
  0041163B: CC                 int         3
  0041163C: CC                 int         3
  0041163D: CC                 int         3
  0041163E: CC                 int         3
  0041163F: CC                 int         3
  00411640: CC                 int         3
  00411641: CC                 int         3
  00411642: CC                 int         3
  00411643: CC                 int         3
  00411644: CC                 int         3
  00411645: CC                 int         3
  00411646: CC                 int         3
  00411647: CC                 int         3
  00411648: CC                 int         3
  00411649: CC                 int         3
  0041164A: CC                 int         3
  0041164B: CC                 int         3
  0041164C: CC                 int         3
  0041164D: CC                 int         3
  0041164E: CC                 int         3
  0041164F: CC                 int         3
  00411650: CC                 int         3
  00411651: CC                 int         3
  00411652: CC                 int         3
  00411653: CC                 int         3
  00411654: CC                 int         3
  00411655: CC                 int         3
  00411656: CC                 int         3
  00411657: CC                 int         3
  00411658: CC                 int         3
  00411659: CC                 int         3
  0041165A: CC                 int         3
  0041165B: CC                 int         3
  0041165C: CC                 int         3
  0041165D: CC                 int         3
  0041165E: CC                 int         3
  0041165F: CC                 int         3
  00411660: CC                 int         3
  00411661: CC                 int         3
  00411662: CC                 int         3
  00411663: CC                 int         3
  00411664: CC                 int         3
  00411665: CC                 int         3
  00411666: CC                 int         3
  00411667: CC                 int         3
  00411668: CC                 int         3
  00411669: CC                 int         3
  0041166A: CC                 int         3
  0041166B: CC                 int         3
  0041166C: CC                 int         3
  0041166D: CC                 int         3
  0041166E: CC                 int         3
  0041166F: CC                 int         3
  00411670: CC                 int         3
  00411671: CC                 int         3
  00411672: CC                 int         3
  00411673: CC                 int         3
  00411674: CC                 int         3
  00411675: CC                 int         3
  00411676: CC                 int         3
  00411677: CC                 int         3
  00411678: CC                 int         3
  00411679: CC                 int         3
  0041167A: CC                 int         3
  0041167B: CC                 int         3
  0041167C: CC                 int         3
  0041167D: CC                 int         3
  0041167E: CC                 int         3
  0041167F: CC                 int         3
  00411680: CC                 int         3
  00411681: CC                 int         3
  00411682: CC                 int         3
  00411683: CC                 int         3
  00411684: CC                 int         3
  00411685: CC                 int         3
  00411686: CC                 int         3
  00411687: CC                 int         3
  00411688: CC                 int         3
  00411689: CC                 int         3
  0041168A: CC                 int         3
  0041168B: CC                 int         3
  0041168C: CC                 int         3
  0041168D: CC                 int         3
  0041168E: CC                 int         3
  0041168F: CC                 int         3
  00411690: CC                 int         3
  00411691: CC                 int         3
  00411692: CC                 int         3
  00411693: CC                 int         3
  00411694: CC                 int         3
  00411695: CC                 int         3
  00411696: CC                 int         3
  00411697: CC                 int         3
  00411698: CC                 int         3
  00411699: CC                 int         3
  0041169A: CC                 int         3
  0041169B: CC                 int         3
  0041169C: CC                 int         3
  0041169D: CC                 int         3
  0041169E: CC                 int         3
  0041169F: CC                 int         3
  004116A0: CC                 int         3
  004116A1: CC                 int         3
  004116A2: CC                 int         3
  004116A3: CC                 int         3
  004116A4: CC                 int         3
  004116A5: CC                 int         3
  004116A6: CC                 int         3
  004116A7: CC                 int         3
  004116A8: CC                 int         3
  004116A9: CC                 int         3
  004116AA: CC                 int         3
  004116AB: CC                 int         3
  004116AC: CC                 int         3
  004116AD: CC                 int         3
  004116AE: CC                 int         3
  004116AF: CC                 int         3
  004116B0: CC                 int         3
  004116B1: CC                 int         3
  004116B2: CC                 int         3
  004116B3: CC                 int         3
  004116B4: CC                 int         3
  004116B5: CC                 int         3
  004116B6: CC                 int         3
  004116B7: CC                 int         3
  004116B8: CC                 int         3
  004116B9: CC                 int         3
  004116BA: CC                 int         3
  004116BB: CC                 int         3
  004116BC: CC                 int         3
  004116BD: CC                 int         3
  004116BE: CC                 int         3
  004116BF: CC                 int         3
  004116C0: CC                 int         3
  004116C1: CC                 int         3
  004116C2: CC                 int         3
  004116C3: CC                 int         3
  004116C4: CC                 int         3
  004116C5: CC                 int         3
  004116C6: CC                 int         3
  004116C7: CC                 int         3
  004116C8: CC                 int         3
  004116C9: CC                 int         3
  004116CA: CC                 int         3
  004116CB: CC                 int         3
  004116CC: CC                 int         3
  004116CD: CC                 int         3
  004116CE: CC                 int         3
  004116CF: CC                 int         3
  004116D0: CC                 int         3
  004116D1: CC                 int         3
  004116D2: CC                 int         3
  004116D3: CC                 int         3
  004116D4: CC                 int         3
  004116D5: CC                 int         3
  004116D6: CC                 int         3
  004116D7: CC                 int         3
  004116D8: CC                 int         3
  004116D9: CC                 int         3
  004116DA: CC                 int         3
  004116DB: CC                 int         3
  004116DC: CC                 int         3
  004116DD: CC                 int         3
  004116DE: CC                 int         3
  004116DF: CC                 int         3
  004116E0: CC                 int         3
  004116E1: CC                 int         3
  004116E2: CC                 int         3
  004116E3: CC                 int         3
  004116E4: CC                 int         3
  004116E5: CC                 int         3
  004116E6: CC                 int         3
  004116E7: CC                 int         3
  004116E8: CC                 int         3
  004116E9: CC                 int         3
  004116EA: CC                 int         3
  004116EB: CC                 int         3
  004116EC: CC                 int         3
  004116ED: CC                 int         3
  004116EE: CC                 int         3
  004116EF: CC                 int         3
  004116F0: CC                 int         3
  004116F1: CC                 int         3
  004116F2: CC                 int         3
  004116F3: CC                 int         3
  004116F4: CC                 int         3
  004116F5: CC                 int         3
  004116F6: CC                 int         3
  004116F7: CC                 int         3
  004116F8: CC                 int         3
  004116F9: CC                 int         3
  004116FA: CC                 int         3
  004116FB: CC                 int         3
  004116FC: CC                 int         3
  004116FD: CC                 int         3
  004116FE: CC                 int         3
  004116FF: CC                 int         3
  00411700: CC                 int         3
  00411701: CC                 int         3
  00411702: CC                 int         3
  00411703: CC                 int         3
  00411704: CC                 int         3
  00411705: CC                 int         3
  00411706: CC                 int         3
  00411707: CC                 int         3
  00411708: CC                 int         3
  00411709: CC                 int         3
  0041170A: CC                 int         3
  0041170B: CC                 int         3
  0041170C: CC                 int         3
  0041170D: CC                 int         3
  0041170E: CC                 int         3
  0041170F: CC                 int         3
?ShowData@Employee@@QAEXXZ:
  00411710: 55                 push        ebp
  00411711: 8B EC              mov         ebp,esp
  00411713: 81 EC CC 00 00 00  sub         esp,0CCh
  00411719: 53                 push        ebx
  0041171A: 56                 push        esi
  0041171B: 57                 push        edi
  0041171C: 51                 push        ecx
  0041171D: 8D BD 34 FF FF FF  lea         edi,[ebp-0CCh]
  00411723: B9 33 00 00 00     mov         ecx,33h
  00411728: B8 CC CC CC CC     mov         eax,0CCCCCCCCh
  0041172D: F3 AB              rep stos    dword ptr es:[edi]
  0041172F: 59                 pop         ecx
  00411730: 89 4D F8           mov         dword ptr [ebp-8],ecx
  00411733: 8B 45 F8           mov         eax,dword ptr [ebp-8]
  00411736: 8B 08              mov         ecx,dword ptr [eax]
  00411738: 51                 push        ecx
  00411739: 68 30 7B 41 00     push        offset ??_C@_0M@DJLBOOLN@number?3?5?$CFd?6?$AA@
  0041173E: E8 00 FC FF FF     call        @ILT+830(_printf)
  00411743: 83 C4 08           add         esp,8
  00411746: 8B 45 F8           mov         eax,dword ptr [ebp-8]
  00411749: 83 C0 04           add         eax,4
  0041174C: 50                 push        eax
  0041174D: 68 40 7B 41 00     push        offset ??_C@_09FFLHIKMF@name?3?5?$CFs?6?$AA@
  00411752: E8 EC FB FF FF     call        @ILT+830(_printf)
  00411757: 83 C4 08           add         esp,8
  0041175A: 8B 45 F8           mov         eax,dword ptr [ebp-8]
  0041175D: 8B 88 84 00 00 00  mov         ecx,dword ptr [eax+84h]
  00411763: 51                 push        ecx
  00411764: 68 4C 7B 41 00     push        offset ??_C@_08MKBJMCOM@pay?3?5?$CFd?6?$AA@
  00411769: E8 D5 FB FF FF     call        @ILT+830(_printf)
  0041176E: 83 C4 08           add         esp,8
  00411771: 5F                 pop         edi
  00411772: 5E                 pop         esi
  00411773: 5B                 pop         ebx
  00411774: 81 C4 CC 00 00 00  add         esp,0CCh
  0041177A: 3B EC              cmp         ebp,esp
  0041177C: E8 B0 F9 FF FF     call        @ILT+300(__RTC_CheckEsp)
  00411781: 8B E5              mov         esp,ebp
  00411783: 5D                 pop         ebp
  00411784: C3                 ret
  00411785: CC                 int         3
  00411786: CC                 int         3
  00411787: CC                 int         3
  00411788: CC                 int         3
  00411789: CC                 int         3
  0041178A: CC                 int         3
  0041178B: CC                 int         3
  0041178C: CC                 int         3
  0041178D: CC                 int         3
  0041178E: CC                 int         3
  0041178F: CC                 int         3
  00411790: CC                 int         3
  00411791: CC                 int         3
  00411792: CC                 int         3
  00411793: CC                 int         3
  00411794: CC                 int         3
  00411795: CC                 int         3
  00411796: CC                 int         3
  00411797: CC                 int         3
  00411798: CC                 int         3
  00411799: CC                 int         3
  0041179A: CC                 int         3
  0041179B: CC                 int         3
  0041179C: CC                 int         3
  0041179D: CC                 int         3
  0041179E: CC                 int         3
  0041179F: CC                 int         3
  004117A0: CC                 int         3
  004117A1: CC                 int         3
  004117A2: CC                 int         3
  004117A3: CC                 int         3
  004117A4: CC                 int         3
  004117A5: CC                 int         3
  004117A6: CC                 int         3
  004117A7: CC                 int         3
  004117A8: CC                 int         3
  004117A9: CC                 int         3
  004117AA: CC                 int         3
  004117AB: CC                 int         3
  004117AC: CC                 int         3
  004117AD: CC                 int         3
  004117AE: CC                 int         3
  004117AF: CC                 int         3
?Test@Employee@@QAEXXZ:
  004117B0: 55                 push        ebp
  004117B1: 8B EC              mov         ebp,esp
  004117B3: 81 EC CC 00 00 00  sub         esp,0CCh
  004117B9: 53                 push        ebx
  004117BA: 56                 push        esi
  004117BB: 57                 push        edi
  004117BC: 51                 push        ecx
  004117BD: 8D BD 34 FF FF FF  lea         edi,[ebp-0CCh]
  004117C3: B9 33 00 00 00     mov         ecx,33h
  004117C8: B8 CC CC CC CC     mov         eax,0CCCCCCCCh
  004117CD: F3 AB              rep stos    dword ptr es:[edi]
  004117CF: 59                 pop         ecx
  004117D0: 89 4D F8           mov         dword ptr [ebp-8],ecx
  004117D3: 68 58 7B 41 00     push        offset ??_C@_0P@EENJBMFJ@Test?5function?6?$AA@
  004117D8: E8 66 FB FF FF     call        @ILT+830(_printf)
  004117DD: 83 C4 04           add         esp,4
  004117E0: 5F                 pop         edi
  004117E1: 5E                 pop         esi
  004117E2: 5B                 pop         ebx
  004117E3: 81 C4 CC 00 00 00  add         esp,0CCh
  004117E9: 3B EC              cmp         ebp,esp
  004117EB: E8 41 F9 FF FF     call        @ILT+300(__RTC_CheckEsp)
  004117F0: 8B E5              mov         esp,ebp
  004117F2: 5D                 pop         ebp
  004117F3: C3                 ret
  004117F4: CC                 int         3
  004117F5: CC                 int         3
  004117F6: CC                 int         3
  004117F7: CC                 int         3
  004117F8: CC                 int         3
  004117F9: CC                 int         3
  004117FA: CC                 int         3
  004117FB: CC                 int         3
  004117FC: CC                 int         3
  004117FD: CC                 int         3
  004117FE: CC                 int         3
  004117FF: CC                 int         3
  00411800: CC                 int         3
  00411801: CC                 int         3
  00411802: CC                 int         3
  00411803: CC                 int         3
  00411804: CC                 int         3
  00411805: CC                 int         3
  00411806: CC                 int         3
  00411807: CC                 int         3
  00411808: CC                 int         3
  00411809: CC                 int         3
  0041180A: CC                 int         3
  0041180B: CC                 int         3
  0041180C: CC                 int         3
  0041180D: CC                 int         3
  0041180E: CC                 int         3
  0041180F: CC                 int         3
?setName@Employee@@QAEXPAD@Z:
  00411810: 55                 push        ebp
  00411811: 8B EC              mov         ebp,esp
  00411813: 81 EC CC 00 00 00  sub         esp,0CCh
  00411819: 53                 push        ebx
  0041181A: 56                 push        esi
  0041181B: 57                 push        edi
  0041181C: 51                 push        ecx
  0041181D: 8D BD 34 FF FF FF  lea         edi,[ebp-0CCh]
  00411823: B9 33 00 00 00     mov         ecx,33h
  00411828: B8 CC CC CC CC     mov         eax,0CCCCCCCCh
  0041182D: F3 AB              rep stos    dword ptr es:[edi]
  0041182F: 59                 pop         ecx
  00411830: 89 4D F8           mov         dword ptr [ebp-8],ecx
  00411833: 8B F4              mov         esi,esp
  00411835: 8B 45 08           mov         eax,dword ptr [ebp+8]
  00411838: 50                 push        eax
  00411839: 68 80 00 00 00     push        80h
  0041183E: 8B 4D F8           mov         ecx,dword ptr [ebp-8]
  00411841: 83 C1 04           add         ecx,4
  00411844: 51                 push        ecx
  00411845: FF 15 64 B1 41 00  call        dword ptr [__imp__strcpy_s]
  0041184B: 83 C4 0C           add         esp,0Ch
  0041184E: 3B F4              cmp         esi,esp
  00411850: E8 DC F8 FF FF     call        @ILT+300(__RTC_CheckEsp)
  00411855: 5F                 pop         edi
  00411856: 5E                 pop         esi
  00411857: 5B                 pop         ebx
  00411858: 81 C4 CC 00 00 00  add         esp,0CCh
  0041185E: 3B EC              cmp         ebp,esp
  00411860: E8 CC F8 FF FF     call        @ILT+300(__RTC_CheckEsp)
  00411865: 8B E5              mov         esp,ebp
  00411867: 5D                 pop         ebp
  00411868: C2 04 00           ret         4
  0041186B: CC                 int         3
  0041186C: CC                 int         3
  0041186D: CC                 int         3
  0041186E: CC                 int         3
  0041186F: CC                 int         3
  00411870: CC                 int         3
  00411871: CC                 int         3
  00411872: CC                 int         3
  00411873: CC                 int         3
  00411874: CC                 int         3
  00411875: CC                 int         3
  00411876: CC                 int         3
  00411877: CC                 int         3
  00411878: CC                 int         3
  00411879: CC                 int         3
  0041187A: CC                 int         3
  0041187B: CC                 int         3
  0041187C: CC                 int         3
  0041187D: CC                 int         3
  0041187E: CC                 int         3
  0041187F: CC                 int         3
  00411880: CC                 int         3
  00411881: CC                 int         3
  00411882: CC                 int         3
  00411883: CC                 int         3
  00411884: CC                 int         3
  00411885: CC                 int         3
  00411886: CC                 int         3
  00411887: CC                 int         3
  00411888: CC                 int         3
  00411889: CC                 int         3
  0041188A: CC                 int         3
  0041188B: CC                 int         3
  0041188C: CC                 int         3
  0041188D: CC                 int         3
  0041188E: CC                 int         3
  0041188F: CC                 int         3
?setNumber@Employee@@QAEXH@Z:
  00411890: 55                 push        ebp
  00411891: 8B EC              mov         ebp,esp
  00411893: 81 EC CC 00 00 00  sub         esp,0CCh
  00411899: 53                 push        ebx
  0041189A: 56                 push        esi
  0041189B: 57                 push        edi
  0041189C: 51                 push        ecx
  0041189D: 8D BD 34 FF FF FF  lea         edi,[ebp-0CCh]
  004118A3: B9 33 00 00 00     mov         ecx,33h
  004118A8: B8 CC CC CC CC     mov         eax,0CCCCCCCCh
  004118AD: F3 AB              rep stos    dword ptr es:[edi]
  004118AF: 59                 pop         ecx
  004118B0: 89 4D F8           mov         dword ptr [ebp-8],ecx
  004118B3: 8B 45 F8           mov         eax,dword ptr [ebp-8]
  004118B6: 8B 4D 08           mov         ecx,dword ptr [ebp+8]
  004118B9: 89 08              mov         dword ptr [eax],ecx
  004118BB: 5F                 pop         edi
  004118BC: 5E                 pop         esi
  004118BD: 5B                 pop         ebx
  004118BE: 8B E5              mov         esp,ebp
  004118C0: 5D                 pop         ebp
  004118C1: C2 04 00           ret         4
  004118C4: CC                 int         3
  004118C5: CC                 int         3
  004118C6: CC                 int         3
  004118C7: CC                 int         3
  004118C8: CC                 int         3
  004118C9: CC                 int         3
  004118CA: CC                 int         3
  004118CB: CC                 int         3
  004118CC: CC                 int         3
  004118CD: CC                 int         3
  004118CE: CC                 int         3
  004118CF: CC                 int         3
  004118D0: CC                 int         3
  004118D1: CC                 int         3
  004118D2: CC                 int         3
  004118D3: CC                 int         3
  004118D4: CC                 int         3
  004118D5: CC                 int         3
  004118D6: CC                 int         3
  004118D7: CC                 int         3
  004118D8: CC                 int         3
  004118D9: CC                 int         3
  004118DA: CC                 int         3
  004118DB: CC                 int         3
  004118DC: CC                 int         3
  004118DD: CC                 int         3
  004118DE: CC                 int         3
  004118DF: CC                 int         3
?setPay@Employee@@QAEXJ@Z:
  004118E0: 55                 push        ebp
  004118E1: 8B EC              mov         ebp,esp
  004118E3: 81 EC CC 00 00 00  sub         esp,0CCh
  004118E9: 53                 push        ebx
  004118EA: 56                 push        esi
  004118EB: 57                 push        edi
  004118EC: 51                 push        ecx
  004118ED: 8D BD 34 FF FF FF  lea         edi,[ebp-0CCh]
  004118F3: B9 33 00 00 00     mov         ecx,33h
  004118F8: B8 CC CC CC CC     mov         eax,0CCCCCCCCh
  004118FD: F3 AB              rep stos    dword ptr es:[edi]
  004118FF: 59                 pop         ecx
  00411900: 89 4D F8           mov         dword ptr [ebp-8],ecx
  00411903: 8B 45 F8           mov         eax,dword ptr [ebp-8]
  00411906: 8B 4D 08           mov         ecx,dword ptr [ebp+8]
  00411909: 89 88 84 00 00 00  mov         dword ptr [eax+84h],ecx
  0041190F: 5F                 pop         edi
  00411910: 5E                 pop         esi
  00411911: 5B                 pop         ebx
  00411912: 8B E5              mov         esp,ebp
  00411914: 5D                 pop         ebp
  00411915: C2 04 00           ret         4
  00411918: CC                 int         3
  00411919: CC                 int         3
  0041191A: CC                 int         3
  0041191B: CC                 int         3
  0041191C: CC                 int         3
  0041191D: CC                 int         3
  0041191E: CC                 int         3
  0041191F: CC                 int         3
  00411920: CC                 int         3
  00411921: CC                 int         3
  00411922: CC                 int         3
  00411923: CC                 int         3
  00411924: CC                 int         3
  00411925: CC                 int         3
  00411926: CC                 int         3
  00411927: CC                 int         3
  00411928: CC                 int         3
  00411929: CC                 int         3
  0041192A: CC                 int         3
  0041192B: CC                 int         3
  0041192C: CC                 int         3
  0041192D: CC                 int         3
  0041192E: CC                 int         3
  0041192F: CC                 int         3
___local_stdio_printf_options:
  00411930: 55                 push        ebp
  00411931: 8B EC              mov         ebp,esp
  00411933: 81 EC C0 00 00 00  sub         esp,0C0h
  00411939: 53                 push        ebx
  0041193A: 56                 push        esi
  0041193B: 57                 push        edi
  0041193C: 8D BD 40 FF FF FF  lea         edi,[ebp-0C0h]
  00411942: B9 30 00 00 00     mov         ecx,30h
  00411947: B8 CC CC CC CC     mov         eax,0CCCCCCCCh
  0041194C: F3 AB              rep stos    dword ptr es:[edi]
  0041194E: B8 38 A1 41 00     mov         eax,offset ?_OptionsStorage@?1??__local_stdio_printf_options@@9@4_KA
  00411953: 5F                 pop         edi
  00411954: 5E                 pop         esi
  00411955: 5B                 pop         ebx
  00411956: 8B E5              mov         esp,ebp
  00411958: 5D                 pop         ebp
  00411959: C3                 ret
  0041195A: CC                 int         3
  0041195B: CC                 int         3
  0041195C: CC                 int         3
  0041195D: CC                 int         3
  0041195E: CC                 int         3
  0041195F: CC                 int         3
  00411960: CC                 int         3
  00411961: CC                 int         3
  00411962: CC                 int         3
  00411963: CC                 int         3
  00411964: CC                 int         3
  00411965: CC                 int         3
  00411966: CC                 int         3
  00411967: CC                 int         3
  00411968: CC                 int         3
  00411969: CC                 int         3
  0041196A: CC                 int         3
  0041196B: CC                 int         3
  0041196C: CC                 int         3
  0041196D: CC                 int         3
  0041196E: CC                 int         3
  0041196F: CC                 int         3
__vfprintf_l:
  00411970: 55                 push        ebp
  00411971: 8B EC              mov         ebp,esp
  00411973: 81 EC C0 00 00 00  sub         esp,0C0h
  00411979: 53                 push        ebx
  0041197A: 56                 push        esi
  0041197B: 57                 push        edi
  0041197C: 8D BD 40 FF FF FF  lea         edi,[ebp-0C0h]
  00411982: B9 30 00 00 00     mov         ecx,30h
  00411987: B8 CC CC CC CC     mov         eax,0CCCCCCCCh
  0041198C: F3 AB              rep stos    dword ptr es:[edi]
  0041198E: 8B F4              mov         esi,esp
  00411990: 8B 45 14           mov         eax,dword ptr [ebp+14h]
  00411993: 50                 push        eax
  00411994: 8B 4D 10           mov         ecx,dword ptr [ebp+10h]
  00411997: 51                 push        ecx
  00411998: 8B 55 0C           mov         edx,dword ptr [ebp+0Ch]
  0041199B: 52                 push        edx
  0041199C: 8B 45 08           mov         eax,dword ptr [ebp+8]
  0041199F: 50                 push        eax
  004119A0: E8 B2 F9 FF FF     call        @ILT+850(___local_stdio_printf_options)
  004119A5: 8B 48 04           mov         ecx,dword ptr [eax+4]
  004119A8: 51                 push        ecx
  004119A9: 8B 10              mov         edx,dword ptr [eax]
  004119AB: 52                 push        edx
  004119AC: FF 15 68 B1 41 00  call        dword ptr [__imp____stdio_common_vfprintf]
  004119B2: 83 C4 18           add         esp,18h
  004119B5: 3B F4              cmp         esi,esp
  004119B7: E8 75 F7 FF FF     call        @ILT+300(__RTC_CheckEsp)
  004119BC: 5F                 pop         edi
  004119BD: 5E                 pop         esi
  004119BE: 5B                 pop         ebx
  004119BF: 81 C4 C0 00 00 00  add         esp,0C0h
  004119C5: 3B EC              cmp         ebp,esp
  004119C7: E8 65 F7 FF FF     call        @ILT+300(__RTC_CheckEsp)
  004119CC: 8B E5              mov         esp,ebp
  004119CE: 5D                 pop         ebp
  004119CF: C3                 ret
  004119D0: CC                 int         3
  004119D1: CC                 int         3
  004119D2: CC                 int         3
  004119D3: CC                 int         3
  004119D4: CC                 int         3
  004119D5: CC                 int         3
  004119D6: CC                 int         3
  004119D7: CC                 int         3
  004119D8: CC                 int         3
  004119D9: CC                 int         3
  004119DA: CC                 int         3
  004119DB: CC                 int         3
  004119DC: CC                 int         3
  004119DD: CC                 int         3
  004119DE: CC                 int         3
  004119DF: CC                 int         3
  004119E0: CC                 int         3
  004119E1: CC                 int         3
  004119E2: CC                 int         3
  004119E3: CC                 int         3
  004119E4: CC                 int         3
  004119E5: CC                 int         3
  004119E6: CC                 int         3
  004119E7: CC                 int         3
  004119E8: CC                 int         3
  004119E9: CC                 int         3
  004119EA: CC                 int         3
  004119EB: CC                 int         3
  004119EC: CC                 int         3
  004119ED: CC                 int         3
  004119EE: CC                 int         3
  004119EF: CC                 int         3
_main:
  004119F0: 55                 push        ebp
  004119F1: 8B EC              mov         ebp,esp
  004119F3: 81 EC B4 03 00 00  sub         esp,3B4h
  004119F9: 53                 push        ebx
  004119FA: 56                 push        esi
  004119FB: 57                 push        edi
  004119FC: 8D BD 4C FC FF FF  lea         edi,[ebp-3B4h]
  00411A02: B9 ED 00 00 00     mov         ecx,0EDh
  00411A07: B8 CC CC CC CC     mov         eax,0CCCCCCCCh
  00411A0C: F3 AB              rep stos    dword ptr es:[edi]
  00411A0E: A1 00 A0 41 00     mov         eax,dword ptr [___security_cookie]
  00411A13: 33 C5              xor         eax,ebp
  00411A15: 89 45 FC           mov         dword ptr [ebp-4],eax
  00411A18: 8B F4              mov         esi,esp
  00411A1A: 68 6C 7B 41 00     push        offset ??_C@_0M@HNCEKOLD@?$II?j?$IDm?$JA?$KD?5?$IJ?T?$JG?$LM?$AA@
  00411A1F: 68 80 00 00 00     push        80h
  00411A24: 8D 85 58 FE FF FF  lea         eax,[ebp-1A8h]
  00411A2A: 50                 push        eax
  00411A2B: FF 15 64 B1 41 00  call        dword ptr [__imp__strcpy_s]
  00411A31: 83 C4 0C           add         esp,0Ch
  00411A34: 3B F4              cmp         esi,esp
  00411A36: E8 F6 F6 FF FF     call        @ILT+300(__RTC_CheckEsp)
  00411A3B: 8B F4              mov         esi,esp
  00411A3D: 68 7C 7B 41 00     push        offset ??_C@_0M@GKNNNEAK@?$JFS?$JCn?5?$IC?$LN?$IC?$NM?$IC?D?$AA@
  00411A42: 68 80 00 00 00     push        80h
  00411A47: 8D 85 D0 FD FF FF  lea         eax,[ebp-230h]
  00411A4D: 50                 push        eax
  00411A4E: FF 15 64 B1 41 00  call        dword ptr [__imp__strcpy_s]
  00411A54: 83 C4 0C           add         esp,0Ch
  00411A57: 3B F4              cmp         esi,esp
  00411A59: E8 D3 F6 FF FF     call        @ILT+300(__RTC_CheckEsp)
  00411A5E: 68 88 00 00 00     push        88h
  00411A63: 68 8C 7B 41 00     push        offset ??_C@_0BD@KNNANDED@Employee?5size?3?5?$CFX?6?$AA@
  00411A68: E8 D6 F8 FF FF     call        @ILT+830(_printf)
  00411A6D: 83 C4 08           add         esp,8
  00411A70: 68 11 11 00 00     push        1111h
  00411A75: 8D 8D 70 FF FF FF  lea         ecx,[ebp-90h]
  00411A7B: E8 AC F6 FF FF     call        @ILT+295(?setNumber@Employee@@QAEXH@Z)
  00411A80: 8D 85 58 FE FF FF  lea         eax,[ebp-1A8h]
  00411A86: 50                 push        eax
  00411A87: 8D 8D 70 FF FF FF  lea         ecx,[ebp-90h]
  00411A8D: E8 91 F5 FF FF     call        @ILT+30(?setName@Employee@@QAEXPAD@Z)
  00411A92: 68 00 01 00 00     push        100h
  00411A97: 8D 8D 70 FF FF FF  lea         ecx,[ebp-90h]
  00411A9D: E8 B1 F7 FF FF     call        @ILT+590(?setPay@Employee@@QAEXJ@Z)
  00411AA2: 68 12 11 00 00     push        1112h
  00411AA7: 8D 8D E0 FE FF FF  lea         ecx,[ebp-120h]
  00411AAD: E8 7A F6 FF FF     call        @ILT+295(?setNumber@Employee@@QAEXH@Z)
  00411AB2: 8D 85 D0 FD FF FF  lea         eax,[ebp-230h]
  00411AB8: 50                 push        eax
  00411AB9: 8D 8D E0 FE FF FF  lea         ecx,[ebp-120h]
  00411ABF: E8 5F F5 FF FF     call        @ILT+30(?setName@Employee@@QAEXPAD@Z)
  00411AC4: 6A 50              push        50h
  00411AC6: 8D 8D E0 FE FF FF  lea         ecx,[ebp-120h]
  00411ACC: E8 82 F7 FF FF     call        @ILT+590(?setPay@Employee@@QAEXJ@Z)
  00411AD1: 8D 8D 70 FF FF FF  lea         ecx,[ebp-90h]
  00411AD7: E8 D3 F5 FF FF     call        @ILT+170(?ShowData@Employee@@QAEXXZ)
  00411ADC: 8D 8D E0 FE FF FF  lea         ecx,[ebp-120h]
  00411AE2: E8 C8 F5 FF FF     call        @ILT+170(?ShowData@Employee@@QAEXXZ)
  00411AE7: 33 C0              xor         eax,eax
  00411AE9: 52                 push        edx
  00411AEA: 8B CD              mov         ecx,ebp
  00411AEC: 50                 push        eax
  00411AED: 8D 15 18 1B 41 00  lea         edx,ds:[411B18h]
  00411AF3: E8 83 F7 FF FF     call        @ILT+630(@_RTC_CheckStackVars@8)
  00411AF8: 58                 pop         eax
  00411AF9: 5A                 pop         edx
  00411AFA: 5F                 pop         edi
  00411AFB: 5E                 pop         esi
  00411AFC: 5B                 pop         ebx
  00411AFD: 8B 4D FC           mov         ecx,dword ptr [ebp-4]
  00411B00: 33 CD              xor         ecx,ebp
  00411B02: E8 88 F7 FF FF     call        @ILT+650(@__security_check_cookie@4)
  00411B07: 81 C4 B4 03 00 00  add         esp,3B4h
  00411B0D: 3B EC              cmp         ebp,esp
  00411B0F: E8 1D F6 FF FF     call        @ILT+300(__RTC_CheckEsp)
  00411B14: 8B E5              mov         esp,ebp
  00411B16: 5D                 pop         ebp
  00411B17: C3                 ret
  00411B18: 04 00              add         al,0
  00411B1A: 00 00              add         byte ptr [eax],al
  00411B1C: 20 1B              and         byte ptr [ebx],bl
  00411B1E: 41                 inc         ecx
  00411B1F: 00 70 FF           add         byte ptr [eax-1],dh
  00411B22: FF
  00411B23: FF 88 00 00 00 69  dec         dword ptr [eax+69000000h]
  00411B29: 1B 41 00           sbb         eax,dword ptr [ecx]
  00411B2C: E0 FE              loopne      00411B2C
  00411B2E: FF
  00411B2F: FF 88 00 00 00 61  dec         dword ptr [eax+61000000h]
  00411B35: 1B 41 00           sbb         eax,dword ptr [ecx]
  00411B38: 58                 pop         eax
  00411B39: FE
  00411B3A: FF
  00411B3B: FF 80 00 00 00 58  inc         dword ptr [eax+58000000h]
  00411B41: 1B 41 00           sbb         eax,dword ptr [ecx]
  00411B44: D0 FD              sar         ch,1
  00411B46: FF
  00411B47: FF 80 00 00 00 50  inc         dword ptr [eax+50000000h]
  00411B4D: 1B 41 00           sbb         eax,dword ptr [ecx]
  00411B50: 6D                 ins         dword ptr es:[edi],dx
  00411B51: 6F                 outs        dx,dword ptr [esi]
  00411B52: 6D                 ins         dword ptr es:[edi],dx
  00411B53: 6F                 outs        dx,dword ptr [esi]
  00411B54: 63 68 69           arpl        word ptr [eax+69h],bp
  00411B57: 00 69 63           add         byte ptr [ecx+63h],ch
  00411B5A: 68 69 6E 6F 73     push        736F6E69h
  00411B5F: 65 00 4D 6F        add         byte ptr gs:[ebp+6Fh],cl
  00411B63: 6D                 ins         dword ptr es:[edi],dx
  00411B64: 6F                 outs        dx,dword ptr [esi]
  00411B65: 63 68 69           arpl        word ptr [eax+69h],bp
  00411B68: 00 49 63           add         byte ptr [ecx+63h],cl
  00411B6B: 68 69 6E 6F 73     push        736F6E69h
  00411B70: 65 00 CC           add         ah,cl
  00411B73: CC                 int         3
  00411B74: CC                 int         3
  00411B75: CC                 int         3
  00411B76: CC                 int         3
  00411B77: CC                 int         3
  00411B78: CC                 int         3
  00411B79: CC                 int         3
  00411B7A: CC                 int         3
  00411B7B: CC                 int         3
  00411B7C: CC                 int         3
  00411B7D: CC                 int         3
  00411B7E: CC                 int         3
  00411B7F: CC                 int         3
  00411B80: CC                 int         3
  00411B81: CC                 int         3
  00411B82: CC                 int         3
  00411B83: CC                 int         3
  00411B84: CC                 int         3
  00411B85: CC                 int         3
  00411B86: CC                 int         3
  00411B87: CC                 int         3
  00411B88: CC                 int         3
  00411B89: CC                 int         3
  00411B8A: CC                 int         3
  00411B8B: CC                 int         3
  00411B8C: CC                 int         3
  00411B8D: CC                 int         3
  00411B8E: CC                 int         3
  00411B8F: CC                 int         3
  00411B90: CC                 int         3
  00411B91: CC                 int         3
  00411B92: CC                 int         3
  00411B93: CC                 int         3
  00411B94: CC                 int         3
  00411B95: CC                 int         3
  00411B96: CC                 int         3
  00411B97: CC                 int         3
  00411B98: CC                 int         3
  00411B99: CC                 int         3
  00411B9A: CC                 int         3
  00411B9B: CC                 int         3
  00411B9C: CC                 int         3
  00411B9D: CC                 int         3
  00411B9E: CC                 int         3
  00411B9F: CC                 int         3
  00411BA0: CC                 int         3
  00411BA1: CC                 int         3
  00411BA2: CC                 int         3
  00411BA3: CC                 int         3
  00411BA4: CC                 int         3
  00411BA5: CC                 int         3
  00411BA6: CC                 int         3
  00411BA7: CC                 int         3
  00411BA8: CC                 int         3
  00411BA9: CC                 int         3
  00411BAA: CC                 int         3
  00411BAB: CC                 int         3
  00411BAC: CC                 int         3
  00411BAD: CC                 int         3
  00411BAE: CC                 int         3
  00411BAF: CC                 int         3
  00411BB0: CC                 int         3
  00411BB1: CC                 int         3
  00411BB2: CC                 int         3
  00411BB3: CC                 int         3
  00411BB4: CC                 int         3
  00411BB5: CC                 int         3
  00411BB6: CC                 int         3
  00411BB7: CC                 int         3
  00411BB8: CC                 int         3
  00411BB9: CC                 int         3
  00411BBA: CC                 int         3
  00411BBB: CC                 int         3
  00411BBC: CC                 int         3
  00411BBD: CC                 int         3
  00411BBE: CC                 int         3
  00411BBF: CC                 int         3
  00411BC0: CC                 int         3
  00411BC1: CC                 int         3
  00411BC2: CC                 int         3
  00411BC3: CC                 int         3
  00411BC4: CC                 int         3
  00411BC5: CC                 int         3
  00411BC6: CC                 int         3
  00411BC7: CC                 int         3
  00411BC8: CC                 int         3
  00411BC9: CC                 int         3
  00411BCA: CC                 int         3
  00411BCB: CC                 int         3
  00411BCC: CC                 int         3
  00411BCD: CC                 int         3
  00411BCE: CC                 int         3
  00411BCF: CC                 int         3
  00411BD0: CC                 int         3
  00411BD1: CC                 int         3
  00411BD2: CC                 int         3
  00411BD3: CC                 int         3
  00411BD4: CC                 int         3
  00411BD5: CC                 int         3
  00411BD6: CC                 int         3
  00411BD7: CC                 int         3
  00411BD8: CC                 int         3
  00411BD9: CC                 int         3
  00411BDA: CC                 int         3
  00411BDB: CC                 int         3
  00411BDC: CC                 int         3
  00411BDD: CC                 int         3
  00411BDE: CC                 int         3
  00411BDF: CC                 int         3
_printf:
  00411BE0: 55                 push        ebp
  00411BE1: 8B EC              mov         ebp,esp
  00411BE3: 81 EC E4 00 00 00  sub         esp,0E4h
  00411BE9: 53                 push        ebx
  00411BEA: 56                 push        esi
  00411BEB: 57                 push        edi
  00411BEC: 8D BD 1C FF FF FF  lea         edi,[ebp-0E4h]
  00411BF2: B9 39 00 00 00     mov         ecx,39h
  00411BF7: B8 CC CC CC CC     mov         eax,0CCCCCCCCh
  00411BFC: F3 AB              rep stos    dword ptr es:[edi]
  00411BFE: 8D 45 0C           lea         eax,[ebp+0Ch]
  00411C01: 89 45 EC           mov         dword ptr [ebp-14h],eax
  00411C04: 8B 45 EC           mov         eax,dword ptr [ebp-14h]
  00411C07: 50                 push        eax
  00411C08: 6A 00              push        0
  00411C0A: 8B 4D 08           mov         ecx,dword ptr [ebp+8]
  00411C0D: 51                 push        ecx
  00411C0E: 8B F4              mov         esi,esp
  00411C10: 6A 01              push        1
  00411C12: FF 15 6C B1 41 00  call        dword ptr [__imp____acrt_iob_func]
  00411C18: 83 C4 04           add         esp,4
  00411C1B: 3B F4              cmp         esi,esp
  00411C1D: E8 0F F5 FF FF     call        @ILT+300(__RTC_CheckEsp)
  00411C22: 50                 push        eax
  00411C23: E8 8B F5 FF FF     call        @ILT+430(__vfprintf_l)
  00411C28: 83 C4 10           add         esp,10h
  00411C2B: 89 45 F8           mov         dword ptr [ebp-8],eax
  00411C2E: C7 45 EC 00 00 00  mov         dword ptr [ebp-14h],0
            00
  00411C35: 8B 45 F8           mov         eax,dword ptr [ebp-8]
  00411C38: 5F                 pop         edi
  00411C39: 5E                 pop         esi
  00411C3A: 5B                 pop         ebx
  00411C3B: 81 C4 E4 00 00 00  add         esp,0E4h
  00411C41: 3B EC              cmp         ebp,esp
  00411C43: E8 E9 F4 FF FF     call        @ILT+300(__RTC_CheckEsp)
  00411C48: 8B E5              mov         esp,ebp
  00411C4A: 5D                 pop         ebp
  00411C4B: C3                 ret
  00411C4C: CC                 int         3
  00411C4D: CC                 int         3
  00411C4E: CC                 int         3
  00411C4F: CC                 int         3
  00411C50: CC                 int         3
  00411C51: CC                 int         3
  00411C52: CC                 int         3
  00411C53: CC                 int         3
  00411C54: CC                 int         3
  00411C55: CC                 int         3
  00411C56: CC                 int         3
  00411C57: CC                 int         3
  00411C58: CC                 int         3
  00411C59: CC                 int         3
  00411C5A: CC                 int         3
  00411C5B: CC                 int         3
  00411C5C: CC                 int         3
  00411C5D: CC                 int         3
  00411C5E: CC                 int         3
  00411C5F: CC                 int         3
  00411C60: CC                 int         3
  00411C61: CC                 int         3
  00411C62: CC                 int         3
  00411C63: CC                 int         3
  00411C64: CC                 int         3
  00411C65: CC                 int         3
  00411C66: CC                 int         3
  00411C67: CC                 int         3
  00411C68: CC                 int         3
  00411C69: CC                 int         3
  00411C6A: CC                 int         3
  00411C6B: CC                 int         3
  00411C6C: CC                 int         3
  00411C6D: CC                 int         3
  00411C6E: CC                 int         3
  00411C6F: CC                 int         3
@_RTC_AllocaHelper@12:
  00411C70: 55                 push        ebp
  00411C71: 8B EC              mov         ebp,esp
  00411C73: 53                 push        ebx
  00411C74: 56                 push        esi
  00411C75: 8B F1              mov         esi,ecx
  00411C77: 8B DA              mov         ebx,edx
  00411C79: 85 F6              test        esi,esi
  00411C7B: 74 1F              je          00411C9C
  00411C7D: 85 DB              test        ebx,ebx
  00411C7F: 74 1B              je          00411C9C
  00411C81: 8B 55 08           mov         edx,dword ptr [ebp+8]
  00411C84: 85 D2              test        edx,edx
  00411C86: 74 14              je          00411C9C
  00411C88: 57                 push        edi
  00411C89: B0 CC              mov         al,0CCh
  00411C8B: 8B FE              mov         edi,esi
  00411C8D: 8B CB              mov         ecx,ebx
  00411C8F: F3 AA              rep stos    byte ptr es:[edi]
  00411C91: 8B 02              mov         eax,dword ptr [edx]
  00411C93: 89 46 04           mov         dword ptr [esi+4],eax
  00411C96: 89 5E 0C           mov         dword ptr [esi+0Ch],ebx
  00411C99: 89 32              mov         dword ptr [edx],esi
  00411C9B: 5F                 pop         edi
  00411C9C: 5E                 pop         esi
  00411C9D: 5B                 pop         ebx
  00411C9E: 5D                 pop         ebp
  00411C9F: C2 04 00           ret         4
  00411CA2: CC                 int         3
  00411CA3: CC                 int         3
  00411CA4: CC                 int         3
  00411CA5: CC                 int         3
  00411CA6: CC                 int         3
  00411CA7: CC                 int         3
  00411CA8: CC                 int         3
  00411CA9: CC                 int         3
  00411CAA: CC                 int         3
  00411CAB: CC                 int         3
  00411CAC: CC                 int         3
  00411CAD: CC                 int         3
  00411CAE: CC                 int         3
  00411CAF: CC                 int         3
@_RTC_CheckStackVars2@12:
  00411CB0: 55                 push        ebp
  00411CB1: 8B EC              mov         ebp,esp
  00411CB3: 83 EC 08           sub         esp,8
  00411CB6: 53                 push        ebx
  00411CB7: 8B DA              mov         ebx,edx
  00411CB9: 8B C1              mov         eax,ecx
  00411CBB: 89 45 F8           mov         dword ptr [ebp-8],eax
  00411CBE: 56                 push        esi
  00411CBF: 57                 push        edi
  00411CC0: 85 DB              test        ebx,ebx
  00411CC2: 74 4A              je          00411D0E
  00411CC4: 33 F6              xor         esi,esi
  00411CC6: 39 33              cmp         dword ptr [ebx],esi
  00411CC8: 7E 44              jle         00411D0E
  00411CCA: 83 C0 FC           add         eax,0FFFFFFFCh
  00411CCD: 33 FF              xor         edi,edi
  00411CCF: 89 45 FC           mov         dword ptr [ebp-4],eax
  00411CD2: 8B 4B 04           mov         ecx,dword ptr [ebx+4]
  00411CD5: 8B 45 FC           mov         eax,dword ptr [ebp-4]
  00411CD8: 8B 14 39           mov         edx,dword ptr [ecx+edi]
  00411CDB: 81 3C 02 CC CC CC  cmp         dword ptr [edx+eax],0CCCCCCCCh
            CC
  00411CE2: 75 12              jne         00411CF6
  00411CE4: 8B 44 39 04        mov         eax,dword ptr [ecx+edi+4]
  00411CE8: 03 C2              add         eax,edx
  00411CEA: 8B 55 F8           mov         edx,dword ptr [ebp-8]
  00411CED: 81 3C 10 CC CC CC  cmp         dword ptr [eax+edx],0CCCCCCCCh
            CC
  00411CF4: 74 10              je          00411D06
  00411CF6: FF 74 39 08        push        dword ptr [ecx+edi+8]
  00411CFA: 8B 45 04           mov         eax,dword ptr [ebp+4]
  00411CFD: 50                 push        eax
  00411CFE: E8 ED F3 FF FF     call        @ILT+235(?_RTC_StackFailure@@YAXPAXPBD@Z)
  00411D03: 83 C4 08           add         esp,8
  00411D06: 46                 inc         esi
  00411D07: 83 C7 0C           add         edi,0Ch
  00411D0A: 3B 33              cmp         esi,dword ptr [ebx]
  00411D0C: 7C C4              jl          00411CD2
  00411D0E: 8B 75 08           mov         esi,dword ptr [ebp+8]
  00411D11: 33 FF              xor         edi,edi
  00411D13: 8B C6              mov         eax,esi
  00411D15: 85 F6              test        esi,esi
  00411D17: 74 6B              je          00411D84
  00411D19: 8D A4 24 00 00 00  lea         esp,[esp]
            00
  00411D20: 8B 40 04           mov         eax,dword ptr [eax+4]
  00411D23: 47                 inc         edi
  00411D24: 85 C0              test        eax,eax
  00411D26: 75 F8              jne         00411D20
  00411D28: 85 F6              test        esi,esi
  00411D2A: 74 58              je          00411D84
  00411D2C: 8D 64 24 00        lea         esp,[esp]
  00411D30: 81 3E CC CC CC CC  cmp         dword ptr [esi],0CCCCCCCCh
  00411D36: 75 1B              jne         00411D53
  00411D38: 81 7E 14 CC CC CC  cmp         dword ptr [esi+14h],0CCCCCCCCh
            CC
  00411D3F: 75 12              jne         00411D53
  00411D41: 81 7E 18 CC CC CC  cmp         dword ptr [esi+18h],0CCCCCCCCh
            CC
  00411D48: 75 09              jne         00411D53
  00411D4A: 81 7E 1C CC CC CC  cmp         dword ptr [esi+1Ch],0CCCCCCCCh
            CC
  00411D51: 74 0E              je          00411D61
  00411D53: 8B 45 04           mov         eax,dword ptr [ebp+4]
  00411D56: 57                 push        edi
  00411D57: 56                 push        esi
  00411D58: 50                 push        eax
  00411D59: E8 42 F3 FF FF     call        @ILT+155(?_RTC_AllocaFailure@@YAXPAXPAU_RTC_ALLOCA_NODE@@H@Z)
  00411D5E: 83 C4 0C           add         esp,0Ch
  00411D61: 8B 46 0C           mov         eax,dword ptr [esi+0Ch]
  00411D64: 81 7C 30 FC CC CC  cmp         dword ptr [eax+esi-4],0CCCCCCCCh
            CC CC
  00411D6C: 74 0E              je          00411D7C
  00411D6E: 8B 45 04           mov         eax,dword ptr [ebp+4]
  00411D71: 57                 push        edi
  00411D72: 56                 push        esi
  00411D73: 50                 push        eax
  00411D74: E8 27 F3 FF FF     call        @ILT+155(?_RTC_AllocaFailure@@YAXPAXPAU_RTC_ALLOCA_NODE@@H@Z)
  00411D79: 83 C4 0C           add         esp,0Ch
  00411D7C: 8B 76 04           mov         esi,dword ptr [esi+4]
  00411D7F: 4F                 dec         edi
  00411D80: 85 F6              test        esi,esi
  00411D82: 75 AC              jne         00411D30
  00411D84: 5F                 pop         edi
  00411D85: 5E                 pop         esi
  00411D86: 5B                 pop         ebx
  00411D87: 8B E5              mov         esp,ebp
  00411D89: 5D                 pop         ebp
  00411D8A: C2 04 00           ret         4
  00411D8D: CC                 int         3
  00411D8E: CC                 int         3
  00411D8F: CC                 int         3
  00411D90: CC                 int         3
  00411D91: CC                 int         3
  00411D92: CC                 int         3
  00411D93: CC                 int         3
  00411D94: CC                 int         3
  00411D95: CC                 int         3
  00411D96: CC                 int         3
  00411D97: CC                 int         3
  00411D98: CC                 int         3
  00411D99: CC                 int         3
  00411D9A: CC                 int         3
  00411D9B: CC                 int         3
  00411D9C: CC                 int         3
  00411D9D: CC                 int         3
  00411D9E: CC                 int         3
  00411D9F: CC                 int         3
  00411DA0: CC                 int         3
  00411DA1: CC                 int         3
  00411DA2: CC                 int         3
  00411DA3: CC                 int         3
  00411DA4: CC                 int         3
  00411DA5: CC                 int         3
  00411DA6: CC                 int         3
  00411DA7: CC                 int         3
  00411DA8: CC                 int         3
  00411DA9: CC                 int         3
  00411DAA: CC                 int         3
  00411DAB: CC                 int         3
  00411DAC: CC                 int         3
  00411DAD: CC                 int         3
  00411DAE: CC                 int         3
  00411DAF: CC                 int         3
  00411DB0: CC                 int         3
  00411DB1: CC                 int         3
  00411DB2: CC                 int         3
  00411DB3: CC                 int         3
  00411DB4: CC                 int         3
  00411DB5: CC                 int         3
  00411DB6: CC                 int         3
  00411DB7: CC                 int         3
  00411DB8: CC                 int         3
  00411DB9: CC                 int         3
  00411DBA: CC                 int         3
  00411DBB: CC                 int         3
  00411DBC: CC                 int         3
  00411DBD: CC                 int         3
  00411DBE: CC                 int         3
  00411DBF: CC                 int         3
  00411DC0: CC                 int         3
  00411DC1: CC                 int         3
  00411DC2: CC                 int         3
  00411DC3: CC                 int         3
  00411DC4: CC                 int         3
  00411DC5: CC                 int         3
  00411DC6: CC                 int         3
  00411DC7: CC                 int         3
  00411DC8: CC                 int         3
  00411DC9: CC                 int         3
  00411DCA: CC                 int         3
  00411DCB: CC                 int         3
  00411DCC: CC                 int         3
  00411DCD: CC                 int         3
  00411DCE: CC                 int         3
  00411DCF: CC                 int         3
@_RTC_CheckStackVars@8:
  00411DD0: 55                 push        ebp
  00411DD1: 8B EC              mov         ebp,esp
  00411DD3: 83 EC 08           sub         esp,8
  00411DD6: 53                 push        ebx
  00411DD7: 8B DA              mov         ebx,edx
  00411DD9: 8B C1              mov         eax,ecx
  00411DDB: 56                 push        esi
  00411DDC: 33 F6              xor         esi,esi
  00411DDE: 89 45 F8           mov         dword ptr [ebp-8],eax
  00411DE1: 39 33              cmp         dword ptr [ebx],esi
  00411DE3: 7E 48              jle         00411E2D
  00411DE5: 83 C0 FC           add         eax,0FFFFFFFCh
  00411DE8: 57                 push        edi
  00411DE9: 89 45 FC           mov         dword ptr [ebp-4],eax
  00411DEC: 33 FF              xor         edi,edi
  00411DEE: 8B FF              mov         edi,edi
  00411DF0: 8B 4B 04           mov         ecx,dword ptr [ebx+4]
  00411DF3: 8B 45 FC           mov         eax,dword ptr [ebp-4]
  00411DF6: 8B 14 39           mov         edx,dword ptr [ecx+edi]
  00411DF9: 81 3C 02 CC CC CC  cmp         dword ptr [edx+eax],0CCCCCCCCh
            CC
  00411E00: 75 12              jne         00411E14
  00411E02: 8B 44 39 04        mov         eax,dword ptr [ecx+edi+4]
  00411E06: 03 C2              add         eax,edx
  00411E08: 8B 55 F8           mov         edx,dword ptr [ebp-8]
  00411E0B: 81 3C 10 CC CC CC  cmp         dword ptr [eax+edx],0CCCCCCCCh
            CC
  00411E12: 74 10              je          00411E24
  00411E14: FF 74 39 08        push        dword ptr [ecx+edi+8]
  00411E18: 8B 45 04           mov         eax,dword ptr [ebp+4]
  00411E1B: 50                 push        eax
  00411E1C: E8 CF F2 FF FF     call        @ILT+235(?_RTC_StackFailure@@YAXPAXPBD@Z)
  00411E21: 83 C4 08           add         esp,8
  00411E24: 46                 inc         esi
  00411E25: 83 C7 0C           add         edi,0Ch
  00411E28: 3B 33              cmp         esi,dword ptr [ebx]
  00411E2A: 7C C4              jl          00411DF0
  00411E2C: 5F                 pop         edi
  00411E2D: 5E                 pop         esi
  00411E2E: 5B                 pop         ebx
  00411E2F: 8B E5              mov         esp,ebp
  00411E31: 5D                 pop         ebp
  00411E32: C3                 ret
  00411E33: CC                 int         3
  00411E34: CC                 int         3
  00411E35: CC                 int         3
  00411E36: CC                 int         3
  00411E37: CC                 int         3
  00411E38: CC                 int         3
  00411E39: CC                 int         3
  00411E3A: CC                 int         3
  00411E3B: CC                 int         3
  00411E3C: CC                 int         3
  00411E3D: CC                 int         3
  00411E3E: CC                 int         3
  00411E3F: CC                 int         3
  00411E40: CC                 int         3
  00411E41: CC                 int         3
  00411E42: CC                 int         3
  00411E43: CC                 int         3
  00411E44: CC                 int         3
  00411E45: CC                 int         3
  00411E46: CC                 int         3
  00411E47: CC                 int         3
  00411E48: CC                 int         3
  00411E49: CC                 int         3
  00411E4A: CC                 int         3
  00411E4B: CC                 int         3
  00411E4C: CC                 int         3
  00411E4D: CC                 int         3
  00411E4E: CC                 int         3
  00411E4F: CC                 int         3
__RTC_CheckEsp:
  00411E50: F2 75 02           bnd jne     00411E55
  00411E53: F2 C3              bnd ret
  00411E55: 55                 push        ebp
  00411E56: 8B EC              mov         ebp,esp
  00411E58: 83 EC 00           sub         esp,0
  00411E5B: 50                 push        eax
  00411E5C: 0F 1B 04 04        bndstx      dword ptr [esp+eax],bnd0
  00411E60: 52                 push        edx
  00411E61: 53                 push        ebx
  00411E62: 56                 push        esi
  00411E63: 57                 push        edi
  00411E64: 8B 45 04           mov         eax,dword ptr [ebp+4]
  00411E67: 6A 00              push        0
  00411E69: 50                 push        eax
  00411E6A: E8 13 F2 FF FF     call        @ILT+125(?_RTC_Failure@@YAXPAXH@Z)
  00411E6F: 83 C4 08           add         esp,8
  00411E72: 5F                 pop         edi
  00411E73: 5E                 pop         esi
  00411E74: 5B                 pop         ebx
  00411E75: 5A                 pop         edx
  00411E76: 58                 pop         eax
  00411E77: 0F 1A 44 04 FC     bndldx      bnd0,dword ptr [esp+eax-4]
  00411E7C: 8B E5              mov         esp,ebp
  00411E7E: 5D                 pop         ebp
  00411E7F: F2 C3              bnd ret
  00411E81: CC                 int         3
  00411E82: CC                 int         3
  00411E83: CC                 int         3
  00411E84: CC                 int         3
  00411E85: CC                 int         3
  00411E86: CC                 int         3
  00411E87: CC                 int         3
  00411E88: CC                 int         3
  00411E89: CC                 int         3
  00411E8A: CC                 int         3
  00411E8B: CC                 int         3
  00411E8C: CC                 int         3
  00411E8D: CC                 int         3
  00411E8E: CC                 int         3
  00411E8F: CC                 int         3
@__security_check_cookie@4:
  00411E90: 3B 0D 00 A0 41 00  cmp         ecx,dword ptr [___security_cookie]
  00411E96: F2 75 02           bnd jne     00411E9B
  00411E99: F2 C3              bnd ret
  00411E9B: F2 E9 3E F4 FF FF  bnd jmp     @ILT+730(___report_gsfailure)
  00411EA1: CC                 int         3
  00411EA2: CC                 int         3
  00411EA3: CC                 int         3
  00411EA4: CC                 int         3
  00411EA5: CC                 int         3
  00411EA6: CC                 int         3
  00411EA7: CC                 int         3
  00411EA8: CC                 int         3
  00411EA9: CC                 int         3
  00411EAA: CC                 int         3
  00411EAB: CC                 int         3
  00411EAC: CC                 int         3
  00411EAD: CC                 int         3
  00411EAE: CC                 int         3
  00411EAF: CC                 int         3
__CRT_RTC_INIT:
  00411EB0: B8 13 11 41 00     mov         eax,offset @ILT+270(__CrtDbgReport)
  00411EB5: C3                 ret
  00411EB6: CC                 int         3
  00411EB7: CC                 int         3
  00411EB8: CC                 int         3
  00411EB9: CC                 int         3
  00411EBA: CC                 int         3
  00411EBB: CC                 int         3
  00411EBC: CC                 int         3
  00411EBD: CC                 int         3
  00411EBE: CC                 int         3
  00411EBF: CC                 int         3
__CRT_RTC_INITW:
  00411EC0: B8 80 12 41 00     mov         eax,offset @ILT+635(__CrtDbgReportW)
  00411EC5: C3                 ret
  00411EC6: CC                 int         3
  00411EC7: CC                 int         3
  00411EC8: CC                 int         3
  00411EC9: CC                 int         3
  00411ECA: CC                 int         3
  00411ECB: CC                 int         3
  00411ECC: CC                 int         3
  00411ECD: CC                 int         3
  00411ECE: CC                 int         3
  00411ECF: CC                 int         3
__RTC_InitBase:
  00411ED0: 80 3D 48 A1 41 00  cmp         byte ptr ds:[41A148h],0
            00
  00411ED7: 75 1F              jne         00411EF8
  00411ED9: 6A 00              push        0
  00411EDB: 6A 01              push        1
  00411EDD: 6A 00              push        0
  00411EDF: 6A 00              push        0
  00411EE1: 6A 00              push        0
  00411EE3: C6 05 48 A1 41 00  mov         byte ptr ds:[41A148h],1
            01
  00411EEA: E8 84 F1 FF FF     call        @ILT+110(__CRT_RTC_INITW)
  00411EEF: 50                 push        eax
  00411EF0: E8 09 F3 FF FF     call        @ILT+505(__RTC_SetErrorFuncW)
  00411EF5: 83 C4 18           add         esp,18h
  00411EF8: C3                 ret
  00411EF9: CC                 int         3
  00411EFA: CC                 int         3
  00411EFB: CC                 int         3
  00411EFC: CC                 int         3
  00411EFD: CC                 int         3
  00411EFE: CC                 int         3
  00411EFF: CC                 int         3
  00411F00: CC                 int         3
  00411F01: CC                 int         3
  00411F02: CC                 int         3
  00411F03: CC                 int         3
  00411F04: CC                 int         3
  00411F05: CC                 int         3
  00411F06: CC                 int         3
  00411F07: CC                 int         3
  00411F08: CC                 int         3
  00411F09: CC                 int         3
  00411F0A: CC                 int         3
  00411F0B: CC                 int         3
  00411F0C: CC                 int         3
  00411F0D: CC                 int         3
  00411F0E: CC                 int         3
  00411F0F: CC                 int         3
__RTC_Shutdown:
  00411F10: 6A 01              push        1
  00411F12: 6A 01              push        1
  00411F14: 6A 00              push        0
  00411F16: 6A 00              push        0
  00411F18: 6A 00              push        0
  00411F1A: E8 54 F1 FF FF     call        @ILT+110(__CRT_RTC_INITW)
  00411F1F: 83 C4 14           add         esp,14h
  00411F22: C3                 ret
  00411F23: CC                 int         3
  00411F24: CC                 int         3
  00411F25: CC                 int         3
  00411F26: CC                 int         3
  00411F27: CC                 int         3
  00411F28: CC                 int         3
  00411F29: CC                 int         3
  00411F2A: CC                 int         3
  00411F2B: CC                 int         3
  00411F2C: CC                 int         3
  00411F2D: CC                 int         3
  00411F2E: CC                 int         3
  00411F2F: CC                 int         3
  00411F30: 55                 push        ebp
  00411F31: 8B EC              mov         ebp,esp
  00411F33: E8 3D F4 FF FF     call        @ILT+880(?set_app_type@__scrt_main_policy@@SAXXZ)
  00411F38: E8 04 F1 FF FF     call        @ILT+60(?set_fmode@__scrt_file_policy@@SAXXZ)
  00411F3D: E8 04 F1 FF FF     call        @ILT+65(?set_commode@__scrt_file_policy@@SAXXZ)
  00411F42: 6A 01              push        1
  00411F44: E8 F1 F2 FF FF     call        @ILT+565(___scrt_initialize_onexit_tables)
  00411F49: 83 C4 04           add         esp,4
  00411F4C: 0F B6 C0           movzx       eax,al
  00411F4F: 85 C0              test        eax,eax
  00411F51: 75 07              jne         00411F5A
  00411F53: 6A 07              push        7
  00411F55: E8 1E F1 FF FF     call        @ILT+115(___scrt_fastfail)
  00411F5A: DB E2              fnclex
  00411F5C: E8 8A F1 FF FF     call        @ILT+230(__RTC_Initialize)
  00411F61: 68 90 11 41 00     push        offset @ILT+395(__RTC_Terminate)
  00411F66: E8 5D F1 FF FF     call        @ILT+195(_atexit)
  00411F6B: 83 C4 04           add         esp,4
  00411F6E: E8 EF F2 FF FF     call        @ILT+605(?configure_argv@__scrt_narrow_argv_policy@@SAHXZ)
  00411F73: 85 C0              test        eax,eax
  00411F75: 74 07              je          00411F7E
  00411F77: 6A 07              push        7
  00411F79: E8 FA F0 FF FF     call        @ILT+115(___scrt_fastfail)
  00411F7E: E8 9E F2 FF FF     call        @ILT+540(?__scrt_initialize_type_info@@YAXXZ)
  00411F83: E8 9A F1 FF FF     call        @ILT+285(___scrt_is_user_matherr_present)
  00411F88: 85 C0              test        eax,eax
  00411F8A: 74 0D              je          00411F99
  00411F8C: 68 AE 11 41 00     push        offset @ILT+425(__matherr)
  00411F91: E8 62 F3 FF FF     call        @ILT+755(___setusermatherr)
  00411F96: 83 C4 04           add         esp,4
  00411F99: E8 FC F1 FF FF     call        @ILT+405(__initialize_invalid_parameter_handler)
  00411F9E: E8 4C F2 FF FF     call        @ILT+490(__initialize_denormal_control)
  00411FA3: E8 AD F0 FF FF     call        @ILT+80(__initialize_default_precision)
  00411FA8: E8 0C F1 FF FF     call        @ILT+180(__get_startup_thread_locale_mode)
  00411FAD: 50                 push        eax
  00411FAE: E8 7F F0 FF FF     call        @ILT+45(__configthreadlocale)
  00411FB3: 83 C4 04           add         esp,4
  00411FB6: E8 BF F3 FF FF     call        @ILT+885(__should_initialize_environment)
  00411FBB: 0F B6 C8           movzx       ecx,al
  00411FBE: 85 C9              test        ecx,ecx
  00411FC0: 74 05              je          00411FC7
  00411FC2: E8 4A F3 FF FF     call        @ILT+780(?initialize_environment@__scrt_narrow_environment_policy@@SAHXZ)
  00411FC7: E8 DE F0 FF FF     call        @ILT+165(___scrt_initialize_winrt)
  00411FCC: 33 C0              xor         eax,eax
  00411FCE: 5D                 pop         ebp
  00411FCF: C3                 ret
  00411FD0: CC                 int         3
  00411FD1: CC                 int         3
  00411FD2: CC                 int         3
  00411FD3: CC                 int         3
  00411FD4: CC                 int         3
  00411FD5: CC                 int         3
  00411FD6: CC                 int         3
  00411FD7: CC                 int         3
  00411FD8: CC                 int         3
  00411FD9: CC                 int         3
  00411FDA: CC                 int         3
  00411FDB: CC                 int         3
  00411FDC: CC                 int         3
  00411FDD: CC                 int         3
  00411FDE: CC                 int         3
  00411FDF: CC                 int         3
  00411FE0: CC                 int         3
  00411FE1: CC                 int         3
  00411FE2: CC                 int         3
  00411FE3: CC                 int         3
  00411FE4: CC                 int         3
  00411FE5: CC                 int         3
  00411FE6: CC                 int         3
  00411FE7: CC                 int         3
  00411FE8: CC                 int         3
  00411FE9: CC                 int         3
  00411FEA: CC                 int         3
  00411FEB: CC                 int         3
  00411FEC: CC                 int         3
  00411FED: CC                 int         3
  00411FEE: CC                 int         3
  00411FEF: CC                 int         3
  00411FF0: CC                 int         3
  00411FF1: CC                 int         3
  00411FF2: CC                 int         3
  00411FF3: CC                 int         3
  00411FF4: CC                 int         3
  00411FF5: CC                 int         3
  00411FF6: CC                 int         3
  00411FF7: CC                 int         3
  00411FF8: CC                 int         3
  00411FF9: CC                 int         3
  00411FFA: CC                 int         3
  00411FFB: CC                 int         3
  00411FFC: CC                 int         3
  00411FFD: CC                 int         3
  00411FFE: CC                 int         3
  00411FFF: CC                 int         3
  00412000: 55                 push        ebp
  00412001: 8B EC              mov         ebp,esp
  00412003: E8 55 F2 FF FF     call        @ILT+600(___scrt_initialize_default_local_stdio_options)
  00412008: 33 C0              xor         eax,eax
  0041200A: 5D                 pop         ebp
  0041200B: C3                 ret
  0041200C: CC                 int         3
  0041200D: CC                 int         3
  0041200E: CC                 int         3
  0041200F: CC                 int         3
  00412010: 55                 push        ebp
  00412011: 8B EC              mov         ebp,esp
  00412013: E8 5F F1 FF FF     call        @ILT+370(___scrt_set_unhandled_exception_filter)
  00412018: E8 A5 F1 FF FF     call        @ILT+445(__get_startup_new_mode)
  0041201D: 50                 push        eax
  0041201E: E8 81 F1 FF FF     call        @ILT+415(__set_new_mode)
  00412023: 83 C4 04           add         esp,4
  00412026: 5D                 pop         ebp
  00412027: C3                 ret
  00412028: CC                 int         3
  00412029: CC                 int         3
  0041202A: CC                 int         3
  0041202B: CC                 int         3
  0041202C: CC                 int         3
  0041202D: CC                 int         3
  0041202E: CC                 int         3
  0041202F: CC                 int         3
  00412030: 55                 push        ebp
  00412031: 8B EC              mov         ebp,esp
  00412033: E8 DA F1 FF FF     call        @ILT+525(___security_init_cookie)
  00412038: E8 13 00 00 00     call        00412050
  0041203D: 5D                 pop         ebp
  0041203E: C3                 ret
  0041203F: CC                 int         3
  00412040: CC                 int         3
  00412041: CC                 int         3
  00412042: CC                 int         3
  00412043: CC                 int         3
  00412044: CC                 int         3
  00412045: CC                 int         3
  00412046: CC                 int         3
  00412047: CC                 int         3
  00412048: CC                 int         3
  00412049: CC                 int         3
  0041204A: CC                 int         3
  0041204B: CC                 int         3
  0041204C: CC                 int         3
  0041204D: CC                 int         3
  0041204E: CC                 int         3
  0041204F: CC                 int         3
  00412050: 55                 push        ebp
  00412051: 8B EC              mov         ebp,esp
  00412053: 6A FE              push        0FFFFFFFEh
  00412055: 68 60 8F 41 00     push        418F60h
  0041205A: 68 30 40 41 00     push        offset __except_handler4
  0041205F: 64 A1 00 00 00 00  mov         eax,dword ptr fs:[00000000h]
  00412065: 50                 push        eax
  00412066: 83 C4 D0           add         esp,0FFFFFFD0h
  00412069: 53                 push        ebx
  0041206A: 56                 push        esi
  0041206B: 57                 push        edi
  0041206C: A1 00 A0 41 00     mov         eax,dword ptr [___security_cookie]
  00412071: 31 45 F8           xor         dword ptr [ebp-8],eax
  00412074: 33 C5              xor         eax,ebp
  00412076: 50                 push        eax
  00412077: 8D 45 F0           lea         eax,[ebp-10h]
  0041207A: 64 A3 00 00 00 00  mov         dword ptr fs:[00000000h],eax
  00412080: 89 65 E8           mov         dword ptr [ebp-18h],esp
  00412083: 6A 01              push        1
  00412085: E8 14 F2 FF FF     call        @ILT+665(___scrt_initialize_crt)
  0041208A: 83 C4 04           add         esp,4
  0041208D: 0F B6 C0           movzx       eax,al
  00412090: 85 C0              test        eax,eax
  00412092: 75 07              jne         0041209B
  00412094: 6A 07              push        7
  00412096: E8 DD EF FF FF     call        @ILT+115(___scrt_fastfail)
  0041209B: C6 45 E7 00        mov         byte ptr [ebp-19h],0
  0041209F: C7 45 FC 00 00 00  mov         dword ptr [ebp-4],0
            00
  004120A6: E8 89 F2 FF FF     call        @ILT+815(___scrt_acquire_startup_lock)
  004120AB: 88 45 E6           mov         byte ptr [ebp-1Ah],al
  004120AE: 83 3D 18 A5 41 00  cmp         dword ptr [___scrt_current_native_startup_state],1
            01
  004120B5: 75 09              jne         004120C0
  004120B7: 6A 07              push        7
  004120B9: E8 BA EF FF FF     call        @ILT+115(___scrt_fastfail)
  004120BE: EB 61              jmp         00412121
  004120C0: 83 3D 18 A5 41 00  cmp         dword ptr [___scrt_current_native_startup_state],0
            00
  004120C7: 75 54              jne         0041211D
  004120C9: C7 05 18 A5 41 00  mov         dword ptr [___scrt_current_native_startup_state],1
            01 00 00 00
  004120D3: 68 18 76 41 00     push        offset ___xi_z
  004120D8: 68 0C 73 41 00     push        offset ___xi_a
  004120DD: E8 C3 EF FF FF     call        @ILT+160(__initterm_e)
  004120E2: 83 C4 08           add         esp,8
  004120E5: 85 C0              test        eax,eax
  004120E7: 74 16              je          004120FF
  004120E9: C7 45 C8 FF 00 00  mov         dword ptr [ebp-38h],0FFh
            00
  004120F0: C7 45 FC FE FF FF  mov         dword ptr [ebp-4],0FFFFFFFEh
            FF
  004120F7: 8B 45 C8           mov         eax,dword ptr [ebp-38h]
  004120FA: E9 4D 01 00 00     jmp         0041224C
  004120FF: 68 08 72 41 00     push        offset ___xc_z
  00412104: 68 00 70 41 00     push        offset ___xc_a
  00412109: E8 DB F1 FF FF     call        @ILT+740(__initterm)
  0041210E: 83 C4 08           add         esp,8
  00412111: C7 05 18 A5 41 00  mov         dword ptr [___scrt_current_native_startup_state],2
            02 00 00 00
  0041211B: EB 04              jmp         00412121
  0041211D: C6 45 E7 01        mov         byte ptr [ebp-19h],1
  00412121: 0F B6 4D E6        movzx       ecx,byte ptr [ebp-1Ah]
  00412125: 51                 push        ecx
  00412126: E8 FF F1 FF FF     call        @ILT+805(___scrt_release_startup_lock)
  0041212B: 83 C4 04           add         esp,4
  0041212E: E8 61 F1 FF FF     call        @ILT+655(___scrt_get_dyn_tls_init_callback)
  00412133: 89 45 E0           mov         dword ptr [ebp-20h],eax
  00412136: 8B 55 E0           mov         edx,dword ptr [ebp-20h]
  00412139: 83 3A 00           cmp         dword ptr [edx],0
  0041213C: 74 2D              je          0041216B
  0041213E: 8B 45 E0           mov         eax,dword ptr [ebp-20h]
  00412141: 50                 push        eax
  00412142: E8 29 F2 FF FF     call        @ILT+875(___scrt_is_nonwritable_in_current_image)
  00412147: 83 C4 04           add         esp,4
  0041214A: 0F B6 C8           movzx       ecx,al
  0041214D: 85 C9              test        ecx,ecx
  0041214F: 74 1A              je          0041216B
  00412151: 6A 00              push        0
  00412153: 6A 02              push        2
  00412155: 6A 00              push        0
  00412157: 8B 55 E0           mov         edx,dword ptr [ebp-20h]
  0041215A: 8B 02              mov         eax,dword ptr [edx]
  0041215C: 89 45 D8           mov         dword ptr [ebp-28h],eax
  0041215F: 8B 4D D8           mov         ecx,dword ptr [ebp-28h]
  00412162: FF 15 00 C0 41 00  call        dword ptr [___guard_check_icall_fptr]
  00412168: FF 55 D8           call        dword ptr [ebp-28h]
  0041216B: E8 71 EF FF FF     call        @ILT+220(___scrt_get_dyn_tls_dtor_callback)
  00412170: 89 45 DC           mov         dword ptr [ebp-24h],eax
  00412173: 8B 4D DC           mov         ecx,dword ptr [ebp-24h]
  00412176: 83 39 00           cmp         dword ptr [ecx],0
  00412179: 74 21              je          0041219C
  0041217B: 8B 55 DC           mov         edx,dword ptr [ebp-24h]
  0041217E: 52                 push        edx
  0041217F: E8 EC F1 FF FF     call        @ILT+875(___scrt_is_nonwritable_in_current_image)
  00412184: 83 C4 04           add         esp,4
  00412187: 0F B6 C0           movzx       eax,al
  0041218A: 85 C0              test        eax,eax
  0041218C: 74 0E              je          0041219C
  0041218E: 8B 4D DC           mov         ecx,dword ptr [ebp-24h]
  00412191: 8B 11              mov         edx,dword ptr [ecx]
  00412193: 52                 push        edx
  00412194: E8 33 F0 FF FF     call        @ILT+455(__register_thread_local_exe_atexit_callback)
  00412199: 83 C4 04           add         esp,4
  0041219C: E8 7F 01 00 00     call        00412320
  004121A1: 89 45 D4           mov         dword ptr [ebp-2Ch],eax
  004121A4: E8 92 EF FF FF     call        @ILT+310(___scrt_is_managed_app)
  004121A9: 0F B6 C0           movzx       eax,al
  004121AC: 85 C0              test        eax,eax
  004121AE: 75 09              jne         004121B9
  004121B0: 8B 4D D4           mov         ecx,dword ptr [ebp-2Ch]
  004121B3: 51                 push        ecx
  004121B4: E8 2B F1 FF FF     call        @ILT+735(_exit)
  004121B9: 0F B6 55 E7        movzx       edx,byte ptr [ebp-19h]
  004121BD: 85 D2              test        edx,edx
  004121BF: 75 05              jne         004121C6
  004121C1: E8 FD EE FF FF     call        @ILT+190(__cexit)
  004121C6: 6A 00              push        0
  004121C8: 6A 01              push        1
  004121CA: E8 AD EF FF FF     call        @ILT+375(___scrt_uninitialize_crt)
  004121CF: 83 C4 08           add         esp,8
  004121D2: 8B 45 D4           mov         eax,dword ptr [ebp-2Ch]
  004121D5: 89 45 C4           mov         dword ptr [ebp-3Ch],eax
  004121D8: C7 45 FC FE FF FF  mov         dword ptr [ebp-4],0FFFFFFFEh
            FF
  004121DF: 8B 45 C4           mov         eax,dword ptr [ebp-3Ch]
  004121E2: EB 68              jmp         0041224C
  004121E4: C7 45 FC FE FF FF  mov         dword ptr [ebp-4],0FFFFFFFEh
            FF
  004121EB: EB 5F              jmp         0041224C
  004121ED: 8B 4D EC           mov         ecx,dword ptr [ebp-14h]
  004121F0: 8B 11              mov         edx,dword ptr [ecx]
  004121F2: 8B 02              mov         eax,dword ptr [edx]
  004121F4: 89 45 D0           mov         dword ptr [ebp-30h],eax
  004121F7: 8B 4D EC           mov         ecx,dword ptr [ebp-14h]
  004121FA: 51                 push        ecx
  004121FB: 8B 55 D0           mov         edx,dword ptr [ebp-30h]
  004121FE: 52                 push        edx
  004121FF: E8 68 F0 FF FF     call        @ILT+615(__seh_filter_exe)
  00412204: 83 C4 08           add         esp,8
  00412207: C3                 ret
  00412208: 8B 65 E8           mov         esp,dword ptr [ebp-18h]
  0041220B: 8B 45 D0           mov         eax,dword ptr [ebp-30h]
  0041220E: 89 45 CC           mov         dword ptr [ebp-34h],eax
  00412211: E8 25 EF FF FF     call        @ILT+310(___scrt_is_managed_app)
  00412216: 0F B6 C8           movzx       ecx,al
  00412219: 85 C9              test        ecx,ecx
  0041221B: 75 09              jne         00412226
  0041221D: 8B 55 CC           mov         edx,dword ptr [ebp-34h]
  00412220: 52                 push        edx
  00412221: E8 B0 EF FF FF     call        @ILT+465(__exit)
  00412226: 0F B6 45 E7        movzx       eax,byte ptr [ebp-19h]
  0041222A: 85 C0              test        eax,eax
  0041222C: 75 05              jne         00412233
  0041222E: E8 1A F1 FF FF     call        @ILT+840(__c_exit)
  00412233: 8B 4D CC           mov         ecx,dword ptr [ebp-34h]
  00412236: 89 4D C0           mov         dword ptr [ebp-40h],ecx
  00412239: C7 45 FC FE FF FF  mov         dword ptr [ebp-4],0FFFFFFFEh
            FF
  00412240: 8B 45 C0           mov         eax,dword ptr [ebp-40h]
  00412243: EB 07              jmp         0041224C
  00412245: C7 45 FC FE FF FF  mov         dword ptr [ebp-4],0FFFFFFFEh
            FF
  0041224C: 8B 4D F0           mov         ecx,dword ptr [ebp-10h]
  0041224F: 64 89 0D 00 00 00  mov         dword ptr fs:[0],ecx
            00
  00412256: 59                 pop         ecx
  00412257: 5F                 pop         edi
  00412258: 5E                 pop         esi
  00412259: 5B                 pop         ebx
  0041225A: 8B E5              mov         esp,ebp
  0041225C: 5D                 pop         ebp
  0041225D: C3                 ret
  0041225E: CC                 int         3
  0041225F: CC                 int         3
  00412260: CC                 int         3
  00412261: CC                 int         3
  00412262: CC                 int         3
  00412263: CC                 int         3
  00412264: CC                 int         3
  00412265: CC                 int         3
  00412266: CC                 int         3
  00412267: CC                 int         3
  00412268: CC                 int         3
  00412269: CC                 int         3
  0041226A: CC                 int         3
  0041226B: CC                 int         3
  0041226C: CC                 int         3
  0041226D: CC                 int         3
  0041226E: CC                 int         3
  0041226F: CC                 int         3
  00412270: CC                 int         3
  00412271: CC                 int         3
  00412272: CC                 int         3
  00412273: CC                 int         3
  00412274: CC                 int         3
  00412275: CC                 int         3
  00412276: CC                 int         3
  00412277: CC                 int         3
  00412278: CC                 int         3
  00412279: CC                 int         3
  0041227A: CC                 int         3
  0041227B: CC                 int         3
  0041227C: CC                 int         3
  0041227D: CC                 int         3
  0041227E: CC                 int         3
  0041227F: CC                 int         3
  00412280: CC                 int         3
  00412281: CC                 int         3
  00412282: CC                 int         3
  00412283: CC                 int         3
  00412284: CC                 int         3
  00412285: CC                 int         3
  00412286: CC                 int         3
  00412287: CC                 int         3
  00412288: CC                 int         3
  00412289: CC                 int         3
  0041228A: CC                 int         3
  0041228B: CC                 int         3
  0041228C: CC                 int         3
  0041228D: CC                 int         3
  0041228E: CC                 int         3
  0041228F: CC                 int         3
  00412290: CC                 int         3
  00412291: CC                 int         3
  00412292: CC                 int         3
  00412293: CC                 int         3
  00412294: CC                 int         3
  00412295: CC                 int         3
  00412296: CC                 int         3
  00412297: CC                 int         3
  00412298: CC                 int         3
  00412299: CC                 int         3
  0041229A: CC                 int         3
  0041229B: CC                 int         3
  0041229C: CC                 int         3
  0041229D: CC                 int         3
  0041229E: CC                 int         3
  0041229F: CC                 int         3
  004122A0: CC                 int         3
  004122A1: CC                 int         3
  004122A2: CC                 int         3
  004122A3: CC                 int         3
  004122A4: CC                 int         3
  004122A5: CC                 int         3
  004122A6: CC                 int         3
  004122A7: CC                 int         3
  004122A8: CC                 int         3
  004122A9: CC                 int         3
  004122AA: CC                 int         3
  004122AB: CC                 int         3
  004122AC: CC                 int         3
  004122AD: CC                 int         3
  004122AE: CC                 int         3
  004122AF: CC                 int         3
  004122B0: CC                 int         3
  004122B1: CC                 int         3
  004122B2: CC                 int         3
  004122B3: CC                 int         3
  004122B4: CC                 int         3
  004122B5: CC                 int         3
  004122B6: CC                 int         3
  004122B7: CC                 int         3
  004122B8: CC                 int         3
  004122B9: CC                 int         3
  004122BA: CC                 int         3
  004122BB: CC                 int         3
  004122BC: CC                 int         3
  004122BD: CC                 int         3
  004122BE: CC                 int         3
  004122BF: CC                 int         3
  004122C0: CC                 int         3
  004122C1: CC                 int         3
  004122C2: CC                 int         3
  004122C3: CC                 int         3
  004122C4: CC                 int         3
  004122C5: CC                 int         3
  004122C6: CC                 int         3
  004122C7: CC                 int         3
  004122C8: CC                 int         3
  004122C9: CC                 int         3
  004122CA: CC                 int         3
  004122CB: CC                 int         3
  004122CC: CC                 int         3
  004122CD: CC                 int         3
  004122CE: CC                 int         3
  004122CF: CC                 int         3
  004122D0: CC                 int         3
  004122D1: CC                 int         3
  004122D2: CC                 int         3
  004122D3: CC                 int         3
  004122D4: CC                 int         3
  004122D5: CC                 int         3
  004122D6: CC                 int         3
  004122D7: CC                 int         3
  004122D8: CC                 int         3
  004122D9: CC                 int         3
  004122DA: CC                 int         3
  004122DB: CC                 int         3
  004122DC: CC                 int         3
  004122DD: CC                 int         3
  004122DE: CC                 int         3
  004122DF: CC                 int         3
  004122E0: CC                 int         3
  004122E1: CC                 int         3
  004122E2: CC                 int         3
  004122E3: CC                 int         3
  004122E4: CC                 int         3
  004122E5: CC                 int         3
  004122E6: CC                 int         3
  004122E7: CC                 int         3
  004122E8: CC                 int         3
  004122E9: CC                 int         3
  004122EA: CC                 int         3
  004122EB: CC                 int         3
  004122EC: CC                 int         3
  004122ED: CC                 int         3
  004122EE: CC                 int         3
  004122EF: CC                 int         3
?configure_argv@__scrt_narrow_argv_policy@@SAHXZ:
  004122F0: 55                 push        ebp
  004122F1: 8B EC              mov         ebp,esp
  004122F3: E8 1C ED FF FF     call        @ILT+15(__get_startup_argv_mode)
  004122F8: 50                 push        eax
  004122F9: E8 F0 EF FF FF     call        @ILT+745(__configure_narrow_argv)
  004122FE: 83 C4 04           add         esp,4
  00412301: 5D                 pop         ebp
  00412302: C3                 ret
  00412303: CC                 int         3
  00412304: CC                 int         3
  00412305: CC                 int         3
  00412306: CC                 int         3
  00412307: CC                 int         3
  00412308: CC                 int         3
  00412309: CC                 int         3
  0041230A: CC                 int         3
  0041230B: CC                 int         3
  0041230C: CC                 int         3
  0041230D: CC                 int         3
  0041230E: CC                 int         3
  0041230F: CC                 int         3
?initialize_environment@__scrt_narrow_environment_policy@@SAHXZ:
  00412310: 55                 push        ebp
  00412311: 8B EC              mov         ebp,esp
  00412313: E8 F0 EE FF FF     call        @ILT+515(__initialize_narrow_environment)
  00412318: 5D                 pop         ebp
  00412319: C3                 ret
  0041231A: CC                 int         3
  0041231B: CC                 int         3
  0041231C: CC                 int         3
  0041231D: CC                 int         3
  0041231E: CC                 int         3
  0041231F: CC                 int         3
  00412320: 55                 push        ebp
  00412321: 8B EC              mov         ebp,esp
  00412323: E8 14 ED FF FF     call        @ILT+55(__get_initial_narrow_environment)
  00412328: 50                 push        eax
  00412329: E8 5C EF FF FF     call        @ILT+645(___p___argv)
  0041232E: 8B 00              mov         eax,dword ptr [eax]
  00412330: 50                 push        eax
  00412331: E8 4F EF FF FF     call        @ILT+640(___p___argc)
  00412336: 8B 08              mov         ecx,dword ptr [eax]
  00412338: 51                 push        ecx
  00412339: E8 79 EF FF FF     call        @ILT+690(_main)
  0041233E: 83 C4 0C           add         esp,0Ch
  00412341: 5D                 pop         ebp
  00412342: C3                 ret
  00412343: CC                 int         3
  00412344: CC                 int         3
  00412345: CC                 int         3
  00412346: CC                 int         3
  00412347: CC                 int         3
  00412348: CC                 int         3
  00412349: CC                 int         3
  0041234A: CC                 int         3
  0041234B: CC                 int         3
  0041234C: CC                 int         3
  0041234D: CC                 int         3
  0041234E: CC                 int         3
  0041234F: CC                 int         3
?set_app_type@__scrt_main_policy@@SAXXZ:
  00412350: 55                 push        ebp
  00412351: 8B EC              mov         ebp,esp
  00412353: 6A 01              push        1
  00412355: E8 81 EE FF FF     call        @ILT+470(__set_app_type)
  0041235A: 83 C4 04           add         esp,4
  0041235D: 5D                 pop         ebp
  0041235E: C3                 ret
  0041235F: CC                 int         3
  00412360: CC                 int         3
  00412361: CC                 int         3
  00412362: CC                 int         3
  00412363: CC                 int         3
  00412364: CC                 int         3
  00412365: CC                 int         3
  00412366: CC                 int         3
  00412367: CC                 int         3
  00412368: CC                 int         3
  00412369: CC                 int         3
  0041236A: CC                 int         3
  0041236B: CC                 int         3
  0041236C: CC                 int         3
  0041236D: CC                 int         3
  0041236E: CC                 int         3
  0041236F: CC                 int         3
?set_commode@__scrt_file_policy@@SAXXZ:
  00412370: 55                 push        ebp
  00412371: 8B EC              mov         ebp,esp
  00412373: 56                 push        esi
  00412374: E8 13 ED FF FF     call        @ILT+135(__get_startup_commit_mode)
  00412379: 8B F0              mov         esi,eax
  0041237B: E8 9D ED FF FF     call        @ILT+280(___p__commode)
  00412380: 89 30              mov         dword ptr [eax],esi
  00412382: 5E                 pop         esi
  00412383: 5D                 pop         ebp
  00412384: C3                 ret
  00412385: CC                 int         3
  00412386: CC                 int         3
  00412387: CC                 int         3
  00412388: CC                 int         3
  00412389: CC                 int         3
  0041238A: CC                 int         3
  0041238B: CC                 int         3
  0041238C: CC                 int         3
  0041238D: CC                 int         3
  0041238E: CC                 int         3
  0041238F: CC                 int         3
?set_fmode@__scrt_file_policy@@SAXXZ:
  00412390: 55                 push        ebp
  00412391: 8B EC              mov         ebp,esp
  00412393: E8 C9 EF FF FF     call        @ILT+860(__get_startup_file_mode)
  00412398: 50                 push        eax
  00412399: E8 66 ED FF FF     call        @ILT+255(__set_fmode)
  0041239E: 83 C4 04           add         esp,4
  004123A1: 5D                 pop         ebp
  004123A2: C3                 ret
  004123A3: CC                 int         3
  004123A4: CC                 int         3
  004123A5: CC                 int         3
  004123A6: CC                 int         3
  004123A7: CC                 int         3
  004123A8: CC                 int         3
  004123A9: CC                 int         3
  004123AA: CC                 int         3
  004123AB: CC                 int         3
  004123AC: CC                 int         3
  004123AD: CC                 int         3
  004123AE: CC                 int         3
  004123AF: CC                 int         3
_mainCRTStartup:
  004123B0: 55                 push        ebp
  004123B1: 8B EC              mov         ebp,esp
  004123B3: E8 78 FC FF FF     call        00412030
  004123B8: 5D                 pop         ebp
  004123B9: C3                 ret
  004123BA: CC                 int         3
  004123BB: CC                 int         3
  004123BC: CC                 int         3
  004123BD: CC                 int         3
  004123BE: CC                 int         3
  004123BF: CC                 int         3
  004123C0: 55                 push        ebp
  004123C1: 8B EC              mov         ebp,esp
  004123C3: 83 EC 1C           sub         esp,1Ch
  004123C6: 8B 45 08           mov         eax,dword ptr [ebp+8]
  004123C9: 89 45 E8           mov         dword ptr [ebp-18h],eax
  004123CC: 8D 45 FF           lea         eax,[ebp-1]
  004123CF: 89 45 EC           mov         dword ptr [ebp-14h],eax
  004123D2: 8D 45 E4           lea         eax,[ebp-1Ch]
  004123D5: 50                 push        eax
  004123D6: C6 45 FF 00        mov         byte ptr [ebp-1],0
  004123DA: C7 45 E4 01 10 00  mov         dword ptr [ebp-1Ch],1001h
            00
  004123E1: E8 2A 06 00 00     call        00412A10
  004123E6: 83 C4 04           add         esp,4
  004123E9: 80 7D FF 00        cmp         byte ptr [ebp-1],0
  004123ED: 0F 95 C0           setne       al
  004123F0: 8B E5              mov         esp,ebp
  004123F2: 5D                 pop         ebp
  004123F3: C3                 ret
  004123F4: CC                 int         3
  004123F5: CC                 int         3
  004123F6: CC                 int         3
  004123F7: CC                 int         3
  004123F8: CC                 int         3
  004123F9: CC                 int         3
  004123FA: CC                 int         3
  004123FB: CC                 int         3
  004123FC: CC                 int         3
  004123FD: CC                 int         3
  004123FE: CC                 int         3
  004123FF: CC                 int         3
  00412400: CC                 int         3
  00412401: CC                 int         3
  00412402: CC                 int         3
  00412403: CC                 int         3
  00412404: CC                 int         3
  00412405: CC                 int         3
  00412406: CC                 int         3
  00412407: CC                 int         3
  00412408: CC                 int         3
  00412409: CC                 int         3
  0041240A: CC                 int         3
  0041240B: CC                 int         3
  0041240C: CC                 int         3
  0041240D: CC                 int         3
  0041240E: CC                 int         3
  0041240F: CC                 int         3
  00412410: 55                 push        ebp
  00412411: 8B EC              mov         ebp,esp
  00412413: 83 EC 1C           sub         esp,1Ch
  00412416: 8B 45 08           mov         eax,dword ptr [ebp+8]
  00412419: 89 45 E8           mov         dword ptr [ebp-18h],eax
  0041241C: 8B 45 0C           mov         eax,dword ptr [ebp+0Ch]
  0041241F: 89 45 EC           mov         dword ptr [ebp-14h],eax
  00412422: 8B 45 10           mov         eax,dword ptr [ebp+10h]
  00412425: 89 45 F0           mov         dword ptr [ebp-10h],eax
  00412428: 8D 45 FF           lea         eax,[ebp-1]
  0041242B: 89 45 F4           mov         dword ptr [ebp-0Ch],eax
  0041242E: 8B 45 14           mov         eax,dword ptr [ebp+14h]
  00412431: 89 45 F8           mov         dword ptr [ebp-8],eax
  00412434: 8D 45 E4           lea         eax,[ebp-1Ch]
  00412437: 50                 push        eax
  00412438: C6 45 FF 00        mov         byte ptr [ebp-1],0
  0041243C: C7 45 E4 02 10 00  mov         dword ptr [ebp-1Ch],1002h
            00
  00412443: E8 C8 05 00 00     call        00412A10
  00412448: 83 C4 04           add         esp,4
  0041244B: 80 7D FF 00        cmp         byte ptr [ebp-1],0
  0041244F: 0F 95 C0           setne       al
  00412452: 8B E5              mov         esp,ebp
  00412454: 5D                 pop         ebp
  00412455: C3                 ret
  00412456: CC                 int         3
  00412457: CC                 int         3
  00412458: CC                 int         3
  00412459: CC                 int         3
  0041245A: CC                 int         3
  0041245B: CC                 int         3
  0041245C: CC                 int         3
  0041245D: CC                 int         3
  0041245E: CC                 int         3
  0041245F: CC                 int         3
  00412460: CC                 int         3
  00412461: CC                 int         3
  00412462: CC                 int         3
  00412463: CC                 int         3
  00412464: CC                 int         3
  00412465: CC                 int         3
  00412466: CC                 int         3
  00412467: CC                 int         3
  00412468: CC                 int         3
  00412469: CC                 int         3
  0041246A: CC                 int         3
  0041246B: CC                 int         3
  0041246C: CC                 int         3
  0041246D: CC                 int         3
  0041246E: CC                 int         3
  0041246F: CC                 int         3
?_RTC_AllocaFailure@@YAXPAXPAU_RTC_ALLOCA_NODE@@H@Z:
  00412470: 55                 push        ebp
  00412471: 8B EC              mov         ebp,esp
  00412473: 81 EC 44 01 00 00  sub         esp,144h
  00412479: A1 00 A0 41 00     mov         eax,dword ptr [___security_cookie]
  0041247E: 33 C5              xor         eax,ebp
  00412480: 89 45 FC           mov         dword ptr [ebp-4],eax
  00412483: 8B 45 08           mov         eax,dword ptr [ebp+8]
  00412486: 53                 push        ebx
  00412487: 8B 5D 0C           mov         ebx,dword ptr [ebp+0Ch]
  0041248A: 57                 push        edi
  0041248B: 8B 3D 1C A0 41 00  mov         edi,dword ptr ds:[41A01Ch]
  00412491: 89 85 BC FE FF FF  mov         dword ptr [ebp-144h],eax
  00412497: 83 FF FF           cmp         edi,0FFFFFFFFh
  0041249A: 0F 84 A6 00 00 00  je          00412546
  004124A0: 85 DB              test        ebx,ebx
  004124A2: 75 21              jne         004124C5
  004124A4: 68 E8 80 41 00     push        offset ??_C@_0EJ@LJKNEOLN@Stack?5area?5around?5_alloca?5memory@
  004124A9: 6A 04              push        4
  004124AB: 57                 push        edi
  004124AC: 50                 push        eax
  004124AD: E8 DE 02 00 00     call        00412790
  004124B2: 83 C4 10           add         esp,10h
  004124B5: 5F                 pop         edi
  004124B6: 5B                 pop         ebx
  004124B7: 8B 4D FC           mov         ecx,dword ptr [ebp-4]
  004124BA: 33 CD              xor         ecx,ebp
  004124BC: E8 CE ED FF FF     call        @ILT+650(@__security_check_cookie@4)
  004124C1: 8B E5              mov         esp,ebp
  004124C3: 5D                 pop         ebp
  004124C4: C3                 ret
  004124C5: 8B 43 0C           mov         eax,dword ptr [ebx+0Ch]
  004124C8: 56                 push        esi
  004124C9: 83 E8 24           sub         eax,24h
  004124CC: 8D 73 20           lea         esi,[ebx+20h]
  004124CF: 50                 push        eax
  004124D0: 56                 push        esi
  004124D1: 8D 45 B4           lea         eax,[ebp-4Ch]
  004124D4: 50                 push        eax
  004124D5: 8D 45 E8           lea         eax,[ebp-18h]
  004124D8: 50                 push        eax
  004124D9: E8 02 02 00 00     call        004126E0
  004124DE: 68 40 81 41 00     push        offset ??_C@_01EEMJAFIK@?6?$AA@
  004124E3: 8D 45 B4           lea         eax,[ebp-4Ch]
  004124E6: 50                 push        eax
  004124E7: 68 44 81 41 00     push        offset ??_C@_02LLMPMKNF@?$DO?5?$AA@
  004124EC: 8D 45 E8           lea         eax,[ebp-18h]
  004124EF: 50                 push        eax
  004124F0: 8B 43 0C           mov         eax,dword ptr [ebx+0Ch]
  004124F3: 68 48 81 41 00     push        offset ??_C@_08OMAHNMHJ@?6Data?3?5?$DM?$AA@
  004124F8: FF 75 10           push        dword ptr [ebp+10h]
  004124FB: 83 E8 24           sub         eax,24h
  004124FE: 68 54 81 41 00     push        offset ??_C@_0CK@DKGBICFE@?6Allocation?5number?5within?5this?5f@
  00412503: 50                 push        eax
  00412504: 68 88 81 41 00     push        offset ??_C@_07DFDJCKFN@?6Size?3?5?$AA@
  00412509: 56                 push        esi
  0041250A: 68 94 81 41 00     push        offset ??_C@_0N@MHFFIMFG@?6Address?3?50x?$AA@
  0041250F: 68 A8 81 41 00     push        offset ??_C@_0EI@CLEPFNGI@Stack?5area?5around?5_alloca?5memory@
  00412514: 68 00 82 41 00     push        offset ??_C@_0BK@ODNDAGKB@?$CFs?$CFs?$CFp?$CFs?$CFzd?$CFs?$CFd?$CFs?$CFs?$CFs?$CFs?$CFs?$AA@
  00412519: 8D 85 C0 FE FF FF  lea         eax,[ebp-140h]
  0041251F: 68 F4 00 00 00     push        0F4h
  00412524: 50                 push        eax
  00412525: E8 F1 ED FF FF     call        @ILT+790(_sprintf_s)
  0041252A: 83 C4 4C           add         esp,4Ch
  0041252D: 8D 85 C0 FE FF FF  lea         eax,[ebp-140h]
  00412533: 50                 push        eax
  00412534: 6A 04              push        4
  00412536: 57                 push        edi
  00412537: FF B5 BC FE FF FF  push        dword ptr [ebp-144h]
  0041253D: E8 4E 02 00 00     call        00412790
  00412542: 83 C4 10           add         esp,10h
  00412545: 5E                 pop         esi
  00412546: 8B 4D FC           mov         ecx,dword ptr [ebp-4]
  00412549: 5F                 pop         edi
  0041254A: 33 CD              xor         ecx,ebp
  0041254C: 5B                 pop         ebx
  0041254D: E8 3D ED FF FF     call        @ILT+650(@__security_check_cookie@4)
  00412552: 8B E5              mov         esp,ebp
  00412554: 5D                 pop         ebp
  00412555: C3                 ret
  00412556: CC                 int         3
  00412557: CC                 int         3
  00412558: CC                 int         3
  00412559: CC                 int         3
  0041255A: CC                 int         3
  0041255B: CC                 int         3
  0041255C: CC                 int         3
  0041255D: CC                 int         3
  0041255E: CC                 int         3
  0041255F: CC                 int         3
  00412560: CC                 int         3
  00412561: CC                 int         3
  00412562: CC                 int         3
  00412563: CC                 int         3
  00412564: CC                 int         3
  00412565: CC                 int         3
  00412566: CC                 int         3
  00412567: CC                 int         3
  00412568: CC                 int         3
  00412569: CC                 int         3
  0041256A: CC                 int         3
  0041256B: CC                 int         3
  0041256C: CC                 int         3
  0041256D: CC                 int         3
  0041256E: CC                 int         3
  0041256F: CC                 int         3
  00412570: CC                 int         3
  00412571: CC                 int         3
  00412572: CC                 int         3
  00412573: CC                 int         3
  00412574: CC                 int         3
  00412575: CC                 int         3
  00412576: CC                 int         3
  00412577: CC                 int         3
  00412578: CC                 int         3
  00412579: CC                 int         3
  0041257A: CC                 int         3
  0041257B: CC                 int         3
  0041257C: CC                 int         3
  0041257D: CC                 int         3
  0041257E: CC                 int         3
  0041257F: CC                 int         3
  00412580: CC                 int         3
  00412581: CC                 int         3
  00412582: CC                 int         3
  00412583: CC                 int         3
  00412584: CC                 int         3
  00412585: CC                 int         3
  00412586: CC                 int         3
  00412587: CC                 int         3
  00412588: CC                 int         3
  00412589: CC                 int         3
  0041258A: CC                 int         3
  0041258B: CC                 int         3
  0041258C: CC                 int         3
  0041258D: CC                 int         3
  0041258E: CC                 int         3
  0041258F: CC                 int         3
?_RTC_Failure@@YAXPAXH@Z:
  00412590: 55                 push        ebp
  00412591: 8B EC              mov         ebp,esp
  00412593: 8B 45 0C           mov         eax,dword ptr [ebp+0Ch]
  00412596: 83 F8 04           cmp         eax,4
  00412599: 77 23              ja          004125BE
  0041259B: 8B 0C 85 0C A0 41  mov         ecx,dword ptr ?_RTC_ErrorLevels@@3PAHA[eax*4]
            00
  004125A2: 8B 14 85 A4 7B 41  mov         edx,dword ptr [eax*4+417BA4h]
            00
  004125A9: 83 F9 FF           cmp         ecx,0FFFFFFFFh
  004125AC: 74 2E              je          004125DC
  004125AE: 52                 push        edx
  004125AF: 50                 push        eax
  004125B0: 51                 push        ecx
  004125B1: FF 75 08           push        dword ptr [ebp+8]
  004125B4: E8 D7 01 00 00     call        00412790
  004125B9: 83 C4 10           add         esp,10h
  004125BC: 5D                 pop         ebp
  004125BD: C3                 ret
  004125BE: 8B 15 B8 7B 41 00  mov         edx,dword ptr ds:[417BB8h]
  004125C4: B8 05 00 00 00     mov         eax,5
  004125C9: 52                 push        edx
  004125CA: 50                 push        eax
  004125CB: B9 01 00 00 00     mov         ecx,1
  004125D0: 51                 push        ecx
  004125D1: FF 75 08           push        dword ptr [ebp+8]
  004125D4: E8 B7 01 00 00     call        00412790
  004125D9: 83 C4 10           add         esp,10h
  004125DC: 5D                 pop         ebp
  004125DD: C3                 ret
  004125DE: CC                 int         3
  004125DF: CC                 int         3
  004125E0: CC                 int         3
  004125E1: CC                 int         3
  004125E2: CC                 int         3
  004125E3: CC                 int         3
  004125E4: CC                 int         3
  004125E5: CC                 int         3
  004125E6: CC                 int         3
  004125E7: CC                 int         3
  004125E8: CC                 int         3
  004125E9: CC                 int         3
  004125EA: CC                 int         3
  004125EB: CC                 int         3
  004125EC: CC                 int         3
  004125ED: CC                 int         3
  004125EE: CC                 int         3
  004125EF: CC                 int         3
  004125F0: CC                 int         3
  004125F1: CC                 int         3
  004125F2: CC                 int         3
  004125F3: CC                 int         3
  004125F4: CC                 int         3
  004125F5: CC                 int         3
  004125F6: CC                 int         3
  004125F7: CC                 int         3
  004125F8: CC                 int         3
  004125F9: CC                 int         3
  004125FA: CC                 int         3
  004125FB: CC                 int         3
  004125FC: CC                 int         3
  004125FD: CC                 int         3
  004125FE: CC                 int         3
  004125FF: CC                 int         3
?_RTC_StackFailure@@YAXPAXPBD@Z:
  00412600: 55                 push        ebp
  00412601: 8B EC              mov         ebp,esp
  00412603: 81 EC 04 04 00 00  sub         esp,404h
  00412609: A1 00 A0 41 00     mov         eax,dword ptr [___security_cookie]
  0041260E: 33 C5              xor         eax,ebp
  00412610: 89 45 FC           mov         dword ptr [ebp-4],eax
  00412613: 53                 push        ebx
  00412614: 8B 5D 08           mov         ebx,dword ptr [ebp+8]
  00412617: 56                 push        esi
  00412618: 8B 75 0C           mov         esi,dword ptr [ebp+0Ch]
  0041261B: 57                 push        edi
  0041261C: 8B 3D 14 A0 41 00  mov         edi,dword ptr ds:[41A014h]
  00412622: 83 FF FF           cmp         edi,0FFFFFFFFh
  00412625: 74 73              je          0041269A
  00412627: 80 3E 00           cmp         byte ptr [esi],0
  0041262A: 74 5C              je          00412688
  0041262C: 56                 push        esi
  0041262D: E8 3E 01 00 00     call        00412770
  00412632: 83 C0 2D           add         eax,2Dh
  00412635: 83 C4 04           add         esp,4
  00412638: 3D 00 04 00 00     cmp         eax,400h
  0041263D: 77 49              ja          00412688
  0041263F: 68 D4 7B 41 00     push        417BD4h
  00412644: 8D 85 FC FB FF FF  lea         eax,[ebp-404h]
  0041264A: 68 00 04 00 00     push        400h
  0041264F: 50                 push        eax
  00412650: E8 0F EA FF FF     call        @ILT+95(_strcpy_s)
  00412655: 56                 push        esi
  00412656: 8D 85 FC FB FF FF  lea         eax,[ebp-404h]
  0041265C: 68 00 04 00 00     push        400h
  00412661: 50                 push        eax
  00412662: E8 07 EA FF FF     call        @ILT+105(_strcat_s)
  00412667: 68 F0 7B 41 00     push        417BF0h
  0041266C: 8D 85 FC FB FF FF  lea         eax,[ebp-404h]
  00412672: 68 00 04 00 00     push        400h
  00412677: 50                 push        eax
  00412678: E8 F1 E9 FF FF     call        @ILT+105(_strcat_s)
  0041267D: 83 C4 24           add         esp,24h
  00412680: 8D 85 FC FB FF FF  lea         eax,[ebp-404h]
  00412686: EB 05              jmp         0041268D
  00412688: B8 B0 80 41 00     mov         eax,offset ??_C@_0CG@IAFNJNEE@Stack?5corrupted?5near?5unknown?5var@
  0041268D: 50                 push        eax
  0041268E: 6A 02              push        2
  00412690: 57                 push        edi
  00412691: 53                 push        ebx
  00412692: E8 F9 00 00 00     call        00412790
  00412697: 83 C4 10           add         esp,10h
  0041269A: 8B 4D FC           mov         ecx,dword ptr [ebp-4]
  0041269D: 5F                 pop         edi
  0041269E: 5E                 pop         esi
  0041269F: 33 CD              xor         ecx,ebp
  004126A1: 5B                 pop         ebx
  004126A2: E8 E8 EB FF FF     call        @ILT+650(@__security_check_cookie@4)
  004126A7: 8B E5              mov         esp,ebp
  004126A9: 5D                 pop         ebp
  004126AA: C3                 ret
  004126AB: CC                 int         3
  004126AC: CC                 int         3
  004126AD: CC                 int         3
  004126AE: CC                 int         3
  004126AF: CC                 int         3
  004126B0: CC                 int         3
  004126B1: CC                 int         3
  004126B2: CC                 int         3
  004126B3: CC                 int         3
  004126B4: CC                 int         3
  004126B5: CC                 int         3
  004126B6: CC                 int         3
  004126B7: CC                 int         3
  004126B8: CC                 int         3
  004126B9: CC                 int         3
  004126BA: CC                 int         3
  004126BB: CC                 int         3
  004126BC: CC                 int         3
  004126BD: CC                 int         3
  004126BE: CC                 int         3
  004126BF: CC                 int         3
  004126C0: CC                 int         3
  004126C1: CC                 int         3
  004126C2: CC                 int         3
  004126C3: CC                 int         3
  004126C4: CC                 int         3
  004126C5: CC                 int         3
  004126C6: CC                 int         3
  004126C7: CC                 int         3
  004126C8: CC                 int         3
  004126C9: CC                 int         3
  004126CA: CC                 int         3
  004126CB: CC                 int         3
  004126CC: CC                 int         3
  004126CD: CC                 int         3
  004126CE: CC                 int         3
  004126CF: CC                 int         3
  004126D0: CC                 int         3
  004126D1: CC                 int         3
  004126D2: CC                 int         3
  004126D3: CC                 int         3
  004126D4: CC                 int         3
  004126D5: CC                 int         3
  004126D6: CC                 int         3
  004126D7: CC                 int         3
  004126D8: CC                 int         3
  004126D9: CC                 int         3
  004126DA: CC                 int         3
  004126DB: CC                 int         3
  004126DC: CC                 int         3
  004126DD: CC                 int         3
  004126DE: CC                 int         3
  004126DF: CC                 int         3
  004126E0: 55                 push        ebp
  004126E1: 8B EC              mov         ebp,esp
  004126E3: 83 EC 08           sub         esp,8
  004126E6: 33 C9              xor         ecx,ecx
  004126E8: 53                 push        ebx
  004126E9: 8B 5D 10           mov         ebx,dword ptr [ebp+10h]
  004126EC: 8D 51 31           lea         edx,[ecx+31h]
  004126EF: 56                 push        esi
  004126F0: 8B 75 08           mov         esi,dword ptr [ebp+8]
  004126F3: 2B DE              sub         ebx,esi
  004126F5: 57                 push        edi
  004126F6: 8B 7D 0C           mov         edi,dword ptr [ebp+0Ch]
  004126F9: 89 5D 10           mov         dword ptr [ebp+10h],ebx
  004126FC: 8B 45 14           mov         eax,dword ptr [ebp+14h]
  004126FF: 89 55 F8           mov         dword ptr [ebp-8],edx
  00412702: 89 4D FC           mov         dword ptr [ebp-4],ecx
  00412705: 83 F8 10           cmp         eax,10h
  00412708: 72 05              jb          0041270F
  0041270A: B8 10 00 00 00     mov         eax,10h
  0041270F: 3B C8              cmp         ecx,eax
  00412711: 73 2B              jae         0041273E
  00412713: 8A 1C 33           mov         bl,byte ptr [ebx+esi]
  00412716: 0F B6 C3           movzx       eax,bl
  00412719: 50                 push        eax
  0041271A: 68 E0 80 41 00     push        offset ??_C@_05MKKEDADM@?$CF?42X?5?$AA@
  0041271F: 52                 push        edx
  00412720: 57                 push        edi
  00412721: E8 F5 EB FF FF     call        @ILT+790(_sprintf_s)
  00412726: 8B 4D FC           mov         ecx,dword ptr [ebp-4]
  00412729: 83 C4 10           add         esp,10h
  0041272C: 8B 55 F8           mov         edx,dword ptr [ebp-8]
  0041272F: 41                 inc         ecx
  00412730: 88 1E              mov         byte ptr [esi],bl
  00412732: 83 C7 03           add         edi,3
  00412735: 8B 5D 10           mov         ebx,dword ptr [ebp+10h]
  00412738: 46                 inc         esi
  00412739: 83 EA 03           sub         edx,3
  0041273C: EB BE              jmp         004126FC
  0041273E: C6 06 00           mov         byte ptr [esi],0
  00412741: C6 07 00           mov         byte ptr [edi],0
  00412744: 5F                 pop         edi
  00412745: 5E                 pop         esi
  00412746: 5B                 pop         ebx
  00412747: 8B E5              mov         esp,ebp
  00412749: 5D                 pop         ebp
  0041274A: C3                 ret
  0041274B: CC                 int         3
  0041274C: CC                 int         3
  0041274D: CC                 int         3
  0041274E: CC                 int         3
  0041274F: CC                 int         3
  00412750: CC                 int         3
  00412751: CC                 int         3
  00412752: CC                 int         3
  00412753: CC                 int         3
  00412754: CC                 int         3
  00412755: CC                 int         3
  00412756: CC                 int         3
  00412757: CC                 int         3
  00412758: CC                 int         3
  00412759: CC                 int         3
  0041275A: CC                 int         3
  0041275B: CC                 int         3
  0041275C: CC                 int         3
  0041275D: CC                 int         3
  0041275E: CC                 int         3
  0041275F: CC                 int         3
  00412760: CC                 int         3
  00412761: CC                 int         3
  00412762: CC                 int         3
  00412763: CC                 int         3
  00412764: CC                 int         3
  00412765: CC                 int         3
  00412766: CC                 int         3
  00412767: CC                 int         3
  00412768: CC                 int         3
  00412769: CC                 int         3
  0041276A: CC                 int         3
  0041276B: CC                 int         3
  0041276C: CC                 int         3
  0041276D: CC                 int         3
  0041276E: CC                 int         3
  0041276F: CC                 int         3
  00412770: 55                 push        ebp
  00412771: 8B EC              mov         ebp,esp
  00412773: 8B 55 08           mov         edx,dword ptr [ebp+8]
  00412776: 8B C2              mov         eax,edx
  00412778: 8A 08              mov         cl,byte ptr [eax]
  0041277A: 40                 inc         eax
  0041277B: 84 C9              test        cl,cl
  0041277D: 75 F9              jne         00412778
  0041277F: 2B C2              sub         eax,edx
  00412781: 48                 dec         eax
  00412782: 5D                 pop         ebp
  00412783: C3                 ret
  00412784: CC                 int         3
  00412785: CC                 int         3
  00412786: CC                 int         3
  00412787: CC                 int         3
  00412788: CC                 int         3
  00412789: CC                 int         3
  0041278A: CC                 int         3
  0041278B: CC                 int         3
  0041278C: CC                 int         3
  0041278D: CC                 int         3
  0041278E: CC                 int         3
  0041278F: CC                 int         3
  00412790: 55                 push        ebp
  00412791: 8B EC              mov         ebp,esp
  00412793: 81 EC 3C 0E 00 00  sub         esp,0E3Ch
  00412799: A1 00 A0 41 00     mov         eax,dword ptr [___security_cookie]
  0041279E: 33 C5              xor         eax,ebp
  004127A0: 89 45 FC           mov         dword ptr [ebp-4],eax
  004127A3: 8B 45 10           mov         eax,dword ptr [ebp+10h]
  004127A6: 53                 push        ebx
  004127A7: 8B 5D 14           mov         ebx,dword ptr [ebp+14h]
  004127AA: 56                 push        esi
  004127AB: 8B 75 08           mov         esi,dword ptr [ebp+8]
  004127AE: 57                 push        edi
  004127AF: 56                 push        esi
  004127B0: 89 85 D0 F1 FF FF  mov         dword ptr [ebp-0E30h],eax
  004127B6: 89 9D C4 F1 FF FF  mov         dword ptr [ebp-0E3Ch],ebx
  004127BC: C7 85 CC F1 FF FF  mov         dword ptr [ebp-0E34h],0
            00 00 00 00
  004127C6: E8 02 E9 FF FF     call        @ILT+200(?_RTC_GetErrorFuncW@@YAP6AHHPB_WH00ZZPBX@Z)
  004127CB: 8B F8              mov         edi,eax
  004127CD: 83 C4 04           add         esp,4
  004127D0: 85 FF              test        edi,edi
  004127D2: 75 0F              jne         004127E3
  004127D4: 56                 push        esi
  004127D5: E8 3C EB FF FF     call        @ILT+785(?_RTC_GetErrorFunc@@YAP6AHHPBDH00ZZPBX@Z)
  004127DA: 83 C4 04           add         esp,4
  004127DD: 89 85 CC F1 FF FF  mov         dword ptr [ebp-0E34h],eax
  004127E3: 6A 00              push        0
  004127E5: 6A 00              push        0
  004127E7: 6A FF              push        0FFFFFFFFh
  004127E9: 53                 push        ebx
  004127EA: 6A 00              push        0
  004127EC: 68 E9 FD 00 00     push        0FDE9h
  004127F1: FF 15 08 B0 41 00  call        dword ptr [__imp__MultiByteToWideChar@24]
  004127F7: 3D 00 02 00 00     cmp         eax,200h
  004127FC: 73 22              jae         00412820
  004127FE: 50                 push        eax
  004127FF: 8D 85 D4 F1 FF FF  lea         eax,[ebp-0E2Ch]
  00412805: 50                 push        eax
  00412806: 6A FF              push        0FFFFFFFFh
  00412808: 53                 push        ebx
  00412809: 6A 00              push        0
  0041280B: 68 E9 FD 00 00     push        0FDE9h
  00412810: FF 15 08 B0 41 00  call        dword ptr [__imp__MultiByteToWideChar@24]
  00412816: 8D 9D D4 F1 FF FF  lea         ebx,[ebp-0E2Ch]
  0041281C: 85 C0              test        eax,eax
  0041281E: 75 05              jne         00412825
  00412820: BB 88 7F 41 00     mov         ebx,offset ??_C@_1GM@OLMCBDMB@?$AAR?$AAu?$AAn?$AAt?$AAi?$AAm?$AAe?$AA?5?$AAC?$AAh?$AAe?$AAc?$AAk?$AA?5?$AAE?$AAr?$AAr?$AAo?$AAr?$AA?4?$AA?6?$AA?$AN?$AA?5?$AAU?$AAn?$AAa?$AAb?$AAl?$AAe?$AA?5?$AAt?$AAo@
  00412825: 68 02 10 00 00     push        1002h
  0041282A: E8 91 FB FF FF     call        004123C0
  0041282F: 83 C4 04           add         esp,4
  00412832: 84 C0              test        al,al
  00412834: 74 22              je          00412858
  00412836: 8B 85 D0 F1 FF FF  mov         eax,dword ptr [ebp-0E30h]
  0041283C: 53                 push        ebx
  0041283D: 56                 push        esi
  0041283E: FF 34 85 BC 7B 41  push        dword ptr [eax*4+417BBCh]
            00
  00412845: 50                 push        eax
  00412846: E8 C5 FB FF FF     call        00412410
  0041284B: 83 C4 10           add         esp,10h
  0041284E: 84 C0              test        al,al
  00412850: 0F 85 27 01 00 00  jne         0041297D
  00412856: EB 02              jmp         0041285A
  00412858: B0 01              mov         al,1
  0041285A: 83 BD CC F1 FF FF  cmp         dword ptr [ebp-0E34h],0
            00
  00412861: 75 08              jne         0041286B
  00412863: 85 FF              test        edi,edi
  00412865: 0F 84 11 01 00 00  je          0041297C
  0041286B: 84 C0              test        al,al
  0041286D: 74 0E              je          0041287D
  0041286F: FF 15 38 B0 41 00  call        dword ptr [__imp__IsDebuggerPresent@0]
  00412875: 85 C0              test        eax,eax
  00412877: 0F 85 FF 00 00 00  jne         0041297C
  0041287D: 68 04 01 00 00     push        104h
  00412882: 8D 85 EC FB FF FF  lea         eax,[ebp-414h]
  00412888: 50                 push        eax
  00412889: 8D 85 C8 F1 FF FF  lea         eax,[ebp-0E38h]
  0041288F: 50                 push        eax
  00412890: 68 04 01 00 00     push        104h
  00412895: 8D 85 F4 FD FF FF  lea         eax,[ebp-20Ch]
  0041289B: 50                 push        eax
  0041289C: 8D 46 FB           lea         eax,[esi-5]
  0041289F: 50                 push        eax
  004128A0: E8 99 EA FF FF     call        @ILT+825(?_RTC_GetSrcLine@@YAHPAEPA_WKPAH1K@Z)
  004128A5: 83 C4 18           add         esp,18h
  004128A8: 85 FF              test        edi,edi
  004128AA: 74 32              je          004128DE
  004128AC: 53                 push        ebx
  004128AD: FF B5 D0 F1 FF FF  push        dword ptr [ebp-0E30h]
  004128B3: 8D 85 EC FB FF FF  lea         eax,[ebp-414h]
  004128B9: 8B CF              mov         ecx,edi
  004128BB: 68 10 80 41 00     push        offset ??_C@_1EA@NFKNIFJP@?$AAR?$AAu?$AAn?$AA?9?$AAT?$AAi?$AAm?$AAe?$AA?5?$AAC?$AAh?$AAe?$AAc?$AAk?$AA?5?$AAF?$AAa?$AAi?$AAl?$AAu?$AAr?$AAe?$AA?5?$AA?$CD?$AA?$CF?$AAd?$AA?5?$AA?9?$AA?5?$AA?$CF?$AAs?$AA?$AA@
  004128C0: 50                 push        eax
  004128C1: FF B5 C8 F1 FF FF  push        dword ptr [ebp-0E38h]
  004128C7: 8D 85 F4 FD FF FF  lea         eax,[ebp-20Ch]
  004128CD: 50                 push        eax
  004128CE: FF 75 0C           push        dword ptr [ebp+0Ch]
  004128D1: FF 15 00 C0 41 00  call        dword ptr [___guard_check_icall_fptr]
  004128D7: FF D7              call        edi
  004128D9: E9 96 00 00 00     jmp         00412974
  004128DE: 6A 00              push        0
  004128E0: 6A 00              push        0
  004128E2: 68 0A 03 00 00     push        30Ah
  004128E7: 8D 85 E0 F8 FF FF  lea         eax,[ebp-720h]
  004128ED: BE 5C 80 41 00     mov         esi,offset ??_C@_0BB@PFFGGCJP@Unknown?5Filename?$AA@
  004128F2: 50                 push        eax
  004128F3: 6A FF              push        0FFFFFFFFh
  004128F5: 8D 85 F4 FD FF FF  lea         eax,[ebp-20Ch]
  004128FB: 50                 push        eax
  004128FC: 6A 00              push        0
  004128FE: 68 E9 FD 00 00     push        0FDE9h
  00412903: FF 15 0C B0 41 00  call        dword ptr [__imp__WideCharToMultiByte@32]
  00412909: 85 C0              test        eax,eax
  0041290B: 74 06              je          00412913
  0041290D: 8D B5 E0 F8 FF FF  lea         esi,[ebp-720h]
  00412913: 6A 00              push        0
  00412915: 6A 00              push        0
  00412917: 68 0A 03 00 00     push        30Ah
  0041291C: 8D 85 D4 F5 FF FF  lea         eax,[ebp-0A2Ch]
  00412922: BF 70 80 41 00     mov         edi,offset ??_C@_0BE@GNBOBNCK@Unknown?5Module?5Name?$AA@
  00412927: 50                 push        eax
  00412928: 6A FF              push        0FFFFFFFFh
  0041292A: 8D 85 EC FB FF FF  lea         eax,[ebp-414h]
  00412930: 50                 push        eax
  00412931: 6A 00              push        0
  00412933: 68 E9 FD 00 00     push        0FDE9h
  00412938: FF 15 0C B0 41 00  call        dword ptr [__imp__WideCharToMultiByte@32]
  0041293E: 85 C0              test        eax,eax
  00412940: 74 06              je          00412948
  00412942: 8D BD D4 F5 FF FF  lea         edi,[ebp-0A2Ch]
  00412948: FF B5 C4 F1 FF FF  push        dword ptr [ebp-0E3Ch]
  0041294E: 8B 9D CC F1 FF FF  mov         ebx,dword ptr [ebp-0E34h]
  00412954: 8B CB              mov         ecx,ebx
  00412956: FF B5 D0 F1 FF FF  push        dword ptr [ebp-0E30h]
  0041295C: 68 88 80 41 00     push        offset ??_C@_0CA@IODNCDPG@Run?9Time?5Check?5Failure?5?$CD?$CFd?5?9?5?$CFs?$AA@
  00412961: 57                 push        edi
  00412962: FF B5 C8 F1 FF FF  push        dword ptr [ebp-0E38h]
  00412968: 56                 push        esi
  00412969: FF 75 0C           push        dword ptr [ebp+0Ch]
  0041296C: FF 15 00 C0 41 00  call        dword ptr [___guard_check_icall_fptr]
  00412972: FF D3              call        ebx
  00412974: 83 C4 1C           add         esp,1Ch
  00412977: 83 F8 01           cmp         eax,1
  0041297A: 75 01              jne         0041297D
  0041297C: CC                 int         3
  0041297D: 8B 4D FC           mov         ecx,dword ptr [ebp-4]
  00412980: 5F                 pop         edi
  00412981: 5E                 pop         esi
  00412982: 33 CD              xor         ecx,ebp
  00412984: 5B                 pop         ebx
  00412985: E8 05 E9 FF FF     call        @ILT+650(@__security_check_cookie@4)
  0041298A: 8B E5              mov         esp,ebp
  0041298C: 5D                 pop         ebp
  0041298D: C3                 ret
  0041298E: CC                 int         3
  0041298F: CC                 int         3
  00412990: CC                 int         3
  00412991: CC                 int         3
  00412992: CC                 int         3
  00412993: CC                 int         3
  00412994: CC                 int         3
  00412995: CC                 int         3
  00412996: CC                 int         3
  00412997: CC                 int         3
  00412998: CC                 int         3
  00412999: CC                 int         3
  0041299A: CC                 int         3
  0041299B: CC                 int         3
  0041299C: CC                 int         3
  0041299D: CC                 int         3
  0041299E: CC                 int         3
  0041299F: CC                 int         3
  004129A0: CC                 int         3
  004129A1: CC                 int         3
  004129A2: CC                 int         3
  004129A3: CC                 int         3
  004129A4: CC                 int         3
  004129A5: CC                 int         3
  004129A6: CC                 int         3
  004129A7: CC                 int         3
  004129A8: CC                 int         3
  004129A9: CC                 int         3
  004129AA: CC                 int         3
  004129AB: CC                 int         3
  004129AC: CC                 int         3
  004129AD: CC                 int         3
  004129AE: CC                 int         3
  004129AF: CC                 int         3
  004129B0: CC                 int         3
  004129B1: CC                 int         3
  004129B2: CC                 int         3
  004129B3: CC                 int         3
  004129B4: CC                 int         3
  004129B5: CC                 int         3
  004129B6: CC                 int         3
  004129B7: CC                 int         3
  004129B8: CC                 int         3
  004129B9: CC                 int         3
  004129BA: CC                 int         3
  004129BB: CC                 int         3
  004129BC: CC                 int         3
  004129BD: CC                 int         3
  004129BE: CC                 int         3
  004129BF: CC                 int         3
  004129C0: CC                 int         3
  004129C1: CC                 int         3
  004129C2: CC                 int         3
  004129C3: CC                 int         3
  004129C4: CC                 int         3
  004129C5: CC                 int         3
  004129C6: CC                 int         3
  004129C7: CC                 int         3
  004129C8: CC                 int         3
  004129C9: CC                 int         3
  004129CA: CC                 int         3
  004129CB: CC                 int         3
  004129CC: CC                 int         3
  004129CD: CC                 int         3
  004129CE: CC                 int         3
  004129CF: CC                 int         3
  004129D0: CC                 int         3
  004129D1: CC                 int         3
  004129D2: CC                 int         3
  004129D3: CC                 int         3
  004129D4: CC                 int         3
  004129D5: CC                 int         3
  004129D6: CC                 int         3
  004129D7: CC                 int         3
  004129D8: CC                 int         3
  004129D9: CC                 int         3
  004129DA: CC                 int         3
  004129DB: CC                 int         3
  004129DC: CC                 int         3
  004129DD: CC                 int         3
  004129DE: CC                 int         3
  004129DF: CC                 int         3
  004129E0: CC                 int         3
  004129E1: CC                 int         3
  004129E2: CC                 int         3
  004129E3: CC                 int         3
  004129E4: CC                 int         3
  004129E5: CC                 int         3
  004129E6: CC                 int         3
  004129E7: CC                 int         3
  004129E8: CC                 int         3
  004129E9: CC                 int         3
  004129EA: CC                 int         3
  004129EB: CC                 int         3
  004129EC: CC                 int         3
  004129ED: CC                 int         3
  004129EE: CC                 int         3
  004129EF: CC                 int         3
  004129F0: CC                 int         3
  004129F1: CC                 int         3
  004129F2: CC                 int         3
  004129F3: CC                 int         3
  004129F4: CC                 int         3
  004129F5: CC                 int         3
  004129F6: CC                 int         3
  004129F7: CC                 int         3
  004129F8: CC                 int         3
  004129F9: CC                 int         3
  004129FA: CC                 int         3
  004129FB: CC                 int         3
  004129FC: CC                 int         3
  004129FD: CC                 int         3
  004129FE: CC                 int         3
  004129FF: CC                 int         3
  00412A00: CC                 int         3
  00412A01: CC                 int         3
  00412A02: CC                 int         3
  00412A03: CC                 int         3
  00412A04: CC                 int         3
  00412A05: CC                 int         3
  00412A06: CC                 int         3
  00412A07: CC                 int         3
  00412A08: CC                 int         3
  00412A09: CC                 int         3
  00412A0A: CC                 int         3
  00412A0B: CC                 int         3
  00412A0C: CC                 int         3
  00412A0D: CC                 int         3
  00412A0E: CC                 int         3
  00412A0F: CC                 int         3
  00412A10: 55                 push        ebp
  00412A11: 8B EC              mov         ebp,esp
  00412A13: 6A FE              push        0FFFFFFFEh
  00412A15: 68 80 8F 41 00     push        418F80h
  00412A1A: 68 F0 4A 41 00     push        offset __except_handler4_noexcept
  00412A1F: 64 A1 00 00 00 00  mov         eax,dword ptr fs:[00000000h]
  00412A25: 50                 push        eax
  00412A26: 83 EC 08           sub         esp,8
  00412A29: 53                 push        ebx
  00412A2A: 56                 push        esi
  00412A2B: 57                 push        edi
  00412A2C: A1 00 A0 41 00     mov         eax,dword ptr [___security_cookie]
  00412A31: 31 45 F8           xor         dword ptr [ebp-8],eax
  00412A34: 33 C5              xor         eax,ebp
  00412A36: 50                 push        eax
  00412A37: 8D 45 F0           lea         eax,[ebp-10h]
  00412A3A: 64 A3 00 00 00 00  mov         dword ptr fs:[00000000h],eax
  00412A40: 89 65 E8           mov         dword ptr [ebp-18h],esp
  00412A43: C7 45 FC 00 00 00  mov         dword ptr [ebp-4],0
            00
  00412A4A: FF 75 08           push        dword ptr [ebp+8]
  00412A4D: 6A 06              push        6
  00412A4F: 6A 00              push        0
  00412A51: 68 88 13 6D 40     push        406D1388h
  00412A56: FF 15 04 B0 41 00  call        dword ptr [__imp__RaiseException@16]
  00412A5C: EB 16              jmp         00412A74
  00412A5E: 8B 45 EC           mov         eax,dword ptr [ebp-14h]
  00412A61: 8B 00              mov         eax,dword ptr [eax]
  00412A63: 33 C9              xor         ecx,ecx
  00412A65: 81 38 88 13 6D 40  cmp         dword ptr [eax],406D1388h
  00412A6B: 0F 94 C1           sete        cl
  00412A6E: 8B C1              mov         eax,ecx
  00412A70: C3                 ret
  00412A71: 8B 65 E8           mov         esp,dword ptr [ebp-18h]
  00412A74: C7 45 FC FE FF FF  mov         dword ptr [ebp-4],0FFFFFFFEh
            FF
  00412A7B: 8B 4D F0           mov         ecx,dword ptr [ebp-10h]
  00412A7E: 64 89 0D 00 00 00  mov         dword ptr fs:[0],ecx
            00
  00412A85: 59                 pop         ecx
  00412A86: 5F                 pop         edi
  00412A87: 5E                 pop         esi
  00412A88: 5B                 pop         ebx
  00412A89: 8B E5              mov         esp,ebp
  00412A8B: 5D                 pop         ebp
  00412A8C: C3                 ret
  00412A8D: CC                 int         3
  00412A8E: CC                 int         3
  00412A8F: CC                 int         3
  00412A90: CC                 int         3
  00412A91: CC                 int         3
  00412A92: CC                 int         3
  00412A93: CC                 int         3
  00412A94: CC                 int         3
  00412A95: CC                 int         3
  00412A96: CC                 int         3
  00412A97: CC                 int         3
  00412A98: CC                 int         3
  00412A99: CC                 int         3
  00412A9A: CC                 int         3
  00412A9B: CC                 int         3
  00412A9C: CC                 int         3
  00412A9D: CC                 int         3
  00412A9E: CC                 int         3
  00412A9F: CC                 int         3
  00412AA0: CC                 int         3
  00412AA1: CC                 int         3
  00412AA2: CC                 int         3
  00412AA3: CC                 int         3
  00412AA4: CC                 int         3
  00412AA5: CC                 int         3
  00412AA6: CC                 int         3
  00412AA7: CC                 int         3
  00412AA8: CC                 int         3
  00412AA9: CC                 int         3
  00412AAA: CC                 int         3
  00412AAB: CC                 int         3
  00412AAC: CC                 int         3
  00412AAD: CC                 int         3
  00412AAE: CC                 int         3
  00412AAF: CC                 int         3
__RTC_UninitUse:
  00412AB0: 55                 push        ebp
  00412AB1: 8B EC              mov         ebp,esp
  00412AB3: 81 EC 04 04 00 00  sub         esp,404h
  00412AB9: A1 00 A0 41 00     mov         eax,dword ptr [___security_cookie]
  00412ABE: 33 C5              xor         eax,ebp
  00412AC0: 89 45 FC           mov         dword ptr [ebp-4],eax
  00412AC3: 56                 push        esi
  00412AC4: 8B 75 08           mov         esi,dword ptr [ebp+8]
  00412AC7: 57                 push        edi
  00412AC8: 8B 3D 18 A0 41 00  mov         edi,dword ptr ds:[41A018h]
  00412ACE: 83 FF FF           cmp         edi,0FFFFFFFFh
  00412AD1: 74 75              je          00412B48
  00412AD3: 85 F6              test        esi,esi
  00412AD5: 74 5C              je          00412B33
  00412AD7: 56                 push        esi
  00412AD8: E8 93 FC FF FF     call        00412770
  00412ADD: 83 C0 3A           add         eax,3Ah
  00412AE0: 83 C4 04           add         esp,4
  00412AE3: 3D 00 04 00 00     cmp         eax,400h
  00412AE8: 77 49              ja          00412B33
  00412AEA: 68 04 7C 41 00     push        417C04h
  00412AEF: 8D 85 FC FB FF FF  lea         eax,[ebp-404h]
  00412AF5: 68 00 04 00 00     push        400h
  00412AFA: 50                 push        eax
  00412AFB: E8 64 E5 FF FF     call        @ILT+95(_strcpy_s)
  00412B00: 56                 push        esi
  00412B01: 8D 85 FC FB FF FF  lea         eax,[ebp-404h]
  00412B07: 68 00 04 00 00     push        400h
  00412B0C: 50                 push        eax
  00412B0D: E8 5C E5 FF FF     call        @ILT+105(_strcat_s)
  00412B12: 68 14 7C 41 00     push        417C14h
  00412B17: 8D 85 FC FB FF FF  lea         eax,[ebp-404h]
  00412B1D: 68 00 04 00 00     push        400h
  00412B22: 50                 push        eax
  00412B23: E8 46 E5 FF FF     call        @ILT+105(_strcat_s)
  00412B28: 83 C4 24           add         esp,24h
  00412B2B: 8D 85 FC FB FF FF  lea         eax,[ebp-404h]
  00412B31: EB 05              jmp         00412B38
  00412B33: B8 20 82 41 00     mov         eax,offset ??_C@_0DE@OHJBPMBP@A?5variable?5is?5being?5used?5without@
  00412B38: 50                 push        eax
  00412B39: 8B 45 04           mov         eax,dword ptr [ebp+4]
  00412B3C: 6A 03              push        3
  00412B3E: 57                 push        edi
  00412B3F: 50                 push        eax
  00412B40: E8 4B FC FF FF     call        00412790
  00412B45: 83 C4 10           add         esp,10h
  00412B48: 8B 4D FC           mov         ecx,dword ptr [ebp-4]
  00412B4B: 5F                 pop         edi
  00412B4C: 33 CD              xor         ecx,ebp
  00412B4E: 5E                 pop         esi
  00412B4F: E8 3B E7 FF FF     call        @ILT+650(@__security_check_cookie@4)
  00412B54: 8B E5              mov         esp,ebp
  00412B56: 5D                 pop         ebp
  00412B57: C3                 ret
  00412B58: CC                 int         3
  00412B59: CC                 int         3
  00412B5A: CC                 int         3
  00412B5B: CC                 int         3
  00412B5C: CC                 int         3
  00412B5D: CC                 int         3
  00412B5E: CC                 int         3
  00412B5F: CC                 int         3
  00412B60: CC                 int         3
  00412B61: CC                 int         3
  00412B62: CC                 int         3
  00412B63: CC                 int         3
  00412B64: CC                 int         3
  00412B65: CC                 int         3
  00412B66: CC                 int         3
  00412B67: CC                 int         3
  00412B68: CC                 int         3
  00412B69: CC                 int         3
  00412B6A: CC                 int         3
  00412B6B: CC                 int         3
  00412B6C: CC                 int         3
  00412B6D: CC                 int         3
  00412B6E: CC                 int         3
  00412B6F: CC                 int         3
  00412B70: CC                 int         3
  00412B71: CC                 int         3
  00412B72: CC                 int         3
  00412B73: CC                 int         3
  00412B74: CC                 int         3
  00412B75: CC                 int         3
  00412B76: CC                 int         3
  00412B77: CC                 int         3
  00412B78: CC                 int         3
  00412B79: CC                 int         3
  00412B7A: CC                 int         3
  00412B7B: CC                 int         3
  00412B7C: CC                 int         3
  00412B7D: CC                 int         3
  00412B7E: CC                 int         3
  00412B7F: CC                 int         3
  00412B80: CC                 int         3
  00412B81: CC                 int         3
  00412B82: CC                 int         3
  00412B83: CC                 int         3
  00412B84: CC                 int         3
  00412B85: CC                 int         3
  00412B86: CC                 int         3
  00412B87: CC                 int         3
  00412B88: CC                 int         3
  00412B89: CC                 int         3
  00412B8A: CC                 int         3
  00412B8B: CC                 int         3
  00412B8C: CC                 int         3
  00412B8D: CC                 int         3
  00412B8E: CC                 int         3
  00412B8F: CC                 int         3
__vsprintf_s_l:
  00412B90: 55                 push        ebp
  00412B91: 8B EC              mov         ebp,esp
  00412B93: E8 BF E7 FF FF     call        @ILT+850(___local_stdio_printf_options)
  00412B98: FF 75 18           push        dword ptr [ebp+18h]
  00412B9B: FF 75 14           push        dword ptr [ebp+14h]
  00412B9E: FF 75 10           push        dword ptr [ebp+10h]
  00412BA1: FF 75 0C           push        dword ptr [ebp+0Ch]
  00412BA4: FF 75 08           push        dword ptr [ebp+8]
  00412BA7: FF 70 04           push        dword ptr [eax+4]
  00412BAA: FF 30              push        dword ptr [eax]
  00412BAC: E8 C1 E5 FF FF     call        @ILT+365(___stdio_common_vsprintf_s)
  00412BB1: 83 C4 1C           add         esp,1Ch
  00412BB4: 85 C0              test        eax,eax
  00412BB6: 79 03              jns         00412BBB
  00412BB8: 83 C8 FF           or          eax,0FFFFFFFFh
  00412BBB: 5D                 pop         ebp
  00412BBC: C3                 ret
  00412BBD: CC                 int         3
  00412BBE: CC                 int         3
  00412BBF: CC                 int         3
  00412BC0: CC                 int         3
  00412BC1: CC                 int         3
  00412BC2: CC                 int         3
  00412BC3: CC                 int         3
  00412BC4: CC                 int         3
  00412BC5: CC                 int         3
  00412BC6: CC                 int         3
  00412BC7: CC                 int         3
  00412BC8: CC                 int         3
  00412BC9: CC                 int         3
  00412BCA: CC                 int         3
  00412BCB: CC                 int         3
  00412BCC: CC                 int         3
  00412BCD: CC                 int         3
  00412BCE: CC                 int         3
  00412BCF: CC                 int         3
_sprintf_s:
  00412BD0: 55                 push        ebp
  00412BD1: 8B EC              mov         ebp,esp
  00412BD3: 8D 45 14           lea         eax,[ebp+14h]
  00412BD6: 50                 push        eax
  00412BD7: 6A 00              push        0
  00412BD9: FF 75 10           push        dword ptr [ebp+10h]
  00412BDC: FF 75 0C           push        dword ptr [ebp+0Ch]
  00412BDF: FF 75 08           push        dword ptr [ebp+8]
  00412BE2: E8 72 E5 FF FF     call        @ILT+340(__vsprintf_s_l)
  00412BE7: 83 C4 14           add         esp,14h
  00412BEA: 5D                 pop         ebp
  00412BEB: C3                 ret
  00412BEC: CC                 int         3
  00412BED: CC                 int         3
  00412BEE: CC                 int         3
  00412BEF: CC                 int         3
  00412BF0: CC                 int         3
  00412BF1: CC                 int         3
  00412BF2: CC                 int         3
  00412BF3: CC                 int         3
  00412BF4: CC                 int         3
  00412BF5: CC                 int         3
  00412BF6: CC                 int         3
  00412BF7: CC                 int         3
  00412BF8: CC                 int         3
  00412BF9: CC                 int         3
  00412BFA: CC                 int         3
  00412BFB: CC                 int         3
  00412BFC: CC                 int         3
  00412BFD: CC                 int         3
  00412BFE: CC                 int         3
  00412BFF: CC                 int         3
___raise_securityfailure:
  00412C00: 55                 push        ebp
  00412C01: 8B EC              mov         ebp,esp
  00412C03: 6A 00              push        0
  00412C05: FF 15 14 B0 41 00  call        dword ptr [__imp__SetUnhandledExceptionFilter@4]
  00412C0B: 8B 45 08           mov         eax,dword ptr [ebp+8]
  00412C0E: 50                 push        eax
  00412C0F: FF 15 10 B0 41 00  call        dword ptr [__imp__UnhandledExceptionFilter@4]
  00412C15: 68 09 04 00 C0     push        0C0000409h
  00412C1A: FF 15 58 B0 41 00  call        dword ptr [__imp__GetCurrentProcess@0]
  00412C20: 50                 push        eax
  00412C21: FF 15 54 B0 41 00  call        dword ptr [__imp__TerminateProcess@8]
  00412C27: 5D                 pop         ebp
  00412C28: C3                 ret
  00412C29: CC                 int         3
  00412C2A: CC                 int         3
  00412C2B: CC                 int         3
  00412C2C: CC                 int         3
  00412C2D: CC                 int         3
  00412C2E: CC                 int         3
  00412C2F: CC                 int         3
  00412C30: CC                 int         3
  00412C31: CC                 int         3
  00412C32: CC                 int         3
  00412C33: CC                 int         3
  00412C34: CC                 int         3
  00412C35: CC                 int         3
  00412C36: CC                 int         3
  00412C37: CC                 int         3
  00412C38: CC                 int         3
  00412C39: CC                 int         3
  00412C3A: CC                 int         3
  00412C3B: CC                 int         3
  00412C3C: CC                 int         3
  00412C3D: CC                 int         3
  00412C3E: CC                 int         3
  00412C3F: CC                 int         3
___report_gsfailure:
  00412C40: 55                 push        ebp
  00412C41: 8B EC              mov         ebp,esp
  00412C43: 81 EC 24 03 00 00  sub         esp,324h
  00412C49: 6A 17              push        17h
  00412C4B: E8 BC E6 FF FF     call        @ILT+775(_IsProcessorFeaturePresent@4)
  00412C50: 85 C0              test        eax,eax
  00412C52: 74 07              je          00412C5B
  00412C54: B9 02 00 00 00     mov         ecx,2
  00412C59: CD 29              int         29h
  00412C5B: A3 50 A2 41 00     mov         dword ptr ds:[0041A250h],eax
  00412C60: 89 0D 4C A2 41 00  mov         dword ptr ds:[41A24Ch],ecx
  00412C66: 89 15 48 A2 41 00  mov         dword ptr ds:[41A248h],edx
  00412C6C: 89 1D 44 A2 41 00  mov         dword ptr ds:[41A244h],ebx
  00412C72: 89 35 40 A2 41 00  mov         dword ptr ds:[41A240h],esi
  00412C78: 89 3D 3C A2 41 00  mov         dword ptr ds:[41A23Ch],edi
  00412C7E: 66 8C 15 68 A2 41  mov         word ptr ds:[41A268h],ss
            00
  00412C85: 66 8C 0D 5C A2 41  mov         word ptr ds:[41A25Ch],cs
            00
  00412C8C: 66 8C 1D 38 A2 41  mov         word ptr ds:[41A238h],ds
            00
  00412C93: 66 8C 05 34 A2 41  mov         word ptr ds:[41A234h],es
            00
  00412C9A: 66 8C 25 30 A2 41  mov         word ptr ds:[41A230h],fs
            00
  00412CA1: 66 8C 2D 2C A2 41  mov         word ptr ds:[41A22Ch],gs
            00
  00412CA8: 9C                 pushfd
  00412CA9: 8F 05 60 A2 41 00  pop         dword ptr ds:[41A260h]
  00412CAF: 8B 45 00           mov         eax,dword ptr [ebp]
  00412CB2: A3 54 A2 41 00     mov         dword ptr ds:[0041A254h],eax
  00412CB7: 8B 45 04           mov         eax,dword ptr [ebp+4]
  00412CBA: A3 58 A2 41 00     mov         dword ptr ds:[0041A258h],eax
  00412CBF: 8D 45 08           lea         eax,[ebp+8]
  00412CC2: A3 64 A2 41 00     mov         dword ptr ds:[0041A264h],eax
  00412CC7: 8B 85 DC FC FF FF  mov         eax,dword ptr [ebp-324h]
  00412CCD: C7 05 A0 A1 41 00  mov         dword ptr ds:[41A1A0h],10001h
            01 00 01 00
  00412CD7: A1 58 A2 41 00     mov         eax,dword ptr ds:[0041A258h]
  00412CDC: A3 5C A1 41 00     mov         dword ptr ds:[0041A15Ch],eax
  00412CE1: C7 05 50 A1 41 00  mov         dword ptr ds:[41A150h],0C0000409h
            09 04 00 C0
  00412CEB: C7 05 54 A1 41 00  mov         dword ptr ds:[41A154h],1
            01 00 00 00
  00412CF5: C7 05 60 A1 41 00  mov         dword ptr ds:[41A160h],1
            01 00 00 00
  00412CFF: B9 04 00 00 00     mov         ecx,4
  00412D04: 6B D1 00           imul        edx,ecx,0
  00412D07: C7 82 64 A1 41 00  mov         dword ptr [edx+41A164h],2
            02 00 00 00
  00412D11: B8 04 00 00 00     mov         eax,4
  00412D16: 6B C8 00           imul        ecx,eax,0
  00412D19: 8B 15 00 A0 41 00  mov         edx,dword ptr [___security_cookie]
  00412D1F: 89 54 0D F8        mov         dword ptr [ebp+ecx-8],edx
  00412D23: B8 04 00 00 00     mov         eax,4
  00412D28: C1 E0 00           shl         eax,0
  00412D2B: 8B 0D 04 A0 41 00  mov         ecx,dword ptr [___security_cookie_complement]
  00412D31: 89 4C 05 F8        mov         dword ptr [ebp+eax-8],ecx
  00412D35: 68 60 82 41 00     push        418260h
  00412D3A: E8 A6 E4 FF FF     call        @ILT+480(___raise_securityfailure)
  00412D3F: 8B E5              mov         esp,ebp
  00412D41: 5D                 pop         ebp
  00412D42: C3                 ret
  00412D43: CC                 int         3
  00412D44: CC                 int         3
  00412D45: CC                 int         3
  00412D46: CC                 int         3
  00412D47: CC                 int         3
  00412D48: CC                 int         3
  00412D49: CC                 int         3
  00412D4A: CC                 int         3
  00412D4B: CC                 int         3
  00412D4C: CC                 int         3
  00412D4D: CC                 int         3
  00412D4E: CC                 int         3
  00412D4F: CC                 int         3
  00412D50: CC                 int         3
  00412D51: CC                 int         3
  00412D52: CC                 int         3
  00412D53: CC                 int         3
  00412D54: CC                 int         3
  00412D55: CC                 int         3
  00412D56: CC                 int         3
  00412D57: CC                 int         3
  00412D58: CC                 int         3
  00412D59: CC                 int         3
  00412D5A: CC                 int         3
  00412D5B: CC                 int         3
  00412D5C: CC                 int         3
  00412D5D: CC                 int         3
  00412D5E: CC                 int         3
  00412D5F: CC                 int         3
  00412D60: CC                 int         3
  00412D61: CC                 int         3
  00412D62: CC                 int         3
  00412D63: CC                 int         3
  00412D64: CC                 int         3
  00412D65: CC                 int         3
  00412D66: CC                 int         3
  00412D67: CC                 int         3
  00412D68: CC                 int         3
  00412D69: CC                 int         3
  00412D6A: CC                 int         3
  00412D6B: CC                 int         3
  00412D6C: CC                 int         3
  00412D6D: CC                 int         3
  00412D6E: CC                 int         3
  00412D6F: CC                 int         3
  00412D70: CC                 int         3
  00412D71: CC                 int         3
  00412D72: CC                 int         3
  00412D73: CC                 int         3
  00412D74: CC                 int         3
  00412D75: CC                 int         3
  00412D76: CC                 int         3
  00412D77: CC                 int         3
  00412D78: CC                 int         3
  00412D79: CC                 int         3
  00412D7A: CC                 int         3
  00412D7B: CC                 int         3
  00412D7C: CC                 int         3
  00412D7D: CC                 int         3
  00412D7E: CC                 int         3
  00412D7F: CC                 int         3
  00412D80: CC                 int         3
  00412D81: CC                 int         3
  00412D82: CC                 int         3
  00412D83: CC                 int         3
  00412D84: CC                 int         3
  00412D85: CC                 int         3
  00412D86: CC                 int         3
  00412D87: CC                 int         3
  00412D88: CC                 int         3
  00412D89: CC                 int         3
  00412D8A: CC                 int         3
  00412D8B: CC                 int         3
  00412D8C: CC                 int         3
  00412D8D: CC                 int         3
  00412D8E: CC                 int         3
  00412D8F: CC                 int         3
___report_rangecheckfailure:
  00412D90: 55                 push        ebp
  00412D91: 8B EC              mov         ebp,esp
  00412D93: 6A 08              push        8
  00412D95: E8 60 E3 FF FF     call        @ILT+245(___report_securityfailure)
  00412D9A: 5D                 pop         ebp
  00412D9B: C3                 ret
  00412D9C: CC                 int         3
  00412D9D: CC                 int         3
  00412D9E: CC                 int         3
  00412D9F: CC                 int         3
___report_securityfailure:
  00412DA0: 55                 push        ebp
  00412DA1: 8B EC              mov         ebp,esp
  00412DA3: 81 EC 1C 03 00 00  sub         esp,31Ch
  00412DA9: 6A 17              push        17h
  00412DAB: E8 5C E5 FF FF     call        @ILT+775(_IsProcessorFeaturePresent@4)
  00412DB0: 85 C0              test        eax,eax
  00412DB2: 74 05              je          00412DB9
  00412DB4: 8B 4D 08           mov         ecx,dword ptr [ebp+8]
  00412DB7: CD 29              int         29h
  00412DB9: A3 50 A2 41 00     mov         dword ptr ds:[0041A250h],eax
  00412DBE: 89 0D 4C A2 41 00  mov         dword ptr ds:[41A24Ch],ecx
  00412DC4: 89 15 48 A2 41 00  mov         dword ptr ds:[41A248h],edx
  00412DCA: 89 1D 44 A2 41 00  mov         dword ptr ds:[41A244h],ebx
  00412DD0: 89 35 40 A2 41 00  mov         dword ptr ds:[41A240h],esi
  00412DD6: 89 3D 3C A2 41 00  mov         dword ptr ds:[41A23Ch],edi
  00412DDC: 66 8C 15 68 A2 41  mov         word ptr ds:[41A268h],ss
            00
  00412DE3: 66 8C 0D 5C A2 41  mov         word ptr ds:[41A25Ch],cs
            00
  00412DEA: 66 8C 1D 38 A2 41  mov         word ptr ds:[41A238h],ds
            00
  00412DF1: 66 8C 05 34 A2 41  mov         word ptr ds:[41A234h],es
            00
  00412DF8: 66 8C 25 30 A2 41  mov         word ptr ds:[41A230h],fs
            00
  00412DFF: 66 8C 2D 2C A2 41  mov         word ptr ds:[41A22Ch],gs
            00
  00412E06: 9C                 pushfd
  00412E07: 8F 05 60 A2 41 00  pop         dword ptr ds:[41A260h]
  00412E0D: 8B 45 00           mov         eax,dword ptr [ebp]
  00412E10: A3 54 A2 41 00     mov         dword ptr ds:[0041A254h],eax
  00412E15: 8B 45 04           mov         eax,dword ptr [ebp+4]
  00412E18: A3 58 A2 41 00     mov         dword ptr ds:[0041A258h],eax
  00412E1D: 8D 45 08           lea         eax,[ebp+8]
  00412E20: A3 64 A2 41 00     mov         dword ptr ds:[0041A264h],eax
  00412E25: 8B 85 E4 FC FF FF  mov         eax,dword ptr [ebp-31Ch]
  00412E2B: A1 58 A2 41 00     mov         eax,dword ptr ds:[0041A258h]
  00412E30: A3 5C A1 41 00     mov         dword ptr ds:[0041A15Ch],eax
  00412E35: C7 05 50 A1 41 00  mov         dword ptr ds:[41A150h],0C0000409h
            09 04 00 C0
  00412E3F: C7 05 54 A1 41 00  mov         dword ptr ds:[41A154h],1
            01 00 00 00
  00412E49: C7 05 60 A1 41 00  mov         dword ptr ds:[41A160h],1
            01 00 00 00
  00412E53: B9 04 00 00 00     mov         ecx,4
  00412E58: 6B D1 00           imul        edx,ecx,0
  00412E5B: 8B 45 08           mov         eax,dword ptr [ebp+8]
  00412E5E: 89 82 64 A1 41 00  mov         dword ptr [edx+41A164h],eax
  00412E64: 68 60 82 41 00     push        418260h
  00412E69: E8 77 E3 FF FF     call        @ILT+480(___raise_securityfailure)
  00412E6E: 8B E5              mov         esp,ebp
  00412E70: 5D                 pop         ebp
  00412E71: C3                 ret
  00412E72: CC                 int         3
  00412E73: CC                 int         3
  00412E74: CC                 int         3
  00412E75: CC                 int         3
  00412E76: CC                 int         3
  00412E77: CC                 int         3
  00412E78: CC                 int         3
  00412E79: CC                 int         3
  00412E7A: CC                 int         3
  00412E7B: CC                 int         3
  00412E7C: CC                 int         3
  00412E7D: CC                 int         3
  00412E7E: CC                 int         3
  00412E7F: CC                 int         3
  00412E80: CC                 int         3
  00412E81: CC                 int         3
  00412E82: CC                 int         3
  00412E83: CC                 int         3
  00412E84: CC                 int         3
  00412E85: CC                 int         3
  00412E86: CC                 int         3
  00412E87: CC                 int         3
  00412E88: CC                 int         3
  00412E89: CC                 int         3
  00412E8A: CC                 int         3
  00412E8B: CC                 int         3
  00412E8C: CC                 int         3
  00412E8D: CC                 int         3
  00412E8E: CC                 int         3
  00412E8F: CC                 int         3
  00412E90: CC                 int         3
  00412E91: CC                 int         3
  00412E92: CC                 int         3
  00412E93: CC                 int         3
  00412E94: CC                 int         3
  00412E95: CC                 int         3
  00412E96: CC                 int         3
  00412E97: CC                 int         3
  00412E98: CC                 int         3
  00412E99: CC                 int         3
  00412E9A: CC                 int         3
  00412E9B: CC                 int         3
  00412E9C: CC                 int         3
  00412E9D: CC                 int         3
  00412E9E: CC                 int         3
  00412E9F: CC                 int         3
  00412EA0: CC                 int         3
  00412EA1: CC                 int         3
  00412EA2: CC                 int         3
  00412EA3: CC                 int         3
  00412EA4: CC                 int         3
  00412EA5: CC                 int         3
  00412EA6: CC                 int         3
  00412EA7: CC                 int         3
  00412EA8: CC                 int         3
  00412EA9: CC                 int         3
  00412EAA: CC                 int         3
  00412EAB: CC                 int         3
  00412EAC: CC                 int         3
  00412EAD: CC                 int         3
  00412EAE: CC                 int         3
  00412EAF: CC                 int         3
___report_securityfailureEx:
  00412EB0: 55                 push        ebp
  00412EB1: 8B EC              mov         ebp,esp
  00412EB3: 81 EC 20 03 00 00  sub         esp,320h
  00412EB9: 6A 17              push        17h
  00412EBB: E8 4C E4 FF FF     call        @ILT+775(_IsProcessorFeaturePresent@4)
  00412EC0: 85 C0              test        eax,eax
  00412EC2: 74 05              je          00412EC9
  00412EC4: 8B 4D 08           mov         ecx,dword ptr [ebp+8]
  00412EC7: CD 29              int         29h
  00412EC9: A3 50 A2 41 00     mov         dword ptr ds:[0041A250h],eax
  00412ECE: 89 0D 4C A2 41 00  mov         dword ptr ds:[41A24Ch],ecx
  00412ED4: 89 15 48 A2 41 00  mov         dword ptr ds:[41A248h],edx
  00412EDA: 89 1D 44 A2 41 00  mov         dword ptr ds:[41A244h],ebx
  00412EE0: 89 35 40 A2 41 00  mov         dword ptr ds:[41A240h],esi
  00412EE6: 89 3D 3C A2 41 00  mov         dword ptr ds:[41A23Ch],edi
  00412EEC: 66 8C 15 68 A2 41  mov         word ptr ds:[41A268h],ss
            00
  00412EF3: 66 8C 0D 5C A2 41  mov         word ptr ds:[41A25Ch],cs
            00
  00412EFA: 66 8C 1D 38 A2 41  mov         word ptr ds:[41A238h],ds
            00
  00412F01: 66 8C 05 34 A2 41  mov         word ptr ds:[41A234h],es
            00
  00412F08: 66 8C 25 30 A2 41  mov         word ptr ds:[41A230h],fs
            00
  00412F0F: 66 8C 2D 2C A2 41  mov         word ptr ds:[41A22Ch],gs
            00
  00412F16: 9C                 pushfd
  00412F17: 8F 05 60 A2 41 00  pop         dword ptr ds:[41A260h]
  00412F1D: 8B 45 00           mov         eax,dword ptr [ebp]
  00412F20: A3 54 A2 41 00     mov         dword ptr ds:[0041A254h],eax
  00412F25: 8B 45 04           mov         eax,dword ptr [ebp+4]
  00412F28: A3 58 A2 41 00     mov         dword ptr ds:[0041A258h],eax
  00412F2D: 8D 45 08           lea         eax,[ebp+8]
  00412F30: A3 64 A2 41 00     mov         dword ptr ds:[0041A264h],eax
  00412F35: 8B 85 E0 FC FF FF  mov         eax,dword ptr [ebp-320h]
  00412F3B: A1 58 A2 41 00     mov         eax,dword ptr ds:[0041A258h]
  00412F40: A3 5C A1 41 00     mov         dword ptr ds:[0041A15Ch],eax
  00412F45: C7 05 50 A1 41 00  mov         dword ptr ds:[41A150h],0C0000409h
            09 04 00 C0
  00412F4F: C7 05 54 A1 41 00  mov         dword ptr ds:[41A154h],1
            01 00 00 00
  00412F59: 83 7D 0C 00        cmp         dword ptr [ebp+0Ch],0
  00412F5D: 76 0D              jbe         00412F6C
  00412F5F: 83 7D 10 00        cmp         dword ptr [ebp+10h],0
  00412F63: 75 07              jne         00412F6C
  00412F65: C7 45 0C 00 00 00  mov         dword ptr [ebp+0Ch],0
            00
  00412F6C: 83 7D 0C 0E        cmp         dword ptr [ebp+0Ch],0Eh
  00412F70: 76 09              jbe         00412F7B
  00412F72: 8B 4D 0C           mov         ecx,dword ptr [ebp+0Ch]
  00412F75: 83 E9 01           sub         ecx,1
  00412F78: 89 4D 0C           mov         dword ptr [ebp+0Ch],ecx
  00412F7B: 8B 55 0C           mov         edx,dword ptr [ebp+0Ch]
  00412F7E: 83 C2 01           add         edx,1
  00412F81: 89 15 60 A1 41 00  mov         dword ptr ds:[41A160h],edx
  00412F87: B8 04 00 00 00     mov         eax,4
  00412F8C: 6B C8 00           imul        ecx,eax,0
  00412F8F: 8B 55 08           mov         edx,dword ptr [ebp+8]
  00412F92: 89 91 64 A1 41 00  mov         dword ptr [ecx+41A164h],edx
  00412F98: C7 45 FC 00 00 00  mov         dword ptr [ebp-4],0
            00
  00412F9F: EB 09              jmp         00412FAA
  00412FA1: 8B 45 FC           mov         eax,dword ptr [ebp-4]
  00412FA4: 83 C0 01           add         eax,1
  00412FA7: 89 45 FC           mov         dword ptr [ebp-4],eax
  00412FAA: 8B 4D FC           mov         ecx,dword ptr [ebp-4]
  00412FAD: 3B 4D 0C           cmp         ecx,dword ptr [ebp+0Ch]
  00412FB0: 73 15              jae         00412FC7
  00412FB2: 8B 55 FC           mov         edx,dword ptr [ebp-4]
  00412FB5: 8B 45 FC           mov         eax,dword ptr [ebp-4]
  00412FB8: 8B 4D 10           mov         ecx,dword ptr [ebp+10h]
  00412FBB: 8B 04 81           mov         eax,dword ptr [ecx+eax*4]
  00412FBE: 89 04 95 68 A1 41  mov         dword ptr [edx*4+41A168h],eax
            00
  00412FC5: EB DA              jmp         00412FA1
  00412FC7: 68 60 82 41 00     push        418260h
  00412FCC: E8 14 E2 FF FF     call        @ILT+480(___raise_securityfailure)
  00412FD1: 8B E5              mov         esp,ebp
  00412FD3: 5D                 pop         ebp
  00412FD4: C3                 ret
  00412FD5: CC                 int         3
  00412FD6: CC                 int         3
  00412FD7: CC                 int         3
  00412FD8: CC                 int         3
  00412FD9: CC                 int         3
  00412FDA: CC                 int         3
  00412FDB: CC                 int         3
  00412FDC: CC                 int         3
  00412FDD: CC                 int         3
  00412FDE: CC                 int         3
  00412FDF: CC                 int         3
  00412FE0: CC                 int         3
  00412FE1: CC                 int         3
  00412FE2: CC                 int         3
  00412FE3: CC                 int         3
  00412FE4: CC                 int         3
  00412FE5: CC                 int         3
  00412FE6: CC                 int         3
  00412FE7: CC                 int         3
  00412FE8: CC                 int         3
  00412FE9: CC                 int         3
  00412FEA: CC                 int         3
  00412FEB: CC                 int         3
  00412FEC: CC                 int         3
  00412FED: CC                 int         3
  00412FEE: CC                 int         3
  00412FEF: CC                 int         3
  00412FF0: CC                 int         3
  00412FF1: CC                 int         3
  00412FF2: CC                 int         3
  00412FF3: CC                 int         3
  00412FF4: CC                 int         3
  00412FF5: CC                 int         3
  00412FF6: CC                 int         3
  00412FF7: CC                 int         3
  00412FF8: CC                 int         3
  00412FF9: CC                 int         3
  00412FFA: CC                 int         3
  00412FFB: CC                 int         3
  00412FFC: CC                 int         3
  00412FFD: CC                 int         3
  00412FFE: CC                 int         3
  00412FFF: CC                 int         3
  00413000: CC                 int         3
  00413001: CC                 int         3
  00413002: CC                 int         3
  00413003: CC                 int         3
  00413004: CC                 int         3
  00413005: CC                 int         3
  00413006: CC                 int         3
  00413007: CC                 int         3
  00413008: CC                 int         3
  00413009: CC                 int         3
  0041300A: CC                 int         3
  0041300B: CC                 int         3
  0041300C: CC                 int         3
  0041300D: CC                 int         3
  0041300E: CC                 int         3
  0041300F: CC                 int         3
  00413010: CC                 int         3
  00413011: CC                 int         3
  00413012: CC                 int         3
  00413013: CC                 int         3
  00413014: CC                 int         3
  00413015: CC                 int         3
  00413016: CC                 int         3
  00413017: CC                 int         3
  00413018: CC                 int         3
  00413019: CC                 int         3
  0041301A: CC                 int         3
  0041301B: CC                 int         3
  0041301C: CC                 int         3
  0041301D: CC                 int         3
  0041301E: CC                 int         3
  0041301F: CC                 int         3
?_RTC_GetErrorFunc@@YAP6AHHPBDH00ZZPBX@Z:
  00413020: A1 0C A5 41 00     mov         eax,dword ptr ds:[0041A50Ch]
  00413025: C3                 ret
  00413026: CC                 int         3
  00413027: CC                 int         3
  00413028: CC                 int         3
  00413029: CC                 int         3
  0041302A: CC                 int         3
  0041302B: CC                 int         3
  0041302C: CC                 int         3
  0041302D: CC                 int         3
  0041302E: CC                 int         3
  0041302F: CC                 int         3
?_RTC_GetErrorFuncW@@YAP6AHHPB_WH00ZZPBX@Z:
  00413030: A1 10 A5 41 00     mov         eax,dword ptr ds:[0041A510h]
  00413035: C3                 ret
  00413036: CC                 int         3
  00413037: CC                 int         3
  00413038: CC                 int         3
  00413039: CC                 int         3
  0041303A: CC                 int         3
  0041303B: CC                 int         3
  0041303C: CC                 int         3
  0041303D: CC                 int         3
  0041303E: CC                 int         3
  0041303F: CC                 int         3
__RTC_GetErrDesc:
  00413040: 55                 push        ebp
  00413041: 8B EC              mov         ebp,esp
  00413043: 8B 45 08           mov         eax,dword ptr [ebp+8]
  00413046: 83 F8 04           cmp         eax,4
  00413049: 77 09              ja          00413054
  0041304B: 8B 04 85 6C 82 41  mov         eax,dword ptr [eax*4+41826Ch]
            00
  00413052: 5D                 pop         ebp
  00413053: C3                 ret
  00413054: 33 C0              xor         eax,eax
  00413056: 5D                 pop         ebp
  00413057: C3                 ret
  00413058: CC                 int         3
  00413059: CC                 int         3
  0041305A: CC                 int         3
  0041305B: CC                 int         3
  0041305C: CC                 int         3
  0041305D: CC                 int         3
  0041305E: CC                 int         3
  0041305F: CC                 int         3
__RTC_NumErrors:
  00413060: B8 05 00 00 00     mov         eax,5
  00413065: C3                 ret
  00413066: CC                 int         3
  00413067: CC                 int         3
  00413068: CC                 int         3
  00413069: CC                 int         3
  0041306A: CC                 int         3
  0041306B: CC                 int         3
  0041306C: CC                 int         3
  0041306D: CC                 int         3
  0041306E: CC                 int         3
  0041306F: CC                 int         3
__RTC_SetErrorFunc:
  00413070: 55                 push        ebp
  00413071: 8B EC              mov         ebp,esp
  00413073: A1 0C A5 41 00     mov         eax,dword ptr ds:[0041A50Ch]
  00413078: 8B 4D 08           mov         ecx,dword ptr [ebp+8]
  0041307B: 89 0D 0C A5 41 00  mov         dword ptr ds:[41A50Ch],ecx
  00413081: C7 05 10 A5 41 00  mov         dword ptr ds:[41A510h],0
            00 00 00 00
  0041308B: 5D                 pop         ebp
  0041308C: C3                 ret
  0041308D: CC                 int         3
  0041308E: CC                 int         3
  0041308F: CC                 int         3
  00413090: CC                 int         3
  00413091: CC                 int         3
  00413092: CC                 int         3
  00413093: CC                 int         3
  00413094: CC                 int         3
  00413095: CC                 int         3
  00413096: CC                 int         3
  00413097: CC                 int         3
  00413098: CC                 int         3
  00413099: CC                 int         3
  0041309A: CC                 int         3
  0041309B: CC                 int         3
  0041309C: CC                 int         3
  0041309D: CC                 int         3
  0041309E: CC                 int         3
  0041309F: CC                 int         3
__RTC_SetErrorFuncW:
  004130A0: 55                 push        ebp
  004130A1: 8B EC              mov         ebp,esp
  004130A3: A1 10 A5 41 00     mov         eax,dword ptr ds:[0041A510h]
  004130A8: 8B 4D 08           mov         ecx,dword ptr [ebp+8]
  004130AB: 89 0D 10 A5 41 00  mov         dword ptr ds:[41A510h],ecx
  004130B1: C7 05 0C A5 41 00  mov         dword ptr ds:[41A50Ch],0
            00 00 00 00
  004130BB: 5D                 pop         ebp
  004130BC: C3                 ret
  004130BD: CC                 int         3
  004130BE: CC                 int         3
  004130BF: CC                 int         3
  004130C0: CC                 int         3
  004130C1: CC                 int         3
  004130C2: CC                 int         3
  004130C3: CC                 int         3
  004130C4: CC                 int         3
  004130C5: CC                 int         3
  004130C6: CC                 int         3
  004130C7: CC                 int         3
  004130C8: CC                 int         3
  004130C9: CC                 int         3
  004130CA: CC                 int         3
  004130CB: CC                 int         3
  004130CC: CC                 int         3
  004130CD: CC                 int         3
  004130CE: CC                 int         3
  004130CF: CC                 int         3
__RTC_SetErrorType:
  004130D0: 55                 push        ebp
  004130D1: 8B EC              mov         ebp,esp
  004130D3: 8B 55 08           mov         edx,dword ptr [ebp+8]
  004130D6: 83 FA 04           cmp         edx,4
  004130D9: 77 13              ja          004130EE
  004130DB: 8B 04 95 0C A0 41  mov         eax,dword ptr ?_RTC_ErrorLevels@@3PAHA[edx*4]
            00
  004130E2: 8B 4D 0C           mov         ecx,dword ptr [ebp+0Ch]
  004130E5: 89 0C 95 0C A0 41  mov         dword ptr ?_RTC_ErrorLevels@@3PAHA[edx*4],ecx
            00
  004130EC: 5D                 pop         ebp
  004130ED: C3                 ret
  004130EE: 83 C8 FF           or          eax,0FFFFFFFFh
  004130F1: 5D                 pop         ebp
  004130F2: C3                 ret
  004130F3: CC                 int         3
  004130F4: CC                 int         3
  004130F5: CC                 int         3
  004130F6: CC                 int         3
  004130F7: CC                 int         3
  004130F8: CC                 int         3
  004130F9: CC                 int         3
  004130FA: CC                 int         3
  004130FB: CC                 int         3
  004130FC: CC                 int         3
  004130FD: CC                 int         3
  004130FE: CC                 int         3
  004130FF: CC                 int         3
??$__crt_fast_decode_pointer@PAP6AXXZ@@YAPAP6AXXZQAP6AXXZ@Z:
  00413100: 55                 push        ebp
  00413101: 8B EC              mov         ebp,esp
  00413103: A1 00 A0 41 00     mov         eax,dword ptr [___security_cookie]
  00413108: 33 D2              xor         edx,edx
  0041310A: B9 20 00 00 00     mov         ecx,20h
  0041310F: F7 F1              div         eax,ecx
  00413111: 52                 push        edx
  00413112: 8B 55 08           mov         edx,dword ptr [ebp+8]
  00413115: 33 15 00 A0 41 00  xor         edx,dword ptr [___security_cookie]
  0041311B: 52                 push        edx
  0041311C: E8 97 E0 FF FF     call        @ILT+435(?__crt_rotate_pointer_value@@YAIIH@Z)
  00413121: 83 C4 08           add         esp,8
  00413124: 5D                 pop         ebp
  00413125: C3                 ret
  00413126: CC                 int         3
  00413127: CC                 int         3
  00413128: CC                 int         3
  00413129: CC                 int         3
  0041312A: CC                 int         3
  0041312B: CC                 int         3
  0041312C: CC                 int         3
  0041312D: CC                 int         3
  0041312E: CC                 int         3
  0041312F: CC                 int         3
??$__crt_fast_encode_pointer@PAP6AXXZ@@YAPAP6AXXZQAP6AXXZ@Z:
  00413130: 55                 push        ebp
  00413131: 8B EC              mov         ebp,esp
  00413133: A1 00 A0 41 00     mov         eax,dword ptr [___security_cookie]
  00413138: 33 D2              xor         edx,edx
  0041313A: B9 20 00 00 00     mov         ecx,20h
  0041313F: F7 F1              div         eax,ecx
  00413141: B8 20 00 00 00     mov         eax,20h
  00413146: 2B C2              sub         eax,edx
  00413148: 50                 push        eax
  00413149: 8B 4D 08           mov         ecx,dword ptr [ebp+8]
  0041314C: 51                 push        ecx
  0041314D: E8 66 E0 FF FF     call        @ILT+435(?__crt_rotate_pointer_value@@YAIIH@Z)
  00413152: 83 C4 08           add         esp,8
  00413155: 33 05 00 A0 41 00  xor         eax,dword ptr [___security_cookie]
  0041315B: 5D                 pop         ebp
  0041315C: C3                 ret
  0041315D: CC                 int         3
  0041315E: CC                 int         3
  0041315F: CC                 int         3
  00413160: CC                 int         3
  00413161: CC                 int         3
  00413162: CC                 int         3
  00413163: CC                 int         3
  00413164: CC                 int         3
  00413165: CC                 int         3
  00413166: CC                 int         3
  00413167: CC                 int         3
  00413168: CC                 int         3
  00413169: CC                 int         3
  0041316A: CC                 int         3
  0041316B: CC                 int         3
  0041316C: CC                 int         3
  0041316D: CC                 int         3
  0041316E: CC                 int         3
  0041316F: CC                 int         3
?__crt_rotate_pointer_value@@YAIIH@Z:
  00413170: 55                 push        ebp
  00413171: 8B EC              mov         ebp,esp
  00413173: 8B 45 08           mov         eax,dword ptr [ebp+8]
  00413176: 8B 4D 0C           mov         ecx,dword ptr [ebp+0Ch]
  00413179: D3 C8              ror         eax,cl
  0041317B: 5D                 pop         ebp
  0041317C: C3                 ret
  0041317D: CC                 int         3
  0041317E: CC                 int         3
  0041317F: CC                 int         3
  00413180: 55                 push        ebp
  00413181: 8B EC              mov         ebp,esp
  00413183: 83 EC 18           sub         esp,18h
  00413186: 8B 45 08           mov         eax,dword ptr [ebp+8]
  00413189: 89 45 F4           mov         dword ptr [ebp-0Ch],eax
  0041318C: 8B 4D F4           mov         ecx,dword ptr [ebp-0Ch]
  0041318F: 8B 55 F4           mov         edx,dword ptr [ebp-0Ch]
  00413192: 03 51 3C           add         edx,dword ptr [ecx+3Ch]
  00413195: 89 55 EC           mov         dword ptr [ebp-14h],edx
  00413198: 8B 45 EC           mov         eax,dword ptr [ebp-14h]
  0041319B: 89 45 F8           mov         dword ptr [ebp-8],eax
  0041319E: 8B 4D F8           mov         ecx,dword ptr [ebp-8]
  004131A1: 0F B7 51 14        movzx       edx,word ptr [ecx+14h]
  004131A5: 8B 45 F8           mov         eax,dword ptr [ebp-8]
  004131A8: 8D 4C 10 18        lea         ecx,[eax+edx+18h]
  004131AC: 89 4D F0           mov         dword ptr [ebp-10h],ecx
  004131AF: 8B 55 F8           mov         edx,dword ptr [ebp-8]
  004131B2: 0F B7 42 06        movzx       eax,word ptr [edx+6]
  004131B6: 6B C8 28           imul        ecx,eax,28h
  004131B9: 03 4D F0           add         ecx,dword ptr [ebp-10h]
  004131BC: 89 4D E8           mov         dword ptr [ebp-18h],ecx
  004131BF: 8B 55 F0           mov         edx,dword ptr [ebp-10h]
  004131C2: 89 55 FC           mov         dword ptr [ebp-4],edx
  004131C5: EB 09              jmp         004131D0
  004131C7: 8B 45 FC           mov         eax,dword ptr [ebp-4]
  004131CA: 83 C0 28           add         eax,28h
  004131CD: 89 45 FC           mov         dword ptr [ebp-4],eax
  004131D0: 8B 4D FC           mov         ecx,dword ptr [ebp-4]
  004131D3: 3B 4D E8           cmp         ecx,dword ptr [ebp-18h]
  004131D6: 74 23              je          004131FB
  004131D8: 8B 55 FC           mov         edx,dword ptr [ebp-4]
  004131DB: 8B 45 0C           mov         eax,dword ptr [ebp+0Ch]
  004131DE: 3B 42 0C           cmp         eax,dword ptr [edx+0Ch]
  004131E1: 72 16              jb          004131F9
  004131E3: 8B 4D FC           mov         ecx,dword ptr [ebp-4]
  004131E6: 8B 51 0C           mov         edx,dword ptr [ecx+0Ch]
  004131E9: 8B 45 FC           mov         eax,dword ptr [ebp-4]
  004131EC: 03 50 08           add         edx,dword ptr [eax+8]
  004131EF: 39 55 0C           cmp         dword ptr [ebp+0Ch],edx
  004131F2: 73 05              jae         004131F9
  004131F4: 8B 45 FC           mov         eax,dword ptr [ebp-4]
  004131F7: EB 04              jmp         004131FD
  004131F9: EB CC              jmp         004131C7
  004131FB: 33 C0              xor         eax,eax
  004131FD: 8B E5              mov         esp,ebp
  004131FF: 5D                 pop         ebp
  00413200: C3                 ret
  00413201: CC                 int         3
  00413202: CC                 int         3
  00413203: CC                 int         3
  00413204: CC                 int         3
  00413205: CC                 int         3
  00413206: CC                 int         3
  00413207: CC                 int         3
  00413208: CC                 int         3
  00413209: CC                 int         3
  0041320A: CC                 int         3
  0041320B: CC                 int         3
  0041320C: CC                 int         3
  0041320D: CC                 int         3
  0041320E: CC                 int         3
  0041320F: CC                 int         3
  00413210: CC                 int         3
  00413211: CC                 int         3
  00413212: CC                 int         3
  00413213: CC                 int         3
  00413214: CC                 int         3
  00413215: CC                 int         3
  00413216: CC                 int         3
  00413217: CC                 int         3
  00413218: CC                 int         3
  00413219: CC                 int         3
  0041321A: CC                 int         3
  0041321B: CC                 int         3
  0041321C: CC                 int         3
  0041321D: CC                 int         3
  0041321E: CC                 int         3
  0041321F: CC                 int         3
  00413220: CC                 int         3
  00413221: CC                 int         3
  00413222: CC                 int         3
  00413223: CC                 int         3
  00413224: CC                 int         3
  00413225: CC                 int         3
  00413226: CC                 int         3
  00413227: CC                 int         3
  00413228: CC                 int         3
  00413229: CC                 int         3
  0041322A: CC                 int         3
  0041322B: CC                 int         3
  0041322C: CC                 int         3
  0041322D: CC                 int         3
  0041322E: CC                 int         3
  0041322F: CC                 int         3
  00413230: 55                 push        ebp
  00413231: 8B EC              mov         ebp,esp
  00413233: 83 EC 10           sub         esp,10h
  00413236: 83 7D 08 00        cmp         dword ptr [ebp+8],0
  0041323A: 75 04              jne         00413240
  0041323C: 32 C0              xor         al,al
  0041323E: EB 55              jmp         00413295
  00413240: 8B 45 08           mov         eax,dword ptr [ebp+8]
  00413243: 89 45 FC           mov         dword ptr [ebp-4],eax
  00413246: 8B 4D FC           mov         ecx,dword ptr [ebp-4]
  00413249: 0F B7 11           movzx       edx,word ptr [ecx]
  0041324C: 81 FA 4D 5A 00 00  cmp         edx,5A4Dh
  00413252: 74 04              je          00413258
  00413254: 32 C0              xor         al,al
  00413256: EB 3D              jmp         00413295
  00413258: 8B 45 FC           mov         eax,dword ptr [ebp-4]
  0041325B: 8B 4D FC           mov         ecx,dword ptr [ebp-4]
  0041325E: 03 48 3C           add         ecx,dword ptr [eax+3Ch]
  00413261: 89 4D F4           mov         dword ptr [ebp-0Ch],ecx
  00413264: 8B 55 F4           mov         edx,dword ptr [ebp-0Ch]
  00413267: 89 55 F8           mov         dword ptr [ebp-8],edx
  0041326A: 8B 45 F8           mov         eax,dword ptr [ebp-8]
  0041326D: 81 38 50 45 00 00  cmp         dword ptr [eax],4550h
  00413273: 74 04              je          00413279
  00413275: 32 C0              xor         al,al
  00413277: EB 1C              jmp         00413295
  00413279: 8B 4D F8           mov         ecx,dword ptr [ebp-8]
  0041327C: 83 C1 18           add         ecx,18h
  0041327F: 89 4D F0           mov         dword ptr [ebp-10h],ecx
  00413282: 8B 55 F0           mov         edx,dword ptr [ebp-10h]
  00413285: 0F B7 02           movzx       eax,word ptr [edx]
  00413288: 3D 0B 01 00 00     cmp         eax,10Bh
  0041328D: 74 04              je          00413293
  0041328F: 32 C0              xor         al,al
  00413291: EB 02              jmp         00413295
  00413293: B0 01              mov         al,1
  00413295: 8B E5              mov         esp,ebp
  00413297: 5D                 pop         ebp
  00413298: C3                 ret
  00413299: CC                 int         3
  0041329A: CC                 int         3
  0041329B: CC                 int         3
  0041329C: CC                 int         3
  0041329D: CC                 int         3
  0041329E: CC                 int         3
  0041329F: CC                 int         3
  004132A0: CC                 int         3
  004132A1: CC                 int         3
  004132A2: CC                 int         3
  004132A3: CC                 int         3
  004132A4: CC                 int         3
  004132A5: CC                 int         3
  004132A6: CC                 int         3
  004132A7: CC                 int         3
  004132A8: CC                 int         3
  004132A9: CC                 int         3
  004132AA: CC                 int         3
  004132AB: CC                 int         3
  004132AC: CC                 int         3
  004132AD: CC                 int         3
  004132AE: CC                 int         3
  004132AF: CC                 int         3
  004132B0: CC                 int         3
  004132B1: CC                 int         3
  004132B2: CC                 int         3
  004132B3: CC                 int         3
  004132B4: CC                 int         3
  004132B5: CC                 int         3
  004132B6: CC                 int         3
  004132B7: CC                 int         3
  004132B8: CC                 int         3
  004132B9: CC                 int         3
  004132BA: CC                 int         3
  004132BB: CC                 int         3
  004132BC: CC                 int         3
  004132BD: CC                 int         3
  004132BE: CC                 int         3
  004132BF: CC                 int         3
_NtCurrentTeb:
  004132C0: 55                 push        ebp
  004132C1: 8B EC              mov         ebp,esp
  004132C3: 64 A1 18 00 00 00  mov         eax,dword ptr fs:[00000018h]
  004132C9: 5D                 pop         ebp
  004132CA: C3                 ret
  004132CB: CC                 int         3
  004132CC: CC                 int         3
  004132CD: CC                 int         3
  004132CE: CC                 int         3
  004132CF: CC                 int         3
___scrt_acquire_startup_lock:
  004132D0: 55                 push        ebp
  004132D1: 8B EC              mov         ebp,esp
  004132D3: 83 EC 08           sub         esp,8
  004132D6: E8 A2 DD FF FF     call        @ILT+120(___scrt_is_ucrt_dll_in_use)
  004132DB: 85 C0              test        eax,eax
  004132DD: 75 04              jne         004132E3
  004132DF: 32 C0              xor         al,al
  004132E1: EB 32              jmp         00413315
  004132E3: E8 9F DD FF FF     call        @ILT+130(_NtCurrentTeb)
  004132E8: 8B 40 04           mov         eax,dword ptr [eax+4]
  004132EB: 89 45 FC           mov         dword ptr [ebp-4],eax
  004132EE: 8B 4D FC           mov         ecx,dword ptr [ebp-4]
  004132F1: BA 1C A5 41 00     mov         edx,offset ___scrt_native_startup_lock
  004132F6: 33 C0              xor         eax,eax
  004132F8: F0 0F B1 0A        lock cmpxchg dword ptr [edx],ecx
  004132FC: 89 45 F8           mov         dword ptr [ebp-8],eax
  004132FF: 83 7D F8 00        cmp         dword ptr [ebp-8],0
  00413303: 74 0E              je          00413313
  00413305: 8B 45 FC           mov         eax,dword ptr [ebp-4]
  00413308: 3B 45 F8           cmp         eax,dword ptr [ebp-8]
  0041330B: 75 04              jne         00413311
  0041330D: B0 01              mov         al,1
  0041330F: EB 04              jmp         00413315
  00413311: EB DB              jmp         004132EE
  00413313: 32 C0              xor         al,al
  00413315: 8B E5              mov         esp,ebp
  00413317: 5D                 pop         ebp
  00413318: C3                 ret
  00413319: CC                 int         3
  0041331A: CC                 int         3
  0041331B: CC                 int         3
  0041331C: CC                 int         3
  0041331D: CC                 int         3
  0041331E: CC                 int         3
  0041331F: CC                 int         3
  00413320: CC                 int         3
  00413321: CC                 int         3
  00413322: CC                 int         3
  00413323: CC                 int         3
  00413324: CC                 int         3
  00413325: CC                 int         3
  00413326: CC                 int         3
  00413327: CC                 int         3
  00413328: CC                 int         3
  00413329: CC                 int         3
  0041332A: CC                 int         3
  0041332B: CC                 int         3
  0041332C: CC                 int         3
  0041332D: CC                 int         3
  0041332E: CC                 int         3
  0041332F: CC                 int         3
___scrt_dllmain_after_initialize_c:
  00413330: 55                 push        ebp
  00413331: 8B EC              mov         ebp,esp
  00413333: E8 45 DD FF FF     call        @ILT+120(___scrt_is_ucrt_dll_in_use)
  00413338: 85 C0              test        eax,eax
  0041333A: 74 07              je          00413343
  0041333C: E8 E6 DD FF FF     call        @ILT+290(___isa_available_init)
  00413341: EB 12              jmp         00413355
  00413343: E8 1A DF FF FF     call        @ILT+605(?configure_argv@__scrt_narrow_argv_policy@@SAHXZ)
  00413348: 85 C0              test        eax,eax
  0041334A: 74 04              je          00413350
  0041334C: 32 C0              xor         al,al
  0041334E: EB 07              jmp         00413357
  00413350: E8 BC DF FF FF     call        @ILT+780(?initialize_environment@__scrt_narrow_environment_policy@@SAHXZ)
  00413355: B0 01              mov         al,1
  00413357: 5D                 pop         ebp
  00413358: C3                 ret
  00413359: CC                 int         3
  0041335A: CC                 int         3
  0041335B: CC                 int         3
  0041335C: CC                 int         3
  0041335D: CC                 int         3
  0041335E: CC                 int         3
  0041335F: CC                 int         3
  00413360: CC                 int         3
  00413361: CC                 int         3
  00413362: CC                 int         3
  00413363: CC                 int         3
  00413364: CC                 int         3
  00413365: CC                 int         3
  00413366: CC                 int         3
  00413367: CC                 int         3
  00413368: CC                 int         3
  00413369: CC                 int         3
  0041336A: CC                 int         3
  0041336B: CC                 int         3
  0041336C: CC                 int         3
  0041336D: CC                 int         3
  0041336E: CC                 int         3
  0041336F: CC                 int         3
___scrt_dllmain_before_initialize_c:
  00413370: 55                 push        ebp
  00413371: 8B EC              mov         ebp,esp
  00413373: 6A 00              push        0
  00413375: E8 C0 DE FF FF     call        @ILT+565(___scrt_initialize_onexit_tables)
  0041337A: 83 C4 04           add         esp,4
  0041337D: 0F B6 C0           movzx       eax,al
  00413380: 85 C0              test        eax,eax
  00413382: 75 04              jne         00413388
  00413384: 32 C0              xor         al,al
  00413386: EB 02              jmp         0041338A
  00413388: B0 01              mov         al,1
  0041338A: 5D                 pop         ebp
  0041338B: C3                 ret
  0041338C: CC                 int         3
  0041338D: CC                 int         3
  0041338E: CC                 int         3
  0041338F: CC                 int         3
  00413390: CC                 int         3
  00413391: CC                 int         3
  00413392: CC                 int         3
  00413393: CC                 int         3
  00413394: CC                 int         3
  00413395: CC                 int         3
  00413396: CC                 int         3
  00413397: CC                 int         3
  00413398: CC                 int         3
  00413399: CC                 int         3
  0041339A: CC                 int         3
  0041339B: CC                 int         3
  0041339C: CC                 int         3
  0041339D: CC                 int         3
  0041339E: CC                 int         3
  0041339F: CC                 int         3
___scrt_dllmain_crt_thread_attach:
  004133A0: 55                 push        ebp
  004133A1: 8B EC              mov         ebp,esp
  004133A3: E8 0A DF FF FF     call        @ILT+685(___acrt_thread_attach)
  004133A8: 0F B6 C0           movzx       eax,al
  004133AB: 85 C0              test        eax,eax
  004133AD: 75 04              jne         004133B3
  004133AF: 32 C0              xor         al,al
  004133B1: EB 17              jmp         004133CA
  004133B3: E8 51 DD FF FF     call        @ILT+260(___acrt_thread_attach)
  004133B8: 0F B6 C8           movzx       ecx,al
  004133BB: 85 C9              test        ecx,ecx
  004133BD: 75 09              jne         004133C8
  004133BF: E8 D7 DC FF FF     call        @ILT+150(___acrt_thread_detach)
  004133C4: 32 C0              xor         al,al
  004133C6: EB 02              jmp         004133CA
  004133C8: B0 01              mov         al,1
  004133CA: 5D                 pop         ebp
  004133CB: C3                 ret
  004133CC: CC                 int         3
  004133CD: CC                 int         3
  004133CE: CC                 int         3
  004133CF: CC                 int         3
  004133D0: CC                 int         3
  004133D1: CC                 int         3
  004133D2: CC                 int         3
  004133D3: CC                 int         3
  004133D4: CC                 int         3
  004133D5: CC                 int         3
  004133D6: CC                 int         3
  004133D7: CC                 int         3
  004133D8: CC                 int         3
  004133D9: CC                 int         3
  004133DA: CC                 int         3
  004133DB: CC                 int         3
  004133DC: CC                 int         3
  004133DD: CC                 int         3
  004133DE: CC                 int         3
  004133DF: CC                 int         3
___scrt_dllmain_crt_thread_detach:
  004133E0: 55                 push        ebp
  004133E1: 8B EC              mov         ebp,esp
  004133E3: E8 7B DD FF FF     call        @ILT+350(___acrt_thread_detach)
  004133E8: E8 AE DC FF FF     call        @ILT+150(___acrt_thread_detach)
  004133ED: B0 01              mov         al,1
  004133EF: 5D                 pop         ebp
  004133F0: C3                 ret
  004133F1: CC                 int         3
  004133F2: CC                 int         3
  004133F3: CC                 int         3
  004133F4: CC                 int         3
  004133F5: CC                 int         3
  004133F6: CC                 int         3
  004133F7: CC                 int         3
  004133F8: CC                 int         3
  004133F9: CC                 int         3
  004133FA: CC                 int         3
  004133FB: CC                 int         3
  004133FC: CC                 int         3
  004133FD: CC                 int         3
  004133FE: CC                 int         3
  004133FF: CC                 int         3
___scrt_dllmain_exception_filter:
  00413400: 55                 push        ebp
  00413401: 8B EC              mov         ebp,esp
  00413403: 51                 push        ecx
  00413404: E8 74 DC FF FF     call        @ILT+120(___scrt_is_ucrt_dll_in_use)
  00413409: 85 C0              test        eax,eax
  0041340B: 75 22              jne         0041342F
  0041340D: 83 7D 0C 01        cmp         dword ptr [ebp+0Ch],1
  00413411: 75 1C              jne         0041342F
  00413413: 8B 45 10           mov         eax,dword ptr [ebp+10h]
  00413416: 50                 push        eax
  00413417: 6A 00              push        0
  00413419: 8B 4D 08           mov         ecx,dword ptr [ebp+8]
  0041341C: 51                 push        ecx
  0041341D: 8B 55 14           mov         edx,dword ptr [ebp+14h]
  00413420: 89 55 FC           mov         dword ptr [ebp-4],edx
  00413423: 8B 4D FC           mov         ecx,dword ptr [ebp-4]
  00413426: FF 15 00 C0 41 00  call        dword ptr [___guard_check_icall_fptr]
  0041342C: FF 55 FC           call        dword ptr [ebp-4]
  0041342F: 8B 45 1C           mov         eax,dword ptr [ebp+1Ch]
  00413432: 50                 push        eax
  00413433: 8B 4D 18           mov         ecx,dword ptr [ebp+18h]
  00413436: 51                 push        ecx
  00413437: E8 35 DE FF FF     call        @ILT+620(__seh_filter_dll)
  0041343C: 83 C4 08           add         esp,8
  0041343F: 8B E5              mov         esp,ebp
  00413441: 5D                 pop         ebp
  00413442: C3                 ret
  00413443: CC                 int         3
  00413444: CC                 int         3
  00413445: CC                 int         3
  00413446: CC                 int         3
  00413447: CC                 int         3
  00413448: CC                 int         3
  00413449: CC                 int         3
  0041344A: CC                 int         3
  0041344B: CC                 int         3
  0041344C: CC                 int         3
  0041344D: CC                 int         3
  0041344E: CC                 int         3
  0041344F: CC                 int         3
  00413450: CC                 int         3
  00413451: CC                 int         3
  00413452: CC                 int         3
  00413453: CC                 int         3
  00413454: CC                 int         3
  00413455: CC                 int         3
  00413456: CC                 int         3
  00413457: CC                 int         3
  00413458: CC                 int         3
  00413459: CC                 int         3
  0041345A: CC                 int         3
  0041345B: CC                 int         3
  0041345C: CC                 int         3
  0041345D: CC                 int         3
  0041345E: CC                 int         3
  0041345F: CC                 int         3
___scrt_dllmain_uninitialize_c:
  00413460: 55                 push        ebp
  00413461: 8B EC              mov         ebp,esp
  00413463: E8 15 DC FF FF     call        @ILT+120(___scrt_is_ucrt_dll_in_use)
  00413468: 85 C0              test        eax,eax
  0041346A: 74 0F              je          0041347B
  0041346C: 68 20 A5 41 00     push        41A520h
  00413471: E8 E6 DE FF FF     call        @ILT+855(__execute_onexit_table)
  00413476: 83 C4 04           add         esp,4
  00413479: EB 0E              jmp         00413489
  0041347B: E8 5A DE FF FF     call        @ILT+725(___scrt_stub_for_is_c_termination_complete)
  00413480: 85 C0              test        eax,eax
  00413482: 75 05              jne         00413489
  00413484: E8 3A DC FF FF     call        @ILT+190(__cexit)
  00413489: 5D                 pop         ebp
  0041348A: C3                 ret
  0041348B: CC                 int         3
  0041348C: CC                 int         3
  0041348D: CC                 int         3
  0041348E: CC                 int         3
  0041348F: CC                 int         3
  00413490: CC                 int         3
  00413491: CC                 int         3
  00413492: CC                 int         3
  00413493: CC                 int         3
  00413494: CC                 int         3
  00413495: CC                 int         3
  00413496: CC                 int         3
  00413497: CC                 int         3
  00413498: CC                 int         3
  00413499: CC                 int         3
  0041349A: CC                 int         3
  0041349B: CC                 int         3
  0041349C: CC                 int         3
  0041349D: CC                 int         3
  0041349E: CC                 int         3
  0041349F: CC                 int         3
___scrt_dllmain_uninitialize_critical:
  004134A0: 55                 push        ebp
  004134A1: 8B EC              mov         ebp,esp
  004134A3: 6A 00              push        0
  004134A5: E8 64 DC FF FF     call        @ILT+265(___acrt_uninitialize_critical)
  004134AA: 83 C4 04           add         esp,4
  004134AD: E8 CF DC FF FF     call        @ILT+380(___acrt_uninitialize_critical)
  004134B2: 5D                 pop         ebp
  004134B3: C3                 ret
  004134B4: CC                 int         3
  004134B5: CC                 int         3
  004134B6: CC                 int         3
  004134B7: CC                 int         3
  004134B8: CC                 int         3
  004134B9: CC                 int         3
  004134BA: CC                 int         3
  004134BB: CC                 int         3
  004134BC: CC                 int         3
  004134BD: CC                 int         3
  004134BE: CC                 int         3
  004134BF: CC                 int         3
___scrt_initialize_crt:
  004134C0: 55                 push        ebp
  004134C1: 8B EC              mov         ebp,esp
  004134C3: 83 7D 08 00        cmp         dword ptr [ebp+8],0
  004134C7: 75 07              jne         004134D0
  004134C9: C6 05 39 A5 41 00  mov         byte ptr ds:[41A539h],1
            01
  004134D0: E8 52 DC FF FF     call        @ILT+290(___isa_available_init)
  004134D5: E8 5B DD FF FF     call        @ILT+560(___acrt_initialize)
  004134DA: 0F B6 C0           movzx       eax,al
  004134DD: 85 C0              test        eax,eax
  004134DF: 75 04              jne         004134E5
  004134E1: 32 C0              xor         al,al
  004134E3: EB 1C              jmp         00413501
  004134E5: E8 3E DB FF FF     call        @ILT+35(___acrt_initialize)
  004134EA: 0F B6 C8           movzx       ecx,al
  004134ED: 85 C9              test        ecx,ecx
  004134EF: 75 0E              jne         004134FF
  004134F1: 6A 00              push        0
  004134F3: E8 1F DD FF FF     call        @ILT+530(___acrt_uninitialize)
  004134F8: 83 C4 04           add         esp,4
  004134FB: 32 C0              xor         al,al
  004134FD: EB 02              jmp         00413501
  004134FF: B0 01              mov         al,1
  00413501: 5D                 pop         ebp
  00413502: C3                 ret
  00413503: CC                 int         3
  00413504: CC                 int         3
  00413505: CC                 int         3
  00413506: CC                 int         3
  00413507: CC                 int         3
  00413508: CC                 int         3
  00413509: CC                 int         3
  0041350A: CC                 int         3
  0041350B: CC                 int         3
  0041350C: CC                 int         3
  0041350D: CC                 int         3
  0041350E: CC                 int         3
  0041350F: CC                 int         3
  00413510: CC                 int         3
  00413511: CC                 int         3
  00413512: CC                 int         3
  00413513: CC                 int         3
  00413514: CC                 int         3
  00413515: CC                 int         3
  00413516: CC                 int         3
  00413517: CC                 int         3
  00413518: CC                 int         3
  00413519: CC                 int         3
  0041351A: CC                 int         3
  0041351B: CC                 int         3
  0041351C: CC                 int         3
  0041351D: CC                 int         3
  0041351E: CC                 int         3
  0041351F: CC                 int         3
___scrt_initialize_onexit_tables:
  00413520: 55                 push        ebp
  00413521: 8B EC              mov         ebp,esp
  00413523: 83 EC 1C           sub         esp,1Ch
  00413526: 0F B6 05 38 A5 41  movzx       eax,byte ptr ds:[41A538h]
            00
  0041352D: 85 C0              test        eax,eax
  0041352F: 74 07              je          00413538
  00413531: B0 01              mov         al,1
  00413533: E9 BF 00 00 00     jmp         004135F7
  00413538: 83 7D 08 00        cmp         dword ptr [ebp+8],0
  0041353C: 74 0D              je          0041354B
  0041353E: 83 7D 08 01        cmp         dword ptr [ebp+8],1
  00413542: 74 07              je          0041354B
  00413544: 6A 05              push        5
  00413546: E8 2D DB FF FF     call        @ILT+115(___scrt_fastfail)
  0041354B: E8 2D DB FF FF     call        @ILT+120(___scrt_is_ucrt_dll_in_use)
  00413550: 85 C0              test        eax,eax
  00413552: 74 35              je          00413589
  00413554: 83 7D 08 00        cmp         dword ptr [ebp+8],0
  00413558: 75 2F              jne         00413589
  0041355A: 68 20 A5 41 00     push        41A520h
  0041355F: E8 90 DC FF FF     call        @ILT+495(__initialize_onexit_table)
  00413564: 83 C4 04           add         esp,4
  00413567: 85 C0              test        eax,eax
  00413569: 74 07              je          00413572
  0041356B: 32 C0              xor         al,al
  0041356D: E9 85 00 00 00     jmp         004135F7
  00413572: 68 2C A5 41 00     push        41A52Ch
  00413577: E8 78 DC FF FF     call        @ILT+495(__initialize_onexit_table)
  0041357C: 83 C4 04           add         esp,4
  0041357F: 85 C0              test        eax,eax
  00413581: 74 04              je          00413587
  00413583: 32 C0              xor         al,al
  00413585: EB 70              jmp         004135F7
  00413587: EB 65              jmp         004135EE
  00413589: 6A FF              push        0FFFFFFFFh
  0041358B: E8 77 DD FF FF     call        @ILT+770(??$__crt_fast_encode_pointer@PAP6AXXZ@@YAPAP6AXXZQAP6AXXZ@Z)
  00413590: 83 C4 04           add         esp,4
  00413593: 89 45 FC           mov         dword ptr [ebp-4],eax
  00413596: 8B 4D FC           mov         ecx,dword ptr [ebp-4]
  00413599: 89 4D F0           mov         dword ptr [ebp-10h],ecx
  0041359C: 8B 55 FC           mov         edx,dword ptr [ebp-4]
  0041359F: 89 55 F4           mov         dword ptr [ebp-0Ch],edx
  004135A2: 8B 45 FC           mov         eax,dword ptr [ebp-4]
  004135A5: 89 45 F8           mov         dword ptr [ebp-8],eax
  004135A8: 8B 4D F0           mov         ecx,dword ptr [ebp-10h]
  004135AB: 89 0D 20 A5 41 00  mov         dword ptr ds:[41A520h],ecx
  004135B1: 8B 55 F4           mov         edx,dword ptr [ebp-0Ch]
  004135B4: 89 15 24 A5 41 00  mov         dword ptr ds:[41A524h],edx
  004135BA: 8B 45 F8           mov         eax,dword ptr [ebp-8]
  004135BD: A3 28 A5 41 00     mov         dword ptr ds:[0041A528h],eax
  004135C2: 8B 4D FC           mov         ecx,dword ptr [ebp-4]
  004135C5: 89 4D E4           mov         dword ptr [ebp-1Ch],ecx
  004135C8: 8B 55 FC           mov         edx,dword ptr [ebp-4]
  004135CB: 89 55 E8           mov         dword ptr [ebp-18h],edx
  004135CE: 8B 45 FC           mov         eax,dword ptr [ebp-4]
  004135D1: 89 45 EC           mov         dword ptr [ebp-14h],eax
  004135D4: 8B 4D E4           mov         ecx,dword ptr [ebp-1Ch]
  004135D7: 89 0D 2C A5 41 00  mov         dword ptr ds:[41A52Ch],ecx
  004135DD: 8B 55 E8           mov         edx,dword ptr [ebp-18h]
  004135E0: 89 15 30 A5 41 00  mov         dword ptr ds:[41A530h],edx
  004135E6: 8B 45 EC           mov         eax,dword ptr [ebp-14h]
  004135E9: A3 34 A5 41 00     mov         dword ptr ds:[0041A534h],eax
  004135EE: C6 05 38 A5 41 00  mov         byte ptr ds:[41A538h],1
            01
  004135F5: B0 01              mov         al,1
  004135F7: 8B E5              mov         esp,ebp
  004135F9: 5D                 pop         ebp
  004135FA: C3                 ret
  004135FB: CC                 int         3
  004135FC: CC                 int         3
  004135FD: CC                 int         3
  004135FE: CC                 int         3
  004135FF: CC                 int         3
  00413600: CC                 int         3
  00413601: CC                 int         3
  00413602: CC                 int         3
  00413603: CC                 int         3
  00413604: CC                 int         3
  00413605: CC                 int         3
  00413606: CC                 int         3
  00413607: CC                 int         3
  00413608: CC                 int         3
  00413609: CC                 int         3
  0041360A: CC                 int         3
  0041360B: CC                 int         3
  0041360C: CC                 int         3
  0041360D: CC                 int         3
  0041360E: CC                 int         3
  0041360F: CC                 int         3
  00413610: CC                 int         3
  00413611: CC                 int         3
  00413612: CC                 int         3
  00413613: CC                 int         3
  00413614: CC                 int         3
  00413615: CC                 int         3
  00413616: CC                 int         3
  00413617: CC                 int         3
  00413618: CC                 int         3
  00413619: CC                 int         3
  0041361A: CC                 int         3
  0041361B: CC                 int         3
  0041361C: CC                 int         3
  0041361D: CC                 int         3
  0041361E: CC                 int         3
  0041361F: CC                 int         3
  00413620: CC                 int         3
  00413621: CC                 int         3
  00413622: CC                 int         3
  00413623: CC                 int         3
  00413624: CC                 int         3
  00413625: CC                 int         3
  00413626: CC                 int         3
  00413627: CC                 int         3
  00413628: CC                 int         3
  00413629: CC                 int         3
  0041362A: CC                 int         3
  0041362B: CC                 int         3
  0041362C: CC                 int         3
  0041362D: CC                 int         3
  0041362E: CC                 int         3
  0041362F: CC                 int         3
  00413630: CC                 int         3
  00413631: CC                 int         3
  00413632: CC                 int         3
  00413633: CC                 int         3
  00413634: CC                 int         3
  00413635: CC                 int         3
  00413636: CC                 int         3
  00413637: CC                 int         3
  00413638: CC                 int         3
  00413639: CC                 int         3
  0041363A: CC                 int         3
  0041363B: CC                 int         3
  0041363C: CC                 int         3
  0041363D: CC                 int         3
  0041363E: CC                 int         3
  0041363F: CC                 int         3
___scrt_is_nonwritable_in_current_image:
  00413640: 55                 push        ebp
  00413641: 8B EC              mov         ebp,esp
  00413643: 6A FE              push        0FFFFFFFEh
  00413645: 68 A0 8F 41 00     push        418FA0h
  0041364A: 68 30 40 41 00     push        offset __except_handler4
  0041364F: 64 A1 00 00 00 00  mov         eax,dword ptr fs:[00000000h]
  00413655: 50                 push        eax
  00413656: 83 C4 D8           add         esp,0FFFFFFD8h
  00413659: 53                 push        ebx
  0041365A: 56                 push        esi
  0041365B: 57                 push        edi
  0041365C: A1 00 A0 41 00     mov         eax,dword ptr [___security_cookie]
  00413661: 31 45 F8           xor         dword ptr [ebp-8],eax
  00413664: 33 C5              xor         eax,ebp
  00413666: 50                 push        eax
  00413667: 8D 45 F0           lea         eax,[ebp-10h]
  0041366A: 64 A3 00 00 00 00  mov         dword ptr fs:[00000000h],eax
  00413670: 89 65 E8           mov         dword ptr [ebp-18h],esp
  00413673: 8B 45 08           mov         eax,dword ptr [ebp+8]
  00413676: 89 45 D0           mov         dword ptr [ebp-30h],eax
  00413679: C7 45 DC 00 00 40  mov         dword ptr [ebp-24h],400000h
            00
  00413680: C7 45 FC 00 00 00  mov         dword ptr [ebp-4],0
            00
  00413687: 8B 4D DC           mov         ecx,dword ptr [ebp-24h]
  0041368A: 51                 push        ecx
  0041368B: E8 A0 FB FF FF     call        00413230
  00413690: 83 C4 04           add         esp,4
  00413693: 0F B6 D0           movzx       edx,al
  00413696: 85 D2              test        edx,edx
  00413698: 75 13              jne         004136AD
  0041369A: C6 45 E7 00        mov         byte ptr [ebp-19h],0
  0041369E: C7 45 FC FE FF FF  mov         dword ptr [ebp-4],0FFFFFFFEh
            FF
  004136A5: 8A 45 E7           mov         al,byte ptr [ebp-19h]
  004136A8: E9 AA 00 00 00     jmp         00413757
  004136AD: 8B 45 D0           mov         eax,dword ptr [ebp-30h]
  004136B0: 2B 45 DC           sub         eax,dword ptr [ebp-24h]
  004136B3: 89 45 CC           mov         dword ptr [ebp-34h],eax
  004136B6: 8B 4D CC           mov         ecx,dword ptr [ebp-34h]
  004136B9: 51                 push        ecx
  004136BA: 8B 55 DC           mov         edx,dword ptr [ebp-24h]
  004136BD: 52                 push        edx
  004136BE: E8 BD FA FF FF     call        00413180
  004136C3: 83 C4 08           add         esp,8
  004136C6: 89 45 D8           mov         dword ptr [ebp-28h],eax
  004136C9: 83 7D D8 00        cmp         dword ptr [ebp-28h],0
  004136CD: 75 10              jne         004136DF
  004136CF: C6 45 E6 00        mov         byte ptr [ebp-1Ah],0
  004136D3: C7 45 FC FE FF FF  mov         dword ptr [ebp-4],0FFFFFFFEh
            FF
  004136DA: 8A 45 E6           mov         al,byte ptr [ebp-1Ah]
  004136DD: EB 78              jmp         00413757
  004136DF: 8B 45 D8           mov         eax,dword ptr [ebp-28h]
  004136E2: 8B 48 24           mov         ecx,dword ptr [eax+24h]
  004136E5: 81 E1 00 00 00 80  and         ecx,80000000h
  004136EB: 74 10              je          004136FD
  004136ED: C6 45 E5 00        mov         byte ptr [ebp-1Bh],0
  004136F1: C7 45 FC FE FF FF  mov         dword ptr [ebp-4],0FFFFFFFEh
            FF
  004136F8: 8A 45 E5           mov         al,byte ptr [ebp-1Bh]
  004136FB: EB 5A              jmp         00413757
  004136FD: C6 45 E4 01        mov         byte ptr [ebp-1Ch],1
  00413701: C7 45 FC FE FF FF  mov         dword ptr [ebp-4],0FFFFFFFEh
            FF
  00413708: 8A 45 E4           mov         al,byte ptr [ebp-1Ch]
  0041370B: EB 4A              jmp         00413757
  0041370D: C7 45 FC FE FF FF  mov         dword ptr [ebp-4],0FFFFFFFEh
            FF
  00413714: EB 41              jmp         00413757
  00413716: 8B 55 EC           mov         edx,dword ptr [ebp-14h]
  00413719: 8B 02              mov         eax,dword ptr [edx]
  0041371B: 8B 08              mov         ecx,dword ptr [eax]
  0041371D: 89 4D C8           mov         dword ptr [ebp-38h],ecx
  00413720: 81 7D C8 05 00 00  cmp         dword ptr [ebp-38h],0C0000005h
            C0
  00413727: 75 09              jne         00413732
  00413729: C7 45 D4 01 00 00  mov         dword ptr [ebp-2Ch],1
            00
  00413730: EB 07              jmp         00413739
  00413732: C7 45 D4 00 00 00  mov         dword ptr [ebp-2Ch],0
            00
  00413739: 8B 45 D4           mov         eax,dword ptr [ebp-2Ch]
  0041373C: C3                 ret
  0041373D: 8B 65 E8           mov         esp,dword ptr [ebp-18h]
  00413740: C6 45 E3 00        mov         byte ptr [ebp-1Dh],0
  00413744: C7 45 FC FE FF FF  mov         dword ptr [ebp-4],0FFFFFFFEh
            FF
  0041374B: 8A 45 E3           mov         al,byte ptr [ebp-1Dh]
  0041374E: EB 07              jmp         00413757
  00413750: C7 45 FC FE FF FF  mov         dword ptr [ebp-4],0FFFFFFFEh
            FF
  00413757: 8B 4D F0           mov         ecx,dword ptr [ebp-10h]
  0041375A: 64 89 0D 00 00 00  mov         dword ptr fs:[0],ecx
            00
  00413761: 59                 pop         ecx
  00413762: 5F                 pop         edi
  00413763: 5E                 pop         esi
  00413764: 5B                 pop         ebx
  00413765: 8B E5              mov         esp,ebp
  00413767: 5D                 pop         ebp
  00413768: C3                 ret
  00413769: CC                 int         3
  0041376A: CC                 int         3
  0041376B: CC                 int         3
  0041376C: CC                 int         3
  0041376D: CC                 int         3
  0041376E: CC                 int         3
  0041376F: CC                 int         3
  00413770: CC                 int         3
  00413771: CC                 int         3
  00413772: CC                 int         3
  00413773: CC                 int         3
  00413774: CC                 int         3
  00413775: CC                 int         3
  00413776: CC                 int         3
  00413777: CC                 int         3
  00413778: CC                 int         3
  00413779: CC                 int         3
  0041377A: CC                 int         3
  0041377B: CC                 int         3
  0041377C: CC                 int         3
  0041377D: CC                 int         3
  0041377E: CC                 int         3
  0041377F: CC                 int         3
  00413780: CC                 int         3
  00413781: CC                 int         3
  00413782: CC                 int         3
  00413783: CC                 int         3
  00413784: CC                 int         3
  00413785: CC                 int         3
  00413786: CC                 int         3
  00413787: CC                 int         3
  00413788: CC                 int         3
  00413789: CC                 int         3
  0041378A: CC                 int         3
  0041378B: CC                 int         3
  0041378C: CC                 int         3
  0041378D: CC                 int         3
  0041378E: CC                 int         3
  0041378F: CC                 int         3
  00413790: CC                 int         3
  00413791: CC                 int         3
  00413792: CC                 int         3
  00413793: CC                 int         3
  00413794: CC                 int         3
  00413795: CC                 int         3
  00413796: CC                 int         3
  00413797: CC                 int         3
  00413798: CC                 int         3
  00413799: CC                 int         3
  0041379A: CC                 int         3
  0041379B: CC                 int         3
  0041379C: CC                 int         3
  0041379D: CC                 int         3
  0041379E: CC                 int         3
  0041379F: CC                 int         3
  004137A0: CC                 int         3
  004137A1: CC                 int         3
  004137A2: CC                 int         3
  004137A3: CC                 int         3
  004137A4: CC                 int         3
  004137A5: CC                 int         3
  004137A6: CC                 int         3
  004137A7: CC                 int         3
  004137A8: CC                 int         3
  004137A9: CC                 int         3
  004137AA: CC                 int         3
  004137AB: CC                 int         3
  004137AC: CC                 int         3
  004137AD: CC                 int         3
  004137AE: CC                 int         3
  004137AF: CC                 int         3
  004137B0: CC                 int         3
  004137B1: CC                 int         3
  004137B2: CC                 int         3
  004137B3: CC                 int         3
  004137B4: CC                 int         3
  004137B5: CC                 int         3
  004137B6: CC                 int         3
  004137B7: CC                 int         3
  004137B8: CC                 int         3
  004137B9: CC                 int         3
  004137BA: CC                 int         3
  004137BB: CC                 int         3
  004137BC: CC                 int         3
  004137BD: CC                 int         3
  004137BE: CC                 int         3
  004137BF: CC                 int         3
___scrt_release_startup_lock:
  004137C0: 55                 push        ebp
  004137C1: 8B EC              mov         ebp,esp
  004137C3: E8 B5 D8 FF FF     call        @ILT+120(___scrt_is_ucrt_dll_in_use)
  004137C8: 85 C0              test        eax,eax
  004137CA: 75 02              jne         004137CE
  004137CC: EB 13              jmp         004137E1
  004137CE: 0F B6 45 08        movzx       eax,byte ptr [ebp+8]
  004137D2: 85 C0              test        eax,eax
  004137D4: 74 02              je          004137D8
  004137D6: EB 09              jmp         004137E1
  004137D8: 33 C9              xor         ecx,ecx
  004137DA: BA 1C A5 41 00     mov         edx,offset ___scrt_native_startup_lock
  004137DF: 87 0A              xchg        ecx,dword ptr [edx]
  004137E1: 5D                 pop         ebp
  004137E2: C3                 ret
  004137E3: CC                 int         3
  004137E4: CC                 int         3
  004137E5: CC                 int         3
  004137E6: CC                 int         3
  004137E7: CC                 int         3
  004137E8: CC                 int         3
  004137E9: CC                 int         3
  004137EA: CC                 int         3
  004137EB: CC                 int         3
  004137EC: CC                 int         3
  004137ED: CC                 int         3
  004137EE: CC                 int         3
  004137EF: CC                 int         3
___scrt_uninitialize_crt:
  004137F0: 55                 push        ebp
  004137F1: 8B EC              mov         ebp,esp
  004137F3: 0F B6 05 39 A5 41  movzx       eax,byte ptr ds:[41A539h]
            00
  004137FA: 85 C0              test        eax,eax
  004137FC: 74 0C              je          0041380A
  004137FE: 0F B6 4D 0C        movzx       ecx,byte ptr [ebp+0Ch]
  00413802: 85 C9              test        ecx,ecx
  00413804: 74 04              je          0041380A
  00413806: B0 01              mov         al,1
  00413808: EB 1C              jmp         00413826
  0041380A: 0F B6 55 08        movzx       edx,byte ptr [ebp+8]
  0041380E: 52                 push        edx
  0041380F: E8 0A D8 FF FF     call        @ILT+25(___acrt_uninitialize)
  00413814: 83 C4 04           add         esp,4
  00413817: 0F B6 45 08        movzx       eax,byte ptr [ebp+8]
  0041381B: 50                 push        eax
  0041381C: E8 F6 D9 FF FF     call        @ILT+530(___acrt_uninitialize)
  00413821: 83 C4 04           add         esp,4
  00413824: B0 01              mov         al,1
  00413826: 5D                 pop         ebp
  00413827: C3                 ret
  00413828: CC                 int         3
  00413829: CC                 int         3
  0041382A: CC                 int         3
  0041382B: CC                 int         3
  0041382C: CC                 int         3
  0041382D: CC                 int         3
  0041382E: CC                 int         3
  0041382F: CC                 int         3
  00413830: CC                 int         3
  00413831: CC                 int         3
  00413832: CC                 int         3
  00413833: CC                 int         3
  00413834: CC                 int         3
  00413835: CC                 int         3
  00413836: CC                 int         3
  00413837: CC                 int         3
  00413838: CC                 int         3
  00413839: CC                 int         3
  0041383A: CC                 int         3
  0041383B: CC                 int         3
  0041383C: CC                 int         3
  0041383D: CC                 int         3
  0041383E: CC                 int         3
  0041383F: CC                 int         3
__onexit:
  00413840: 55                 push        ebp
  00413841: 8B EC              mov         ebp,esp
  00413843: 83 EC 0C           sub         esp,0Ch
  00413846: A1 20 A5 41 00     mov         eax,dword ptr ds:[0041A520h]
  0041384B: 50                 push        eax
  0041384C: E8 F4 D8 FF FF     call        @ILT+320(??$__crt_fast_decode_pointer@PAP6AXXZ@@YAPAP6AXXZQAP6AXXZ@Z)
  00413851: 83 C4 04           add         esp,4
  00413854: 89 45 F4           mov         dword ptr [ebp-0Ch],eax
  00413857: 83 7D F4 FF        cmp         dword ptr [ebp-0Ch],0FFFFFFFFh
  0041385B: 75 26              jne         00413883
  0041385D: 8B 4D 08           mov         ecx,dword ptr [ebp+8]
  00413860: 51                 push        ecx
  00413861: E8 D3 DA FF FF     call        @ILT+820(__crt_atexit)
  00413866: 83 C4 04           add         esp,4
  00413869: 85 C0              test        eax,eax
  0041386B: 75 08              jne         00413875
  0041386D: 8B 55 08           mov         edx,dword ptr [ebp+8]
  00413870: 89 55 FC           mov         dword ptr [ebp-4],edx
  00413873: EB 07              jmp         0041387C
  00413875: C7 45 FC 00 00 00  mov         dword ptr [ebp-4],0
            00
  0041387C: 8B 45 FC           mov         eax,dword ptr [ebp-4]
  0041387F: EB 29              jmp         004138AA
  00413881: EB 27              jmp         004138AA
  00413883: 8B 45 08           mov         eax,dword ptr [ebp+8]
  00413886: 50                 push        eax
  00413887: 68 20 A5 41 00     push        41A520h
  0041388C: E8 08 DA FF FF     call        @ILT+660(__register_onexit_function)
  00413891: 83 C4 08           add         esp,8
  00413894: 85 C0              test        eax,eax
  00413896: 75 08              jne         004138A0
  00413898: 8B 4D 08           mov         ecx,dword ptr [ebp+8]
  0041389B: 89 4D F8           mov         dword ptr [ebp-8],ecx
  0041389E: EB 07              jmp         004138A7
  004138A0: C7 45 F8 00 00 00  mov         dword ptr [ebp-8],0
            00
  004138A7: 8B 45 F8           mov         eax,dword ptr [ebp-8]
  004138AA: 8B E5              mov         esp,ebp
  004138AC: 5D                 pop         ebp
  004138AD: C3                 ret
  004138AE: CC                 int         3
  004138AF: CC                 int         3
  004138B0: CC                 int         3
  004138B1: CC                 int         3
  004138B2: CC                 int         3
  004138B3: CC                 int         3
  004138B4: CC                 int         3
  004138B5: CC                 int         3
  004138B6: CC                 int         3
  004138B7: CC                 int         3
  004138B8: CC                 int         3
  004138B9: CC                 int         3
  004138BA: CC                 int         3
  004138BB: CC                 int         3
  004138BC: CC                 int         3
  004138BD: CC                 int         3
  004138BE: CC                 int         3
  004138BF: CC                 int         3
  004138C0: CC                 int         3
  004138C1: CC                 int         3
  004138C2: CC                 int         3
  004138C3: CC                 int         3
  004138C4: CC                 int         3
  004138C5: CC                 int         3
  004138C6: CC                 int         3
  004138C7: CC                 int         3
  004138C8: CC                 int         3
  004138C9: CC                 int         3
  004138CA: CC                 int         3
  004138CB: CC                 int         3
  004138CC: CC                 int         3
  004138CD: CC                 int         3
  004138CE: CC                 int         3
  004138CF: CC                 int         3
_at_quick_exit:
  004138D0: 55                 push        ebp
  004138D1: 8B EC              mov         ebp,esp
  004138D3: 83 EC 08           sub         esp,8
  004138D6: A1 2C A5 41 00     mov         eax,dword ptr ds:[0041A52Ch]
  004138DB: 50                 push        eax
  004138DC: E8 64 D8 FF FF     call        @ILT+320(??$__crt_fast_decode_pointer@PAP6AXXZ@@YAPAP6AXXZQAP6AXXZ@Z)
  004138E1: 83 C4 04           add         esp,4
  004138E4: 89 45 FC           mov         dword ptr [ebp-4],eax
  004138E7: 83 7D FC FF        cmp         dword ptr [ebp-4],0FFFFFFFFh
  004138EB: 75 10              jne         004138FD
  004138ED: 8B 4D 08           mov         ecx,dword ptr [ebp+8]
  004138F0: 51                 push        ecx
  004138F1: E8 90 D8 FF FF     call        @ILT+385(__crt_at_quick_exit)
  004138F6: 83 C4 04           add         esp,4
  004138F9: EB 19              jmp         00413914
  004138FB: EB 17              jmp         00413914
  004138FD: 8B 55 08           mov         edx,dword ptr [ebp+8]
  00413900: 89 55 F8           mov         dword ptr [ebp-8],edx
  00413903: 8B 45 F8           mov         eax,dword ptr [ebp-8]
  00413906: 50                 push        eax
  00413907: 68 2C A5 41 00     push        41A52Ch
  0041390C: E8 88 D9 FF FF     call        @ILT+660(__register_onexit_function)
  00413911: 83 C4 08           add         esp,8
  00413914: 8B E5              mov         esp,ebp
  00413916: 5D                 pop         ebp
  00413917: C3                 ret
  00413918: CC                 int         3
  00413919: CC                 int         3
  0041391A: CC                 int         3
  0041391B: CC                 int         3
  0041391C: CC                 int         3
  0041391D: CC                 int         3
  0041391E: CC                 int         3
  0041391F: CC                 int         3
  00413920: CC                 int         3
  00413921: CC                 int         3
  00413922: CC                 int         3
  00413923: CC                 int         3
  00413924: CC                 int         3
  00413925: CC                 int         3
  00413926: CC                 int         3
  00413927: CC                 int         3
  00413928: CC                 int         3
  00413929: CC                 int         3
  0041392A: CC                 int         3
  0041392B: CC                 int         3
  0041392C: CC                 int         3
  0041392D: CC                 int         3
  0041392E: CC                 int         3
  0041392F: CC                 int         3
_atexit:
  00413930: 55                 push        ebp
  00413931: 8B EC              mov         ebp,esp
  00413933: 51                 push        ecx
  00413934: 8B 45 08           mov         eax,dword ptr [ebp+8]
  00413937: 50                 push        eax
  00413938: E8 2A D9 FF FF     call        @ILT+610(__onexit)
  0041393D: 83 C4 04           add         esp,4
  00413940: 85 C0              test        eax,eax
  00413942: 74 09              je          0041394D
  00413944: C7 45 FC 00 00 00  mov         dword ptr [ebp-4],0
            00
  0041394B: EB 07              jmp         00413954
  0041394D: C7 45 FC FF FF FF  mov         dword ptr [ebp-4],0FFFFFFFFh
            FF
  00413954: 8B 45 FC           mov         eax,dword ptr [ebp-4]
  00413957: 8B E5              mov         esp,ebp
  00413959: 5D                 pop         ebp
  0041395A: C3                 ret
  0041395B: CC                 int         3
  0041395C: CC                 int         3
  0041395D: CC                 int         3
  0041395E: CC                 int         3
  0041395F: CC                 int         3
  00413960: CC                 int         3
  00413961: CC                 int         3
  00413962: CC                 int         3
  00413963: CC                 int         3
  00413964: CC                 int         3
  00413965: CC                 int         3
  00413966: CC                 int         3
  00413967: CC                 int         3
  00413968: CC                 int         3
  00413969: CC                 int         3
  0041396A: CC                 int         3
  0041396B: CC                 int         3
  0041396C: CC                 int         3
  0041396D: CC                 int         3
  0041396E: CC                 int         3
  0041396F: CC                 int         3
  00413970: 55                 push        ebp
  00413971: 8B EC              mov         ebp,esp
  00413973: 83 EC 14           sub         esp,14h
  00413976: 33 C0              xor         eax,eax
  00413978: 89 45 F4           mov         dword ptr [ebp-0Ch],eax
  0041397B: 89 45 F8           mov         dword ptr [ebp-8],eax
  0041397E: 8D 4D F4           lea         ecx,[ebp-0Ch]
  00413981: 51                 push        ecx
  00413982: FF 15 40 B0 41 00  call        dword ptr [__imp__GetSystemTimeAsFileTime@4]
  00413988: 8B 55 F4           mov         edx,dword ptr [ebp-0Ch]
  0041398B: 89 55 FC           mov         dword ptr [ebp-4],edx
  0041398E: 8B 45 FC           mov         eax,dword ptr [ebp-4]
  00413991: 33 45 F8           xor         eax,dword ptr [ebp-8]
  00413994: 89 45 FC           mov         dword ptr [ebp-4],eax
  00413997: FF 15 44 B0 41 00  call        dword ptr [__imp__GetCurrentThreadId@0]
  0041399D: 33 45 FC           xor         eax,dword ptr [ebp-4]
  004139A0: 89 45 FC           mov         dword ptr [ebp-4],eax
  004139A3: FF 15 48 B0 41 00  call        dword ptr [__imp__GetCurrentProcessId@0]
  004139A9: 33 45 FC           xor         eax,dword ptr [ebp-4]
  004139AC: 89 45 FC           mov         dword ptr [ebp-4],eax
  004139AF: 8D 4D EC           lea         ecx,[ebp-14h]
  004139B2: 51                 push        ecx
  004139B3: FF 15 4C B0 41 00  call        dword ptr [__imp__QueryPerformanceCounter@4]
  004139B9: 8B 55 FC           mov         edx,dword ptr [ebp-4]
  004139BC: 33 55 EC           xor         edx,dword ptr [ebp-14h]
  004139BF: 89 55 FC           mov         dword ptr [ebp-4],edx
  004139C2: 8B 45 FC           mov         eax,dword ptr [ebp-4]
  004139C5: 33 45 F0           xor         eax,dword ptr [ebp-10h]
  004139C8: 89 45 FC           mov         dword ptr [ebp-4],eax
  004139CB: 8B 4D FC           mov         ecx,dword ptr [ebp-4]
  004139CE: 8D 55 FC           lea         edx,[ebp-4]
  004139D1: 33 CA              xor         ecx,edx
  004139D3: 89 4D FC           mov         dword ptr [ebp-4],ecx
  004139D6: 8B 45 FC           mov         eax,dword ptr [ebp-4]
  004139D9: 8B E5              mov         esp,ebp
  004139DB: 5D                 pop         ebp
  004139DC: C3                 ret
  004139DD: CC                 int         3
  004139DE: CC                 int         3
  004139DF: CC                 int         3
  004139E0: CC                 int         3
  004139E1: CC                 int         3
  004139E2: CC                 int         3
  004139E3: CC                 int         3
  004139E4: CC                 int         3
  004139E5: CC                 int         3
  004139E6: CC                 int         3
  004139E7: CC                 int         3
  004139E8: CC                 int         3
  004139E9: CC                 int         3
  004139EA: CC                 int         3
  004139EB: CC                 int         3
  004139EC: CC                 int         3
  004139ED: CC                 int         3
  004139EE: CC                 int         3
  004139EF: CC                 int         3
  004139F0: CC                 int         3
  004139F1: CC                 int         3
  004139F2: CC                 int         3
  004139F3: CC                 int         3
  004139F4: CC                 int         3
  004139F5: CC                 int         3
  004139F6: CC                 int         3
  004139F7: CC                 int         3
  004139F8: CC                 int         3
  004139F9: CC                 int         3
  004139FA: CC                 int         3
  004139FB: CC                 int         3
  004139FC: CC                 int         3
  004139FD: CC                 int         3
  004139FE: CC                 int         3
  004139FF: CC                 int         3
___security_init_cookie:
  00413A00: 55                 push        ebp
  00413A01: 8B EC              mov         ebp,esp
  00413A03: 51                 push        ecx
  00413A04: 81 3D 00 A0 41 00  cmp         dword ptr [___security_cookie],0BB40E64Eh
            4E E6 40 BB
  00413A0E: 74 1C              je          00413A2C
  00413A10: A1 00 A0 41 00     mov         eax,dword ptr [___security_cookie]
  00413A15: 25 00 00 FF FF     and         eax,0FFFF0000h
  00413A1A: 74 10              je          00413A2C
  00413A1C: 8B 0D 00 A0 41 00  mov         ecx,dword ptr [___security_cookie]
  00413A22: F7 D1              not         ecx
  00413A24: 89 0D 04 A0 41 00  mov         dword ptr [___security_cookie_complement],ecx
  00413A2A: EB 4A              jmp         00413A76
  00413A2C: E8 3F FF FF FF     call        00413970
  00413A31: 89 45 FC           mov         dword ptr [ebp-4],eax
  00413A34: 81 7D FC 4E E6 40  cmp         dword ptr [ebp-4],0BB40E64Eh
            BB
  00413A3B: 75 09              jne         00413A46
  00413A3D: C7 45 FC 4F E6 40  mov         dword ptr [ebp-4],0BB40E64Fh
            BB
  00413A44: EB 1C              jmp         00413A62
  00413A46: 8B 55 FC           mov         edx,dword ptr [ebp-4]
  00413A49: 81 E2 00 00 FF FF  and         edx,0FFFF0000h
  00413A4F: 75 11              jne         00413A62
  00413A51: 8B 45 FC           mov         eax,dword ptr [ebp-4]
  00413A54: 0D 11 47 00 00     or          eax,4711h
  00413A59: C1 E0 10           shl         eax,10h
  00413A5C: 0B 45 FC           or          eax,dword ptr [ebp-4]
  00413A5F: 89 45 FC           mov         dword ptr [ebp-4],eax
  00413A62: 8B 4D FC           mov         ecx,dword ptr [ebp-4]
  00413A65: 89 0D 00 A0 41 00  mov         dword ptr [___security_cookie],ecx
  00413A6B: 8B 55 FC           mov         edx,dword ptr [ebp-4]
  00413A6E: F7 D2              not         edx
  00413A70: 89 15 04 A0 41 00  mov         dword ptr [___security_cookie_complement],edx
  00413A76: 8B E5              mov         esp,ebp
  00413A78: 5D                 pop         ebp
  00413A79: C3                 ret
  00413A7A: CC                 int         3
  00413A7B: CC                 int         3
  00413A7C: CC                 int         3
  00413A7D: CC                 int         3
  00413A7E: CC                 int         3
  00413A7F: CC                 int         3
  00413A80: CC                 int         3
  00413A81: CC                 int         3
  00413A82: CC                 int         3
  00413A83: CC                 int         3
  00413A84: CC                 int         3
  00413A85: CC                 int         3
  00413A86: CC                 int         3
  00413A87: CC                 int         3
  00413A88: CC                 int         3
  00413A89: CC                 int         3
  00413A8A: CC                 int         3
  00413A8B: CC                 int         3
  00413A8C: CC                 int         3
  00413A8D: CC                 int         3
  00413A8E: CC                 int         3
  00413A8F: CC                 int         3
  00413A90: CC                 int         3
  00413A91: CC                 int         3
  00413A92: CC                 int         3
  00413A93: CC                 int         3
  00413A94: CC                 int         3
  00413A95: CC                 int         3
  00413A96: CC                 int         3
  00413A97: CC                 int         3
  00413A98: CC                 int         3
  00413A99: CC                 int         3
  00413A9A: CC                 int         3
  00413A9B: CC                 int         3
  00413A9C: CC                 int         3
  00413A9D: CC                 int         3
  00413A9E: CC                 int         3
  00413A9F: CC                 int         3
__matherr:
  00413AA0: 55                 push        ebp
  00413AA1: 8B EC              mov         ebp,esp
  00413AA3: 33 C0              xor         eax,eax
  00413AA5: 5D                 pop         ebp
  00413AA6: C3                 ret
  00413AA7: CC                 int         3
  00413AA8: CC                 int         3
  00413AA9: CC                 int         3
  00413AAA: CC                 int         3
  00413AAB: CC                 int         3
  00413AAC: CC                 int         3
  00413AAD: CC                 int         3
  00413AAE: CC                 int         3
  00413AAF: CC                 int         3
__get_startup_argv_mode:
  00413AB0: 55                 push        ebp
  00413AB1: 8B EC              mov         ebp,esp
  00413AB3: B8 01 00 00 00     mov         eax,1
  00413AB8: 5D                 pop         ebp
  00413AB9: C3                 ret
  00413ABA: CC                 int         3
  00413ABB: CC                 int         3
  00413ABC: CC                 int         3
  00413ABD: CC                 int         3
  00413ABE: CC                 int         3
  00413ABF: CC                 int         3
__get_startup_commit_mode:
  00413AC0: 55                 push        ebp
  00413AC1: 8B EC              mov         ebp,esp
  00413AC3: 33 C0              xor         eax,eax
  00413AC5: 5D                 pop         ebp
  00413AC6: C3                 ret
  00413AC7: CC                 int         3
  00413AC8: CC                 int         3
  00413AC9: CC                 int         3
  00413ACA: CC                 int         3
  00413ACB: CC                 int         3
  00413ACC: CC                 int         3
  00413ACD: CC                 int         3
  00413ACE: CC                 int         3
  00413ACF: CC                 int         3
__get_startup_file_mode:
  00413AD0: 55                 push        ebp
  00413AD1: 8B EC              mov         ebp,esp
  00413AD3: B8 00 40 00 00     mov         eax,4000h
  00413AD8: 5D                 pop         ebp
  00413AD9: C3                 ret
  00413ADA: CC                 int         3
  00413ADB: CC                 int         3
  00413ADC: CC                 int         3
  00413ADD: CC                 int         3
  00413ADE: CC                 int         3
  00413ADF: CC                 int         3
__get_startup_new_mode:
  00413AE0: 55                 push        ebp
  00413AE1: 8B EC              mov         ebp,esp
  00413AE3: 33 C0              xor         eax,eax
  00413AE5: 5D                 pop         ebp
  00413AE6: C3                 ret
  00413AE7: CC                 int         3
  00413AE8: CC                 int         3
  00413AE9: CC                 int         3
  00413AEA: CC                 int         3
  00413AEB: CC                 int         3
  00413AEC: CC                 int         3
  00413AED: CC                 int         3
  00413AEE: CC                 int         3
  00413AEF: CC                 int         3
__get_startup_thread_locale_mode:
  00413AF0: 55                 push        ebp
  00413AF1: 8B EC              mov         ebp,esp
  00413AF3: 33 C0              xor         eax,eax
  00413AF5: 5D                 pop         ebp
  00413AF6: C3                 ret
  00413AF7: CC                 int         3
  00413AF8: CC                 int         3
  00413AF9: CC                 int         3
  00413AFA: CC                 int         3
  00413AFB: CC                 int         3
  00413AFC: CC                 int         3
  00413AFD: CC                 int         3
  00413AFE: CC                 int         3
  00413AFF: CC                 int         3
?__scrt_initialize_type_info@@YAXXZ:
  00413B00: 55                 push        ebp
  00413B01: 8B EC              mov         ebp,esp
  00413B03: 68 40 A5 41 00     push        offset ?__type_info_root_node@@3U__type_info_node@@A
  00413B08: FF 15 3C B0 41 00  call        dword ptr [__imp__InitializeSListHead@4]
  00413B0E: 5D                 pop         ebp
  00413B0F: C3                 ret
  00413B10: CC                 int         3
  00413B11: CC                 int         3
  00413B12: CC                 int         3
  00413B13: CC                 int         3
  00413B14: CC                 int         3
  00413B15: CC                 int         3
  00413B16: CC                 int         3
  00413B17: CC                 int         3
  00413B18: CC                 int         3
  00413B19: CC                 int         3
  00413B1A: CC                 int         3
  00413B1B: CC                 int         3
  00413B1C: CC                 int         3
  00413B1D: CC                 int         3
  00413B1E: CC                 int         3
  00413B1F: CC                 int         3
?__scrt_uninitialize_type_info@@YAXXZ:
  00413B20: 55                 push        ebp
  00413B21: 8B EC              mov         ebp,esp
  00413B23: 68 40 A5 41 00     push        offset ?__type_info_root_node@@3U__type_info_node@@A
  00413B28: E8 D2 D5 FF FF     call        @ILT+250(___std_type_info_destroy_list)
  00413B2D: 83 C4 04           add         esp,4
  00413B30: 5D                 pop         ebp
  00413B31: C3                 ret
  00413B32: CC                 int         3
  00413B33: CC                 int         3
  00413B34: CC                 int         3
  00413B35: CC                 int         3
  00413B36: CC                 int         3
  00413B37: CC                 int         3
  00413B38: CC                 int         3
  00413B39: CC                 int         3
  00413B3A: CC                 int         3
  00413B3B: CC                 int         3
  00413B3C: CC                 int         3
  00413B3D: CC                 int         3
  00413B3E: CC                 int         3
  00413B3F: CC                 int         3
__should_initialize_environment:
  00413B40: 55                 push        ebp
  00413B41: 8B EC              mov         ebp,esp
  00413B43: B0 01              mov         al,1
  00413B45: 5D                 pop         ebp
  00413B46: C3                 ret
  00413B47: CC                 int         3
  00413B48: CC                 int         3
  00413B49: CC                 int         3
  00413B4A: CC                 int         3
  00413B4B: CC                 int         3
  00413B4C: CC                 int         3
  00413B4D: CC                 int         3
  00413B4E: CC                 int         3
  00413B4F: CC                 int         3
__initialize_default_precision:
  00413B50: 55                 push        ebp
  00413B51: 8B EC              mov         ebp,esp
  00413B53: 68 00 00 03 00     push        30000h
  00413B58: 68 00 00 01 00     push        10000h
  00413B5D: 6A 00              push        0
  00413B5F: E8 E0 D6 FF FF     call        @ILT+575(__controlfp_s)
  00413B64: 83 C4 0C           add         esp,0Ch
  00413B67: 85 C0              test        eax,eax
  00413B69: 74 07              je          00413B72
  00413B6B: 6A 07              push        7
  00413B6D: E8 06 D5 FF FF     call        @ILT+115(___scrt_fastfail)
  00413B72: 5D                 pop         ebp
  00413B73: C3                 ret
  00413B74: CC                 int         3
  00413B75: CC                 int         3
  00413B76: CC                 int         3
  00413B77: CC                 int         3
  00413B78: CC                 int         3
  00413B79: CC                 int         3
  00413B7A: CC                 int         3
  00413B7B: CC                 int         3
  00413B7C: CC                 int         3
  00413B7D: CC                 int         3
  00413B7E: CC                 int         3
  00413B7F: CC                 int         3
__initialize_invalid_parameter_handler:
  00413B80: 55                 push        ebp
  00413B81: 8B EC              mov         ebp,esp
  00413B83: 5D                 pop         ebp
  00413B84: C3                 ret
  00413B85: CC                 int         3
  00413B86: CC                 int         3
  00413B87: CC                 int         3
  00413B88: CC                 int         3
  00413B89: CC                 int         3
  00413B8A: CC                 int         3
  00413B8B: CC                 int         3
  00413B8C: CC                 int         3
  00413B8D: CC                 int         3
  00413B8E: CC                 int         3
  00413B8F: CC                 int         3
__initialize_denormal_control:
  00413B90: 55                 push        ebp
  00413B91: 8B EC              mov         ebp,esp
  00413B93: 5D                 pop         ebp
  00413B94: C3                 ret
  00413B95: CC                 int         3
  00413B96: CC                 int         3
  00413B97: CC                 int         3
  00413B98: CC                 int         3
  00413B99: CC                 int         3
  00413B9A: CC                 int         3
  00413B9B: CC                 int         3
  00413B9C: CC                 int         3
  00413B9D: CC                 int         3
  00413B9E: CC                 int         3
  00413B9F: CC                 int         3
___local_stdio_scanf_options:
  00413BA0: 55                 push        ebp
  00413BA1: 8B EC              mov         ebp,esp
  00413BA3: B8 50 A5 41 00     mov         eax,offset ?_OptionsStorage@?1??__local_stdio_scanf_options@@9@4_KA
  00413BA8: 5D                 pop         ebp
  00413BA9: C3                 ret
  00413BAA: CC                 int         3
  00413BAB: CC                 int         3
  00413BAC: CC                 int         3
  00413BAD: CC                 int         3
  00413BAE: CC                 int         3
  00413BAF: CC                 int         3
___scrt_initialize_default_local_stdio_options:
  00413BB0: 55                 push        ebp
  00413BB1: 8B EC              mov         ebp,esp
  00413BB3: 83 EC 08           sub         esp,8
  00413BB6: E8 9C D7 FF FF     call        @ILT+850(___local_stdio_printf_options)
  00413BBB: 89 45 FC           mov         dword ptr [ebp-4],eax
  00413BBE: 8B 45 FC           mov         eax,dword ptr [ebp-4]
  00413BC1: 8B 08              mov         ecx,dword ptr [eax]
  00413BC3: 83 C9 04           or          ecx,4
  00413BC6: 8B 50 04           mov         edx,dword ptr [eax+4]
  00413BC9: 8B 45 FC           mov         eax,dword ptr [ebp-4]
  00413BCC: 89 08              mov         dword ptr [eax],ecx
  00413BCE: 89 50 04           mov         dword ptr [eax+4],edx
  00413BD1: E8 37 D6 FF FF     call        @ILT+520(___local_stdio_scanf_options)
  00413BD6: 89 45 F8           mov         dword ptr [ebp-8],eax
  00413BD9: 8B 4D F8           mov         ecx,dword ptr [ebp-8]
  00413BDC: 8B 11              mov         edx,dword ptr [ecx]
  00413BDE: 83 CA 02           or          edx,2
  00413BE1: 8B 41 04           mov         eax,dword ptr [ecx+4]
  00413BE4: 8B 4D F8           mov         ecx,dword ptr [ebp-8]
  00413BE7: 89 11              mov         dword ptr [ecx],edx
  00413BE9: 89 41 04           mov         dword ptr [ecx+4],eax
  00413BEC: 8B E5              mov         esp,ebp
  00413BEE: 5D                 pop         ebp
  00413BEF: C3                 ret
  00413BF0: CC                 int         3
  00413BF1: CC                 int         3
  00413BF2: CC                 int         3
  00413BF3: CC                 int         3
  00413BF4: CC                 int         3
  00413BF5: CC                 int         3
  00413BF6: CC                 int         3
  00413BF7: CC                 int         3
  00413BF8: CC                 int         3
  00413BF9: CC                 int         3
  00413BFA: CC                 int         3
  00413BFB: CC                 int         3
  00413BFC: CC                 int         3
  00413BFD: CC                 int         3
  00413BFE: CC                 int         3
  00413BFF: CC                 int         3
___scrt_is_user_matherr_present:
  00413C00: 55                 push        ebp
  00413C01: 8B EC              mov         ebp,esp
  00413C03: 51                 push        ecx
  00413C04: 83 3D 28 A0 41 00  cmp         dword ptr [___scrt_default_matherr],0
            00
  00413C0B: 75 09              jne         00413C16
  00413C0D: C7 45 FC 01 00 00  mov         dword ptr [ebp-4],1
            00
  00413C14: EB 07              jmp         00413C1D
  00413C16: C7 45 FC 00 00 00  mov         dword ptr [ebp-4],0
            00
  00413C1D: 8B 45 FC           mov         eax,dword ptr [ebp-4]
  00413C20: 8B E5              mov         esp,ebp
  00413C22: 5D                 pop         ebp
  00413C23: C3                 ret
  00413C24: CC                 int         3
  00413C25: CC                 int         3
  00413C26: CC                 int         3
  00413C27: CC                 int         3
  00413C28: CC                 int         3
  00413C29: CC                 int         3
  00413C2A: CC                 int         3
  00413C2B: CC                 int         3
  00413C2C: CC                 int         3
  00413C2D: CC                 int         3
  00413C2E: CC                 int         3
  00413C2F: CC                 int         3
___scrt_get_dyn_tls_init_callback:
  00413C30: 55                 push        ebp
  00413C31: 8B EC              mov         ebp,esp
  00413C33: B8 80 A5 41 00     mov         eax,offset ___dyn_tls_init_callback
  00413C38: 5D                 pop         ebp
  00413C39: C3                 ret
  00413C3A: CC                 int         3
  00413C3B: CC                 int         3
  00413C3C: CC                 int         3
  00413C3D: CC                 int         3
  00413C3E: CC                 int         3
  00413C3F: CC                 int         3
___scrt_get_dyn_tls_dtor_callback:
  00413C40: 55                 push        ebp
  00413C41: 8B EC              mov         ebp,esp
  00413C43: B8 74 A5 41 00     mov         eax,offset ___dyn_tls_dtor_callback
  00413C48: 5D                 pop         ebp
  00413C49: C3                 ret
  00413C4A: CC                 int         3
  00413C4B: CC                 int         3
  00413C4C: CC                 int         3
  00413C4D: CC                 int         3
  00413C4E: CC                 int         3
  00413C4F: CC                 int         3
___scrt_fastfail:
  00413C50: 55                 push        ebp
  00413C51: 8B EC              mov         ebp,esp
  00413C53: 81 EC 2C 03 00 00  sub         esp,32Ch
  00413C59: 6A 17              push        17h
  00413C5B: E8 AC D6 FF FF     call        @ILT+775(_IsProcessorFeaturePresent@4)
  00413C60: 85 C0              test        eax,eax
  00413C62: 74 05              je          00413C69
  00413C64: 8B 4D 08           mov         ecx,dword ptr [ebp+8]
  00413C67: CD 29              int         29h
  00413C69: 6A 03              push        3
  00413C6B: E8 C7 D3 FF FF     call        @ILT+50(__crt_debugger_hook)
  00413C70: 83 C4 04           add         esp,4
  00413C73: 68 CC 02 00 00     push        2CCh
  00413C78: 6A 00              push        0
  00413C7A: 8D 85 D4 FC FF FF  lea         eax,[ebp-32Ch]
  00413C80: 50                 push        eax
  00413C81: E8 4C D4 FF FF     call        @ILT+205(_memset)
  00413C86: 83 C4 0C           add         esp,0Ch
  00413C89: 89 85 84 FD FF FF  mov         dword ptr [ebp-27Ch],eax
  00413C8F: 89 8D 80 FD FF FF  mov         dword ptr [ebp-280h],ecx
  00413C95: 89 95 7C FD FF FF  mov         dword ptr [ebp-284h],edx
  00413C9B: 89 9D 78 FD FF FF  mov         dword ptr [ebp-288h],ebx
  00413CA1: 89 B5 74 FD FF FF  mov         dword ptr [ebp-28Ch],esi
  00413CA7: 89 BD 70 FD FF FF  mov         dword ptr [ebp-290h],edi
  00413CAD: 66 8C 95 9C FD FF  mov         word ptr [ebp-264h],ss
            FF
  00413CB4: 66 8C 8D 90 FD FF  mov         word ptr [ebp-270h],cs
            FF
  00413CBB: 66 8C 9D 6C FD FF  mov         word ptr [ebp-294h],ds
            FF
  00413CC2: 66 8C 85 68 FD FF  mov         word ptr [ebp-298h],es
            FF
  00413CC9: 66 8C A5 64 FD FF  mov         word ptr [ebp-29Ch],fs
            FF
  00413CD0: 66 8C AD 60 FD FF  mov         word ptr [ebp-2A0h],gs
            FF
  00413CD7: 9C                 pushfd
  00413CD8: 8F 85 94 FD FF FF  pop         dword ptr [ebp-26Ch]
  00413CDE: C7 85 D4 FC FF FF  mov         dword ptr [ebp-32Ch],10001h
            01 00 01 00
  00413CE8: 8B 4D 04           mov         ecx,dword ptr [ebp+4]
  00413CEB: 89 8D 8C FD FF FF  mov         dword ptr [ebp-274h],ecx
  00413CF1: 8D 55 04           lea         edx,[ebp+4]
  00413CF4: 89 95 98 FD FF FF  mov         dword ptr [ebp-268h],edx
  00413CFA: 8D 45 04           lea         eax,[ebp+4]
  00413CFD: 8B 48 FC           mov         ecx,dword ptr [eax-4]
  00413D00: 89 8D 88 FD FF FF  mov         dword ptr [ebp-278h],ecx
  00413D06: 6A 50              push        50h
  00413D08: 6A 00              push        0
  00413D0A: 8D 55 A0           lea         edx,[ebp-60h]
  00413D0D: 52                 push        edx
  00413D0E: E8 BF D3 FF FF     call        @ILT+205(_memset)
  00413D13: 83 C4 0C           add         esp,0Ch
  00413D16: C7 45 A0 15 00 00  mov         dword ptr [ebp-60h],40000015h
            40
  00413D1D: C7 45 A4 01 00 00  mov         dword ptr [ebp-5Ch],1
            00
  00413D24: 8B 45 04           mov         eax,dword ptr [ebp+4]
  00413D27: 89 45 AC           mov         dword ptr [ebp-54h],eax
  00413D2A: FF 15 38 B0 41 00  call        dword ptr [__imp__IsDebuggerPresent@0]
  00413D30: 83 F8 01           cmp         eax,1
  00413D33: 75 06              jne         00413D3B
  00413D35: C6 45 FF 01        mov         byte ptr [ebp-1],1
  00413D39: EB 04              jmp         00413D3F
  00413D3B: C6 45 FF 00        mov         byte ptr [ebp-1],0
  00413D3F: 8A 4D FF           mov         cl,byte ptr [ebp-1]
  00413D42: 88 4D FE           mov         byte ptr [ebp-2],cl
  00413D45: 8D 55 A0           lea         edx,[ebp-60h]
  00413D48: 89 55 F0           mov         dword ptr [ebp-10h],edx
  00413D4B: 8D 85 D4 FC FF FF  lea         eax,[ebp-32Ch]
  00413D51: 89 45 F4           mov         dword ptr [ebp-0Ch],eax
  00413D54: 6A 00              push        0
  00413D56: FF 15 14 B0 41 00  call        dword ptr [__imp__SetUnhandledExceptionFilter@4]
  00413D5C: 8D 4D F0           lea         ecx,[ebp-10h]
  00413D5F: 51                 push        ecx
  00413D60: FF 15 10 B0 41 00  call        dword ptr [__imp__UnhandledExceptionFilter@4]
  00413D66: 89 45 F8           mov         dword ptr [ebp-8],eax
  00413D69: 83 7D F8 00        cmp         dword ptr [ebp-8],0
  00413D6D: 75 12              jne         00413D81
  00413D6F: 0F B6 55 FE        movzx       edx,byte ptr [ebp-2]
  00413D73: 85 D2              test        edx,edx
  00413D75: 75 0A              jne         00413D81
  00413D77: 6A 03              push        3
  00413D79: E8 B9 D2 FF FF     call        @ILT+50(__crt_debugger_hook)
  00413D7E: 83 C4 04           add         esp,4
  00413D81: 8B E5              mov         esp,ebp
  00413D83: 5D                 pop         ebp
  00413D84: C3                 ret
  00413D85: CC                 int         3
  00413D86: CC                 int         3
  00413D87: CC                 int         3
  00413D88: CC                 int         3
  00413D89: CC                 int         3
  00413D8A: CC                 int         3
  00413D8B: CC                 int         3
  00413D8C: CC                 int         3
  00413D8D: CC                 int         3
  00413D8E: CC                 int         3
  00413D8F: CC                 int         3
  00413D90: CC                 int         3
  00413D91: CC                 int         3
  00413D92: CC                 int         3
  00413D93: CC                 int         3
  00413D94: CC                 int         3
  00413D95: CC                 int         3
  00413D96: CC                 int         3
  00413D97: CC                 int         3
  00413D98: CC                 int         3
  00413D99: CC                 int         3
  00413D9A: CC                 int         3
  00413D9B: CC                 int         3
  00413D9C: CC                 int         3
  00413D9D: CC                 int         3
  00413D9E: CC                 int         3
  00413D9F: CC                 int         3
  00413DA0: CC                 int         3
  00413DA1: CC                 int         3
  00413DA2: CC                 int         3
  00413DA3: CC                 int         3
  00413DA4: CC                 int         3
  00413DA5: CC                 int         3
  00413DA6: CC                 int         3
  00413DA7: CC                 int         3
  00413DA8: CC                 int         3
  00413DA9: CC                 int         3
  00413DAA: CC                 int         3
  00413DAB: CC                 int         3
  00413DAC: CC                 int         3
  00413DAD: CC                 int         3
  00413DAE: CC                 int         3
  00413DAF: CC                 int         3
  00413DB0: CC                 int         3
  00413DB1: CC                 int         3
  00413DB2: CC                 int         3
  00413DB3: CC                 int         3
  00413DB4: CC                 int         3
  00413DB5: CC                 int         3
  00413DB6: CC                 int         3
  00413DB7: CC                 int         3
  00413DB8: CC                 int         3
  00413DB9: CC                 int         3
  00413DBA: CC                 int         3
  00413DBB: CC                 int         3
  00413DBC: CC                 int         3
  00413DBD: CC                 int         3
  00413DBE: CC                 int         3
  00413DBF: CC                 int         3
  00413DC0: CC                 int         3
  00413DC1: CC                 int         3
  00413DC2: CC                 int         3
  00413DC3: CC                 int         3
  00413DC4: CC                 int         3
  00413DC5: CC                 int         3
  00413DC6: CC                 int         3
  00413DC7: CC                 int         3
  00413DC8: CC                 int         3
  00413DC9: CC                 int         3
  00413DCA: CC                 int         3
  00413DCB: CC                 int         3
  00413DCC: CC                 int         3
  00413DCD: CC                 int         3
  00413DCE: CC                 int         3
  00413DCF: CC                 int         3
  00413DD0: CC                 int         3
  00413DD1: CC                 int         3
  00413DD2: CC                 int         3
  00413DD3: CC                 int         3
  00413DD4: CC                 int         3
  00413DD5: CC                 int         3
  00413DD6: CC                 int         3
  00413DD7: CC                 int         3
  00413DD8: CC                 int         3
  00413DD9: CC                 int         3
  00413DDA: CC                 int         3
  00413DDB: CC                 int         3
  00413DDC: CC                 int         3
  00413DDD: CC                 int         3
  00413DDE: CC                 int         3
  00413DDF: CC                 int         3
___scrt_get_show_window_mode:
  00413DE0: 55                 push        ebp
  00413DE1: 8B EC              mov         ebp,esp
  00413DE3: 83 EC 48           sub         esp,48h
  00413DE6: 6A 44              push        44h
  00413DE8: 6A 00              push        0
  00413DEA: 8D 45 B8           lea         eax,[ebp-48h]
  00413DED: 50                 push        eax
  00413DEE: E8 DF D2 FF FF     call        @ILT+205(_memset)
  00413DF3: 83 C4 0C           add         esp,0Ch
  00413DF6: 8D 4D B8           lea         ecx,[ebp-48h]
  00413DF9: 51                 push        ecx
  00413DFA: FF 15 00 B0 41 00  call        dword ptr [__imp__GetStartupInfoW@4]
  00413E00: 8B 55 E4           mov         edx,dword ptr [ebp-1Ch]
  00413E03: 83 E2 01           and         edx,1
  00413E06: 74 09              je          00413E11
  00413E08: 0F B7 45 E8        movzx       eax,word ptr [ebp-18h]
  00413E0C: 89 45 FC           mov         dword ptr [ebp-4],eax
  00413E0F: EB 07              jmp         00413E18
  00413E11: C7 45 FC 0A 00 00  mov         dword ptr [ebp-4],0Ah
            00
  00413E18: 66 8B 45 FC        mov         ax,word ptr [ebp-4]
  00413E1C: 8B E5              mov         esp,ebp
  00413E1E: 5D                 pop         ebp
  00413E1F: C3                 ret
  00413E20: CC                 int         3
  00413E21: CC                 int         3
  00413E22: CC                 int         3
  00413E23: CC                 int         3
  00413E24: CC                 int         3
  00413E25: CC                 int         3
  00413E26: CC                 int         3
  00413E27: CC                 int         3
  00413E28: CC                 int         3
  00413E29: CC                 int         3
  00413E2A: CC                 int         3
  00413E2B: CC                 int         3
  00413E2C: CC                 int         3
  00413E2D: CC                 int         3
  00413E2E: CC                 int         3
  00413E2F: CC                 int         3
___scrt_initialize_winrt:
  00413E30: 55                 push        ebp
  00413E31: 8B EC              mov         ebp,esp
  00413E33: 33 C0              xor         eax,eax
  00413E35: 5D                 pop         ebp
  00413E36: C3                 ret
  00413E37: CC                 int         3
  00413E38: CC                 int         3
  00413E39: CC                 int         3
  00413E3A: CC                 int         3
  00413E3B: CC                 int         3
  00413E3C: CC                 int         3
  00413E3D: CC                 int         3
  00413E3E: CC                 int         3
  00413E3F: CC                 int         3
___scrt_is_managed_app:
  00413E40: 55                 push        ebp
  00413E41: 8B EC              mov         ebp,esp
  00413E43: 83 EC 08           sub         esp,8
  00413E46: 6A 00              push        0
  00413E48: FF 15 34 B0 41 00  call        dword ptr [__imp__GetModuleHandleW@4]
  00413E4E: 89 45 FC           mov         dword ptr [ebp-4],eax
  00413E51: 83 7D FC 00        cmp         dword ptr [ebp-4],0
  00413E55: 75 04              jne         00413E5B
  00413E57: 32 C0              xor         al,al
  00413E59: EB 64              jmp         00413EBF
  00413E5B: 8B 45 FC           mov         eax,dword ptr [ebp-4]
  00413E5E: 0F B7 08           movzx       ecx,word ptr [eax]
  00413E61: 81 F9 4D 5A 00 00  cmp         ecx,5A4Dh
  00413E67: 74 04              je          00413E6D
  00413E69: 32 C0              xor         al,al
  00413E6B: EB 52              jmp         00413EBF
  00413E6D: 8B 55 FC           mov         edx,dword ptr [ebp-4]
  00413E70: 8B 45 FC           mov         eax,dword ptr [ebp-4]
  00413E73: 03 42 3C           add         eax,dword ptr [edx+3Ch]
  00413E76: 89 45 F8           mov         dword ptr [ebp-8],eax
  00413E79: 8B 4D F8           mov         ecx,dword ptr [ebp-8]
  00413E7C: 81 39 50 45 00 00  cmp         dword ptr [ecx],4550h
  00413E82: 74 04              je          00413E88
  00413E84: 32 C0              xor         al,al
  00413E86: EB 37              jmp         00413EBF
  00413E88: 8B 55 F8           mov         edx,dword ptr [ebp-8]
  00413E8B: 0F B7 42 18        movzx       eax,word ptr [edx+18h]
  00413E8F: 3D 0B 01 00 00     cmp         eax,10Bh
  00413E94: 74 04              je          00413E9A
  00413E96: 32 C0              xor         al,al
  00413E98: EB 25              jmp         00413EBF
  00413E9A: 8B 4D F8           mov         ecx,dword ptr [ebp-8]
  00413E9D: 83 79 74 0E        cmp         dword ptr [ecx+74h],0Eh
  00413EA1: 77 04              ja          00413EA7
  00413EA3: 32 C0              xor         al,al
  00413EA5: EB 18              jmp         00413EBF
  00413EA7: BA 08 00 00 00     mov         edx,8
  00413EAC: 6B C2 0E           imul        eax,edx,0Eh
  00413EAF: 8B 4D F8           mov         ecx,dword ptr [ebp-8]
  00413EB2: 83 7C 01 78 00     cmp         dword ptr [ecx+eax+78h],0
  00413EB7: 75 04              jne         00413EBD
  00413EB9: 32 C0              xor         al,al
  00413EBB: EB 02              jmp         00413EBF
  00413EBD: B0 01              mov         al,1
  00413EBF: 8B E5              mov         esp,ebp
  00413EC1: 5D                 pop         ebp
  00413EC2: C3                 ret
  00413EC3: CC                 int         3
  00413EC4: CC                 int         3
  00413EC5: CC                 int         3
  00413EC6: CC                 int         3
  00413EC7: CC                 int         3
  00413EC8: CC                 int         3
  00413EC9: CC                 int         3
  00413ECA: CC                 int         3
  00413ECB: CC                 int         3
  00413ECC: CC                 int         3
  00413ECD: CC                 int         3
  00413ECE: CC                 int         3
  00413ECF: CC                 int         3
  00413ED0: CC                 int         3
  00413ED1: CC                 int         3
  00413ED2: CC                 int         3
  00413ED3: CC                 int         3
  00413ED4: CC                 int         3
  00413ED5: CC                 int         3
  00413ED6: CC                 int         3
  00413ED7: CC                 int         3
  00413ED8: CC                 int         3
  00413ED9: CC                 int         3
  00413EDA: CC                 int         3
  00413EDB: CC                 int         3
  00413EDC: CC                 int         3
  00413EDD: CC                 int         3
  00413EDE: CC                 int         3
  00413EDF: CC                 int         3
  00413EE0: CC                 int         3
  00413EE1: CC                 int         3
  00413EE2: CC                 int         3
  00413EE3: CC                 int         3
  00413EE4: CC                 int         3
  00413EE5: CC                 int         3
  00413EE6: CC                 int         3
  00413EE7: CC                 int         3
  00413EE8: CC                 int         3
  00413EE9: CC                 int         3
  00413EEA: CC                 int         3
  00413EEB: CC                 int         3
  00413EEC: CC                 int         3
  00413EED: CC                 int         3
  00413EEE: CC                 int         3
  00413EEF: CC                 int         3
___scrt_set_unhandled_exception_filter:
  00413EF0: 55                 push        ebp
  00413EF1: 8B EC              mov         ebp,esp
  00413EF3: 68 54 11 41 00     push        offset @ILT+335(___scrt_unhandled_exception_filter@4)
  00413EF8: FF 15 14 B0 41 00  call        dword ptr [__imp__SetUnhandledExceptionFilter@4]
  00413EFE: 5D                 pop         ebp
  00413EFF: C3                 ret
  00413F00: CC                 int         3
  00413F01: CC                 int         3
  00413F02: CC                 int         3
  00413F03: CC                 int         3
  00413F04: CC                 int         3
  00413F05: CC                 int         3
  00413F06: CC                 int         3
  00413F07: CC                 int         3
  00413F08: CC                 int         3
  00413F09: CC                 int         3
  00413F0A: CC                 int         3
  00413F0B: CC                 int         3
  00413F0C: CC                 int         3
  00413F0D: CC                 int         3
  00413F0E: CC                 int         3
  00413F0F: CC                 int         3
___scrt_unhandled_exception_filter@4:
  00413F10: 55                 push        ebp
  00413F11: 8B EC              mov         ebp,esp
  00413F13: 51                 push        ecx
  00413F14: 8B 45 08           mov         eax,dword ptr [ebp+8]
  00413F17: 8B 08              mov         ecx,dword ptr [eax]
  00413F19: 89 4D FC           mov         dword ptr [ebp-4],ecx
  00413F1C: 8B 55 FC           mov         edx,dword ptr [ebp-4]
  00413F1F: 81 3A 63 73 6D E0  cmp         dword ptr [edx],0E06D7363h
  00413F25: 75 3E              jne         00413F65
  00413F27: 8B 45 FC           mov         eax,dword ptr [ebp-4]
  00413F2A: 83 78 10 03        cmp         dword ptr [eax+10h],3
  00413F2E: 75 35              jne         00413F65
  00413F30: 8B 4D FC           mov         ecx,dword ptr [ebp-4]
  00413F33: 81 79 14 20 05 93  cmp         dword ptr [ecx+14h],19930520h
            19
  00413F3A: 74 24              je          00413F60
  00413F3C: 8B 55 FC           mov         edx,dword ptr [ebp-4]
  00413F3F: 81 7A 14 21 05 93  cmp         dword ptr [edx+14h],19930521h
            19
  00413F46: 74 18              je          00413F60
  00413F48: 8B 45 FC           mov         eax,dword ptr [ebp-4]
  00413F4B: 81 78 14 22 05 93  cmp         dword ptr [eax+14h],19930522h
            19
  00413F52: 74 0C              je          00413F60
  00413F54: 8B 4D FC           mov         ecx,dword ptr [ebp-4]
  00413F57: 81 79 14 00 40 99  cmp         dword ptr [ecx+14h],1994000h
            01
  00413F5E: 75 05              jne         00413F65
  00413F60: E8 C1 D2 FF FF     call        @ILT+545(_terminate)
  00413F65: 33 C0              xor         eax,eax
  00413F67: 8B E5              mov         esp,ebp
  00413F69: 5D                 pop         ebp
  00413F6A: C2 04 00           ret         4
  00413F6D: CC                 int         3
  00413F6E: CC                 int         3
  00413F6F: CC                 int         3
  00413F70: CC                 int         3
  00413F71: CC                 int         3
  00413F72: CC                 int         3
  00413F73: CC                 int         3
  00413F74: CC                 int         3
  00413F75: CC                 int         3
  00413F76: CC                 int         3
  00413F77: CC                 int         3
  00413F78: CC                 int         3
  00413F79: CC                 int         3
  00413F7A: CC                 int         3
  00413F7B: CC                 int         3
  00413F7C: CC                 int         3
  00413F7D: CC                 int         3
  00413F7E: CC                 int         3
  00413F7F: CC                 int         3
  00413F80: CC                 int         3
  00413F81: CC                 int         3
  00413F82: CC                 int         3
  00413F83: CC                 int         3
  00413F84: CC                 int         3
  00413F85: CC                 int         3
  00413F86: CC                 int         3
  00413F87: CC                 int         3
  00413F88: CC                 int         3
  00413F89: CC                 int         3
  00413F8A: CC                 int         3
  00413F8B: CC                 int         3
  00413F8C: CC                 int         3
  00413F8D: CC                 int         3
  00413F8E: CC                 int         3
  00413F8F: CC                 int         3
__crt_debugger_hook:
  00413F90: 55                 push        ebp
  00413F91: 8B EC              mov         ebp,esp
  00413F93: C7 05 5C A5 41 00  mov         dword ptr [___scrt_debugger_hook_flag],0
            00 00 00 00
  00413F9D: 5D                 pop         ebp
  00413F9E: C3                 ret
  00413F9F: CC                 int         3
  00413FA0: CC                 int         3
  00413FA1: CC                 int         3
  00413FA2: CC                 int         3
  00413FA3: CC                 int         3
  00413FA4: CC                 int         3
  00413FA5: CC                 int         3
  00413FA6: CC                 int         3
  00413FA7: CC                 int         3
  00413FA8: CC                 int         3
  00413FA9: CC                 int         3
  00413FAA: CC                 int         3
  00413FAB: CC                 int         3
  00413FAC: CC                 int         3
  00413FAD: CC                 int         3
  00413FAE: CC                 int         3
  00413FAF: CC                 int         3
__RTC_Initialize:
  00413FB0: 56                 push        esi
  00413FB1: BE 4C 89 41 00     mov         esi,41894Ch
  00413FB6: 8B C6              mov         eax,esi
  00413FB8: 3D 50 8B 41 00     cmp         eax,offset ___rtc_izz
  00413FBD: 73 1D              jae         00413FDC
  00413FBF: 57                 push        edi
  00413FC0: 8B 3E              mov         edi,dword ptr [esi]
  00413FC2: 85 FF              test        edi,edi
  00413FC4: 74 0A              je          00413FD0
  00413FC6: 8B CF              mov         ecx,edi
  00413FC8: FF 15 00 C0 41 00  call        dword ptr [___guard_check_icall_fptr]
  00413FCE: FF D7              call        edi
  00413FD0: 83 C6 04           add         esi,4
  00413FD3: 81 FE 50 8B 41 00  cmp         esi,offset ___rtc_izz
  00413FD9: 72 E5              jb          00413FC0
  00413FDB: 5F                 pop         edi
  00413FDC: 5E                 pop         esi
  00413FDD: C3                 ret
  00413FDE: CC                 int         3
  00413FDF: CC                 int         3
  00413FE0: CC                 int         3
  00413FE1: CC                 int         3
  00413FE2: CC                 int         3
  00413FE3: CC                 int         3
  00413FE4: CC                 int         3
  00413FE5: CC                 int         3
  00413FE6: CC                 int         3
  00413FE7: CC                 int         3
  00413FE8: CC                 int         3
  00413FE9: CC                 int         3
  00413FEA: CC                 int         3
  00413FEB: CC                 int         3
  00413FEC: CC                 int         3
  00413FED: CC                 int         3
  00413FEE: CC                 int         3
  00413FEF: CC                 int         3
__RTC_Terminate:
  00413FF0: 56                 push        esi
  00413FF1: BE 58 8C 41 00     mov         esi,418C58h
  00413FF6: 8B C6              mov         eax,esi
  00413FF8: 3D 5C 8E 41 00     cmp         eax,offset ___rtc_tzz
  00413FFD: 73 1D              jae         0041401C
  00413FFF: 57                 push        edi
  00414000: 8B 3E              mov         edi,dword ptr [esi]
  00414002: 85 FF              test        edi,edi
  00414004: 74 0A              je          00414010
  00414006: 8B CF              mov         ecx,edi
  00414008: FF 15 00 C0 41 00  call        dword ptr [___guard_check_icall_fptr]
  0041400E: FF D7              call        edi
  00414010: 83 C6 04           add         esi,4
  00414013: 81 FE 5C 8E 41 00  cmp         esi,offset ___rtc_tzz
  00414019: 72 E5              jb          00414000
  0041401B: 5F                 pop         edi
  0041401C: 5E                 pop         esi
  0041401D: C3                 ret
  0041401E: CC                 int         3
  0041401F: CC                 int         3
  00414020: CC                 int         3
  00414021: CC                 int         3
  00414022: CC                 int         3
  00414023: CC                 int         3
  00414024: CC                 int         3
  00414025: CC                 int         3
  00414026: CC                 int         3
  00414027: CC                 int         3
  00414028: CC                 int         3
  00414029: CC                 int         3
  0041402A: CC                 int         3
  0041402B: CC                 int         3
  0041402C: CC                 int         3
  0041402D: CC                 int         3
  0041402E: CC                 int         3
  0041402F: CC                 int         3
__except_handler4:
  00414030: 55                 push        ebp
  00414031: 8B EC              mov         ebp,esp
  00414033: 8B 45 14           mov         eax,dword ptr [ebp+14h]
  00414036: 50                 push        eax
  00414037: 8B 4D 10           mov         ecx,dword ptr [ebp+10h]
  0041403A: 51                 push        ecx
  0041403B: 8B 55 0C           mov         edx,dword ptr [ebp+0Ch]
  0041403E: 52                 push        edx
  0041403F: 8B 45 08           mov         eax,dword ptr [ebp+8]
  00414042: 50                 push        eax
  00414043: 68 8F 12 41 00     push        offset @ILT+650(@__security_check_cookie@4)
  00414048: 68 00 A0 41 00     push        offset ___security_cookie
  0041404D: E8 3F D0 FF FF     call        @ILT+140(__except_handler4_common)
  00414052: 83 C4 18           add         esp,18h
  00414055: 5D                 pop         ebp
  00414056: C3                 ret
  00414057: CC                 int         3
  00414058: CC                 int         3
  00414059: CC                 int         3
  0041405A: CC                 int         3
  0041405B: CC                 int         3
  0041405C: CC                 int         3
  0041405D: CC                 int         3
  0041405E: CC                 int         3
  0041405F: CC                 int         3
@_guard_check_icall_nop@4:
  00414060: 55                 push        ebp
  00414061: 8B EC              mov         ebp,esp
  00414063: 51                 push        ecx
  00414064: 89 4D FC           mov         dword ptr [ebp-4],ecx
  00414067: 8B E5              mov         esp,ebp
  00414069: 5D                 pop         ebp
  0041406A: C3                 ret
  0041406B: CC                 int         3
  0041406C: CC                 int         3
  0041406D: CC                 int         3
  0041406E: CC                 int         3
  0041406F: CC                 int         3
_ReadNoFence:
  00414070: 55                 push        ebp
  00414071: 8B EC              mov         ebp,esp
  00414073: 51                 push        ecx
  00414074: 8B 45 08           mov         eax,dword ptr [ebp+8]
  00414077: 8B 08              mov         ecx,dword ptr [eax]
  00414079: 89 4D FC           mov         dword ptr [ebp-4],ecx
  0041407C: 8B 45 FC           mov         eax,dword ptr [ebp-4]
  0041407F: 8B E5              mov         esp,ebp
  00414081: 5D                 pop         ebp
  00414082: C3                 ret
  00414083: CC                 int         3
  00414084: CC                 int         3
  00414085: CC                 int         3
  00414086: CC                 int         3
  00414087: CC                 int         3
  00414088: CC                 int         3
  00414089: CC                 int         3
  0041408A: CC                 int         3
  0041408B: CC                 int         3
  0041408C: CC                 int         3
  0041408D: CC                 int         3
  0041408E: CC                 int         3
  0041408F: CC                 int         3
_ReadPointerNoFence:
  00414090: 55                 push        ebp
  00414091: 8B EC              mov         ebp,esp
  00414093: 8B 45 08           mov         eax,dword ptr [ebp+8]
  00414096: 50                 push        eax
  00414097: E8 57 D2 FF FF     call        @ILT+750(_ReadNoFence)
  0041409C: 83 C4 04           add         esp,4
  0041409F: 5D                 pop         ebp
  004140A0: C3                 ret
  004140A1: CC                 int         3
  004140A2: CC                 int         3
  004140A3: CC                 int         3
  004140A4: CC                 int         3
  004140A5: CC                 int         3
  004140A6: CC                 int         3
  004140A7: CC                 int         3
  004140A8: CC                 int         3
  004140A9: CC                 int         3
  004140AA: CC                 int         3
  004140AB: CC                 int         3
  004140AC: CC                 int         3
  004140AD: CC                 int         3
  004140AE: CC                 int         3
  004140AF: CC                 int         3
__guard_icall_checks_enforced:
  004140B0: 55                 push        ebp
  004140B1: 8B EC              mov         ebp,esp
  004140B3: 51                 push        ecx
  004140B4: 68 00 C0 41 00     push        offset ___guard_check_icall_fptr
  004140B9: E8 92 CF FF FF     call        @ILT+75(_ReadPointerNoFence)
  004140BE: 83 C4 04           add         esp,4
  004140C1: 3D A3 12 41 00     cmp         eax,offset @ILT+670(@_guard_check_icall_nop@4)
  004140C6: 74 09              je          004140D1
  004140C8: C7 45 FC 01 00 00  mov         dword ptr [ebp-4],1
            00
  004140CF: EB 07              jmp         004140D8
  004140D1: C7 45 FC 00 00 00  mov         dword ptr [ebp-4],0
            00
  004140D8: 8B 45 FC           mov         eax,dword ptr [ebp-4]
  004140DB: 8B E5              mov         esp,ebp
  004140DD: 5D                 pop         ebp
  004140DE: C3                 ret
  004140DF: CC                 int         3
  004140E0: CC                 int         3
  004140E1: CC                 int         3
  004140E2: CC                 int         3
  004140E3: CC                 int         3
  004140E4: CC                 int         3
  004140E5: CC                 int         3
  004140E6: CC                 int         3
  004140E7: CC                 int         3
  004140E8: CC                 int         3
  004140E9: CC                 int         3
  004140EA: CC                 int         3
  004140EB: CC                 int         3
  004140EC: CC                 int         3
  004140ED: CC                 int         3
  004140EE: CC                 int         3
  004140EF: CC                 int         3
  004140F0: 55                 push        ebp
  004140F1: 8B EC              mov         ebp,esp
  004140F3: 81 EC 14 04 00 00  sub         esp,414h
  004140F9: A1 00 A0 41 00     mov         eax,dword ptr [___security_cookie]
  004140FE: 33 C5              xor         eax,ebp
  00414100: 89 45 FC           mov         dword ptr [ebp-4],eax
  00414103: 80 3D 64 A5 41 00  cmp         byte ptr ds:[41A564h],0
            00
  0041410A: 0F 85 10 01 00 00  jne         00414220
  00414110: C6 05 64 A5 41 00  mov         byte ptr ds:[41A564h],1
            01
  00414117: E8 64 01 00 00     call        00414280
  0041411C: 85 C0              test        eax,eax
  0041411E: 0F 85 FE 00 00 00  jne         00414222
  00414124: 68 74 83 41 00     push        418374h
  00414129: E8 51 D2 FF FF     call        @ILT+890(___vcrt_GetModuleHandleW)
  0041412E: 83 C4 04           add         esp,4
  00414131: 85 C0              test        eax,eax
  00414133: 74 78              je          004141AD
  00414135: 68 04 01 00 00     push        104h
  0041413A: 8D 8D EC FB FF FF  lea         ecx,[ebp-414h]
  00414140: 51                 push        ecx
  00414141: 50                 push        eax
  00414142: E8 B6 D1 FF FF     call        @ILT+760(___vcrt_GetModuleFileNameW)
  00414147: 83 C4 0C           add         esp,0Ch
  0041414A: 85 C0              test        eax,eax
  0041414C: 74 5F              je          004141AD
  0041414E: 68 04 01 00 00     push        104h
  00414153: 8D 85 F4 FD FF FF  lea         eax,[ebp-20Ch]
  00414159: 50                 push        eax
  0041415A: 8D 85 EC FB FF FF  lea         eax,[ebp-414h]
  00414160: 50                 push        eax
  00414161: E8 0A 04 00 00     call        00414570
  00414166: 83 C4 0C           add         esp,0Ch
  00414169: 85 C0              test        eax,eax
  0041416B: 74 40              je          004141AD
  0041416D: 68 00 09 00 00     push        900h
  00414172: 8D 85 F4 FD FF FF  lea         eax,[ebp-20Ch]
  00414178: 6A 00              push        0
  0041417A: 50                 push        eax
  0041417B: E8 EB D1 FF FF     call        @ILT+870(___vcrt_LoadLibraryExW)
  00414180: 83 C4 0C           add         esp,0Ch
  00414183: 85 C0              test        eax,eax
  00414185: 0F 85 97 00 00 00  jne         00414222
  0041418B: FF 15 30 B0 41 00  call        dword ptr [__imp__GetLastError@0]
  00414191: 83 F8 57           cmp         eax,57h
  00414194: 75 17              jne         004141AD
  00414196: 6A 08              push        8
  00414198: 8D 85 F4 FD FF FF  lea         eax,[ebp-20Ch]
  0041419E: 6A 00              push        0
  004141A0: 50                 push        eax
  004141A1: E8 C5 D1 FF FF     call        @ILT+870(___vcrt_LoadLibraryExW)
  004141A6: 83 C4 0C           add         esp,0Ch
  004141A9: 85 C0              test        eax,eax
  004141AB: 75 75              jne         00414222
  004141AD: 68 00 0A 00 00     push        0A00h
  004141B2: 6A 00              push        0
  004141B4: 68 24 85 41 00     push        offset ??_C@_1BC@JINFINNJ@?$AAM?$AAS?$AAP?$AAD?$AAB?$AA1?$AA4?$AA0?$AA?$AA@
  004141B9: E8 AD D1 FF FF     call        @ILT+870(___vcrt_LoadLibraryExW)
  004141BE: 83 C4 0C           add         esp,0Ch
  004141C1: 85 C0              test        eax,eax
  004141C3: 75 5D              jne         00414222
  004141C5: FF 15 30 B0 41 00  call        dword ptr [__imp__GetLastError@0]
  004141CB: 83 F8 57           cmp         eax,57h
  004141CE: 75 50              jne         00414220
  004141D0: 68 04 01 00 00     push        104h
  004141D5: 8D 85 EC FB FF FF  lea         eax,[ebp-414h]
  004141DB: 50                 push        eax
  004141DC: 6A 00              push        0
  004141DE: E8 1A D1 FF FF     call        @ILT+760(___vcrt_GetModuleFileNameW)
  004141E3: 83 C4 0C           add         esp,0Ch
  004141E6: 85 C0              test        eax,eax
  004141E8: 74 36              je          00414220
  004141EA: 68 04 01 00 00     push        104h
  004141EF: 8D 85 F4 FD FF FF  lea         eax,[ebp-20Ch]
  004141F5: 50                 push        eax
  004141F6: 8D 85 EC FB FF FF  lea         eax,[ebp-414h]
  004141FC: 50                 push        eax
  004141FD: E8 6E 03 00 00     call        00414570
  00414202: 83 C4 0C           add         esp,0Ch
  00414205: 85 C0              test        eax,eax
  00414207: 74 17              je          00414220
  00414209: 6A 08              push        8
  0041420B: 8D 85 F4 FD FF FF  lea         eax,[ebp-20Ch]
  00414211: 6A 00              push        0
  00414213: 50                 push        eax
  00414214: E8 52 D1 FF FF     call        @ILT+870(___vcrt_LoadLibraryExW)
  00414219: 83 C4 0C           add         esp,0Ch
  0041421C: 85 C0              test        eax,eax
  0041421E: 75 02              jne         00414222
  00414220: 33 C0              xor         eax,eax
  00414222: 8B 4D FC           mov         ecx,dword ptr [ebp-4]
  00414225: 33 CD              xor         ecx,ebp
  00414227: E8 63 D0 FF FF     call        @ILT+650(@__security_check_cookie@4)
  0041422C: 8B E5              mov         esp,ebp
  0041422E: 5D                 pop         ebp
  0041422F: C3                 ret
  00414230: CC                 int         3
  00414231: CC                 int         3
  00414232: CC                 int         3
  00414233: CC                 int         3
  00414234: CC                 int         3
  00414235: CC                 int         3
  00414236: CC                 int         3
  00414237: CC                 int         3
  00414238: CC                 int         3
  00414239: CC                 int         3
  0041423A: CC                 int         3
  0041423B: CC                 int         3
  0041423C: CC                 int         3
  0041423D: CC                 int         3
  0041423E: CC                 int         3
  0041423F: CC                 int         3
  00414240: CC                 int         3
  00414241: CC                 int         3
  00414242: CC                 int         3
  00414243: CC                 int         3
  00414244: CC                 int         3
  00414245: CC                 int         3
  00414246: CC                 int         3
  00414247: CC                 int         3
  00414248: CC                 int         3
  00414249: CC                 int         3
  0041424A: CC                 int         3
  0041424B: CC                 int         3
  0041424C: CC                 int         3
  0041424D: CC                 int         3
  0041424E: CC                 int         3
  0041424F: CC                 int         3
  00414250: CC                 int         3
  00414251: CC                 int         3
  00414252: CC                 int         3
  00414253: CC                 int         3
  00414254: CC                 int         3
  00414255: CC                 int         3
  00414256: CC                 int         3
  00414257: CC                 int         3
  00414258: CC                 int         3
  00414259: CC                 int         3
  0041425A: CC                 int         3
  0041425B: CC                 int         3
  0041425C: CC                 int         3
  0041425D: CC                 int         3
  0041425E: CC                 int         3
  0041425F: CC                 int         3
  00414260: CC                 int         3
  00414261: CC                 int         3
  00414262: CC                 int         3
  00414263: CC                 int         3
  00414264: CC                 int         3
  00414265: CC                 int         3
  00414266: CC                 int         3
  00414267: CC                 int         3
  00414268: CC                 int         3
  00414269: CC                 int         3
  0041426A: CC                 int         3
  0041426B: CC                 int         3
  0041426C: CC                 int         3
  0041426D: CC                 int         3
  0041426E: CC                 int         3
  0041426F: CC                 int         3
  00414270: CC                 int         3
  00414271: CC                 int         3
  00414272: CC                 int         3
  00414273: CC                 int         3
  00414274: CC                 int         3
  00414275: CC                 int         3
  00414276: CC                 int         3
  00414277: CC                 int         3
  00414278: CC                 int         3
  00414279: CC                 int         3
  0041427A: CC                 int         3
  0041427B: CC                 int         3
  0041427C: CC                 int         3
  0041427D: CC                 int         3
  0041427E: CC                 int         3
  0041427F: CC                 int         3
  00414280: 55                 push        ebp
  00414281: 8B EC              mov         ebp,esp
  00414283: 81 EC 1C 02 00 00  sub         esp,21Ch
  00414289: A1 00 A0 41 00     mov         eax,dword ptr [___security_cookie]
  0041428E: 33 C5              xor         eax,ebp
  00414290: 89 45 FC           mov         dword ptr [ebp-4],eax
  00414293: 53                 push        ebx
  00414294: 56                 push        esi
  00414295: 57                 push        edi
  00414296: 68 00 08 00 00     push        800h
  0041429B: 6A 00              push        0
  0041429D: 68 A8 83 41 00     push        offset ??_C@_1EI@MLPKHBGE@?$AAa?$AAp?$AAi?$AA?9?$AAm?$AAs?$AA?9?$AAw?$AAi?$AAn?$AA?9?$AAc?$AAo?$AAr?$AAe?$AA?9?$AAr?$AAe?$AAg?$AAi?$AAs?$AAt?$AAr?$AAy?$AA?9?$AAl?$AA1?$AA?9?$AA1?$AA?9?$AA0?$AA?4@
  004142A2: E8 C4 D0 FF FF     call        @ILT+870(___vcrt_LoadLibraryExW)
  004142A7: 8B F8              mov         edi,eax
  004142A9: 83 C4 0C           add         esp,0Ch
  004142AC: 85 FF              test        edi,edi
  004142AE: 75 39              jne         004142E9
  004142B0: 68 00 08 00 00     push        800h
  004142B5: 50                 push        eax
  004142B6: 68 00 84 41 00     push        offset ??_C@_1BK@JHLNAEJL@?$AAa?$AAd?$AAv?$AAa?$AAp?$AAi?$AA3?$AA2?$AA?4?$AAd?$AAl?$AAl?$AA?$AA@
  004142BB: E8 AB D0 FF FF     call        @ILT+870(___vcrt_LoadLibraryExW)
  004142C0: 8B F8              mov         edi,eax
  004142C2: 83 C4 0C           add         esp,0Ch
  004142C5: 85 FF              test        edi,edi
  004142C7: 75 20              jne         004142E9
  004142C9: FF 15 30 B0 41 00  call        dword ptr [__imp__GetLastError@0]
  004142CF: 83 F8 57           cmp         eax,57h
  004142D2: 75 79              jne         0041434D
  004142D4: 57                 push        edi
  004142D5: 57                 push        edi
  004142D6: 68 00 84 41 00     push        offset ??_C@_1BK@JHLNAEJL@?$AAa?$AAd?$AAv?$AAa?$AAp?$AAi?$AA3?$AA2?$AA?4?$AAd?$AAl?$AAl?$AA?$AA@
  004142DB: E8 8B D0 FF FF     call        @ILT+870(___vcrt_LoadLibraryExW)
  004142E0: 8B F8              mov         edi,eax
  004142E2: 83 C4 0C           add         esp,0Ch
  004142E5: 85 FF              test        edi,edi
  004142E7: 74 64              je          0041434D
  004142E9: 68 20 84 41 00     push        offset ??_C@_0O@COHOBMLB@RegOpenKeyExW?$AA@
  004142EE: 57                 push        edi
  004142EF: FF 15 18 B0 41 00  call        dword ptr [__imp__GetProcAddress@8]
  004142F5: 8B F0              mov         esi,eax
  004142F7: 85 F6              test        esi,esi
  004142F9: 74 52              je          0041434D
  004142FB: 68 30 84 41 00     push        offset ??_C@_0BB@GLNAEDBD@RegQueryValueExW?$AA@
  00414300: 57                 push        edi
  00414301: FF 15 18 B0 41 00  call        dword ptr [__imp__GetProcAddress@8]
  00414307: 8B D8              mov         ebx,eax
  00414309: 85 DB              test        ebx,ebx
  0041430B: 74 40              je          0041434D
  0041430D: 68 44 84 41 00     push        offset ??_C@_0M@HLOHPNFA@RegCloseKey?$AA@
  00414312: 57                 push        edi
  00414313: FF 15 18 B0 41 00  call        dword ptr [__imp__GetProcAddress@8]
  00414319: 89 85 E8 FD FF FF  mov         dword ptr [ebp-218h],eax
  0041431F: 85 C0              test        eax,eax
  00414321: 74 2A              je          0041434D
  00414323: 8D 85 F0 FD FF FF  lea         eax,[ebp-210h]
  00414329: 8B CE              mov         ecx,esi
  0041432B: 50                 push        eax
  0041432C: 6A 01              push        1
  0041432E: 6A 00              push        0
  00414330: 68 58 84 41 00     push        offset ??_C@_1HE@EBEAGLFB@?$AAS?$AAO?$AAF?$AAT?$AAW?$AAA?$AAR?$AAE?$AA?2?$AAW?$AAo?$AAw?$AA6?$AA4?$AA3?$AA2?$AAN?$AAo?$AAd?$AAe?$AA?2?$AAM?$AAi?$AAc?$AAr?$AAo?$AAs?$AAo?$AAf?$AAt?$AA?2?$AAV@
  00414335: 68 02 00 00 80     push        80000002h
  0041433A: FF 15 00 C0 41 00  call        dword ptr [___guard_check_icall_fptr]
  00414340: FF D6              call        esi
  00414342: 85 C0              test        eax,eax
  00414344: 74 1A              je          00414360
  00414346: 57                 push        edi
  00414347: FF 15 1C B0 41 00  call        dword ptr [__imp__FreeLibrary@4]
  0041434D: 5F                 pop         edi
  0041434E: 5E                 pop         esi
  0041434F: 33 C0              xor         eax,eax
  00414351: 5B                 pop         ebx
  00414352: 8B 4D FC           mov         ecx,dword ptr [ebp-4]
  00414355: 33 CD              xor         ecx,ebp
  00414357: E8 33 CF FF FF     call        @ILT+650(@__security_check_cookie@4)
  0041435C: 8B E5              mov         esp,ebp
  0041435E: 5D                 pop         ebp
  0041435F: C3                 ret
  00414360: 8D 85 EC FD FF FF  lea         eax,[ebp-214h]
  00414366: C7 85 EC FD FF FF  mov         dword ptr [ebp-214h],208h
            08 02 00 00
  00414370: 50                 push        eax
  00414371: 8D 85 F4 FD FF FF  lea         eax,[ebp-20Ch]
  00414377: 8B CB              mov         ecx,ebx
  00414379: 50                 push        eax
  0041437A: 8D 85 E4 FD FF FF  lea         eax,[ebp-21Ch]
  00414380: 50                 push        eax
  00414381: 6A 00              push        0
  00414383: 68 E4 84 41 00     push        offset ??_C@_1BG@EABPBLLF@?$AAP?$AAr?$AAo?$AAd?$AAu?$AAc?$AAt?$AAD?$AAi?$AAr?$AA?$AA@
  00414388: FF B5 F0 FD FF FF  push        dword ptr [ebp-210h]
  0041438E: FF 15 00 C0 41 00  call        dword ptr [___guard_check_icall_fptr]
  00414394: FF D3              call        ebx
  00414396: FF B5 F0 FD FF FF  push        dword ptr [ebp-210h]
  0041439C: 8B 9D E8 FD FF FF  mov         ebx,dword ptr [ebp-218h]
  004143A2: 8B F0              mov         esi,eax
  004143A4: 8B CB              mov         ecx,ebx
  004143A6: FF 15 00 C0 41 00  call        dword ptr [___guard_check_icall_fptr]
  004143AC: FF D3              call        ebx
  004143AE: 57                 push        edi
  004143AF: FF 15 1C B0 41 00  call        dword ptr [__imp__FreeLibrary@4]
  004143B5: 85 F6              test        esi,esi
  004143B7: 75 94              jne         0041434D
  004143B9: 83 BD E4 FD FF FF  cmp         dword ptr [ebp-21Ch],1
            01
  004143C0: 75 8B              jne         0041434D
  004143C2: 8B 8D EC FD FF FF  mov         ecx,dword ptr [ebp-214h]
  004143C8: F6 C1 01           test        cl,1
  004143CB: 75 80              jne         0041434D
  004143CD: D1 E9              shr         ecx,1
  004143CF: 8B D1              mov         edx,ecx
  004143D1: 83 F9 02           cmp         ecx,2
  004143D4: 0F 82 73 FF FF FF  jb          0041434D
  004143DA: 49                 dec         ecx
  004143DB: 8D 85 F4 FD FF FF  lea         eax,[ebp-20Ch]
  004143E1: 66 39 34 48        cmp         word ptr [eax+ecx*2],si
  004143E5: 8D 04 48           lea         eax,[eax+ecx*2]
  004143E8: 0F 85 5F FF FF FF  jne         0041434D
  004143EE: 66 83 78 FE 5C     cmp         word ptr [eax-2],5Ch
  004143F3: 74 0A              je          004143FF
  004143F5: B9 5C 00 00 00     mov         ecx,5Ch
  004143FA: 66 89 08           mov         word ptr [eax],cx
  004143FD: 8B CA              mov         ecx,edx
  004143FF: 8B C1              mov         eax,ecx
  00414401: F7 D0              not         eax
  00414403: 83 F8 12           cmp         eax,12h
  00414406: 0F 82 41 FF FF FF  jb          0041434D
  0041440C: 8D 41 11           lea         eax,[ecx+11h]
  0041440F: 3D 04 01 00 00     cmp         eax,104h
  00414414: 0F 87 33 FF FF FF  ja          0041434D
  0041441A: A1 50 83 41 00     mov         eax,dword ptr ds:[00418350h]
  0041441F: 89 84 4D F4 FD FF  mov         dword ptr [ebp+ecx*2-20Ch],eax
            FF
  00414426: A1 54 83 41 00     mov         eax,dword ptr ds:[00418354h]
  0041442B: 89 84 4D F8 FD FF  mov         dword ptr [ebp+ecx*2-208h],eax
            FF
  00414432: A1 58 83 41 00     mov         eax,dword ptr ds:[00418358h]
  00414437: 89 84 4D FC FD FF  mov         dword ptr [ebp+ecx*2-204h],eax
            FF
  0041443E: A1 5C 83 41 00     mov         eax,dword ptr ds:[0041835Ch]
  00414443: 89 84 4D 00 FE FF  mov         dword ptr [ebp+ecx*2-200h],eax
            FF
  0041444A: A1 60 83 41 00     mov         eax,dword ptr ds:[00418360h]
  0041444F: 89 84 4D 04 FE FF  mov         dword ptr [ebp+ecx*2-1FCh],eax
            FF
  00414456: A1 64 83 41 00     mov         eax,dword ptr ds:[00418364h]
  0041445B: 89 84 4D 08 FE FF  mov         dword ptr [ebp+ecx*2-1F8h],eax
            FF
  00414462: A1 68 83 41 00     mov         eax,dword ptr ds:[00418368h]
  00414467: 89 84 4D 0C FE FF  mov         dword ptr [ebp+ecx*2-1F4h],eax
            FF
  0041446E: A1 6C 83 41 00     mov         eax,dword ptr ds:[0041836Ch]
  00414473: 89 84 4D 10 FE FF  mov         dword ptr [ebp+ecx*2-1F0h],eax
            FF
  0041447A: 66 A1 70 83 41 00  mov         ax,word ptr ds:[00418370h]
  00414480: 68 00 09 00 00     push        900h
  00414485: 66 89 84 4D 14 FE  mov         word ptr [ebp+ecx*2-1ECh],ax
            FF FF
  0041448D: 8D 85 F4 FD FF FF  lea         eax,[ebp-20Ch]
  00414493: 6A 00              push        0
  00414495: 50                 push        eax
  00414496: E8 D0 CE FF FF     call        @ILT+870(___vcrt_LoadLibraryExW)
  0041449B: 8B F0              mov         esi,eax
  0041449D: 83 C4 0C           add         esp,0Ch
  004144A0: 85 F6              test        esi,esi
  004144A2: 75 1F              jne         004144C3
  004144A4: FF 15 30 B0 41 00  call        dword ptr [__imp__GetLastError@0]
  004144AA: 83 F8 57           cmp         eax,57h
  004144AD: 75 14              jne         004144C3
  004144AF: 6A 08              push        8
  004144B1: 8D 85 F4 FD FF FF  lea         eax,[ebp-20Ch]
  004144B7: 56                 push        esi
  004144B8: 50                 push        eax
  004144B9: E8 AD CE FF FF     call        @ILT+870(___vcrt_LoadLibraryExW)
  004144BE: 83 C4 0C           add         esp,0Ch
  004144C1: 8B F0              mov         esi,eax
  004144C3: 8B 4D FC           mov         ecx,dword ptr [ebp-4]
  004144C6: 8B C6              mov         eax,esi
  004144C8: 5F                 pop         edi
  004144C9: 5E                 pop         esi
  004144CA: 33 CD              xor         ecx,ebp
  004144CC: 5B                 pop         ebx
  004144CD: E8 BD CD FF FF     call        @ILT+650(@__security_check_cookie@4)
  004144D2: 8B E5              mov         esp,ebp
  004144D4: 5D                 pop         ebp
  004144D5: C3                 ret
  004144D6: CC                 int         3
  004144D7: CC                 int         3
  004144D8: CC                 int         3
  004144D9: CC                 int         3
  004144DA: CC                 int         3
  004144DB: CC                 int         3
  004144DC: CC                 int         3
  004144DD: CC                 int         3
  004144DE: CC                 int         3
  004144DF: CC                 int         3
  004144E0: CC                 int         3
  004144E1: CC                 int         3
  004144E2: CC                 int         3
  004144E3: CC                 int         3
  004144E4: CC                 int         3
  004144E5: CC                 int         3
  004144E6: CC                 int         3
  004144E7: CC                 int         3
  004144E8: CC                 int         3
  004144E9: CC                 int         3
  004144EA: CC                 int         3
  004144EB: CC                 int         3
  004144EC: CC                 int         3
  004144ED: CC                 int         3
  004144EE: CC                 int         3
  004144EF: CC                 int         3
  004144F0: CC                 int         3
  004144F1: CC                 int         3
  004144F2: CC                 int         3
  004144F3: CC                 int         3
  004144F4: CC                 int         3
  004144F5: CC                 int         3
  004144F6: CC                 int         3
  004144F7: CC                 int         3
  004144F8: CC                 int         3
  004144F9: CC                 int         3
  004144FA: CC                 int         3
  004144FB: CC                 int         3
  004144FC: CC                 int         3
  004144FD: CC                 int         3
  004144FE: CC                 int         3
  004144FF: CC                 int         3
  00414500: CC                 int         3
  00414501: CC                 int         3
  00414502: CC                 int         3
  00414503: CC                 int         3
  00414504: CC                 int         3
  00414505: CC                 int         3
  00414506: CC                 int         3
  00414507: CC                 int         3
  00414508: CC                 int         3
  00414509: CC                 int         3
  0041450A: CC                 int         3
  0041450B: CC                 int         3
  0041450C: CC                 int         3
  0041450D: CC                 int         3
  0041450E: CC                 int         3
  0041450F: CC                 int         3
  00414510: CC                 int         3
  00414511: CC                 int         3
  00414512: CC                 int         3
  00414513: CC                 int         3
  00414514: CC                 int         3
  00414515: CC                 int         3
  00414516: CC                 int         3
  00414517: CC                 int         3
  00414518: CC                 int         3
  00414519: CC                 int         3
  0041451A: CC                 int         3
  0041451B: CC                 int         3
  0041451C: CC                 int         3
  0041451D: CC                 int         3
  0041451E: CC                 int         3
  0041451F: CC                 int         3
  00414520: CC                 int         3
  00414521: CC                 int         3
  00414522: CC                 int         3
  00414523: CC                 int         3
  00414524: CC                 int         3
  00414525: CC                 int         3
  00414526: CC                 int         3
  00414527: CC                 int         3
  00414528: CC                 int         3
  00414529: CC                 int         3
  0041452A: CC                 int         3
  0041452B: CC                 int         3
  0041452C: CC                 int         3
  0041452D: CC                 int         3
  0041452E: CC                 int         3
  0041452F: CC                 int         3
  00414530: CC                 int         3
  00414531: CC                 int         3
  00414532: CC                 int         3
  00414533: CC                 int         3
  00414534: CC                 int         3
  00414535: CC                 int         3
  00414536: CC                 int         3
  00414537: CC                 int         3
  00414538: CC                 int         3
  00414539: CC                 int         3
  0041453A: CC                 int         3
  0041453B: CC                 int         3
  0041453C: CC                 int         3
  0041453D: CC                 int         3
  0041453E: CC                 int         3
  0041453F: CC                 int         3
  00414540: CC                 int         3
  00414541: CC                 int         3
  00414542: CC                 int         3
  00414543: CC                 int         3
  00414544: CC                 int         3
  00414545: CC                 int         3
  00414546: CC                 int         3
  00414547: CC                 int         3
  00414548: CC                 int         3
  00414549: CC                 int         3
  0041454A: CC                 int         3
  0041454B: CC                 int         3
  0041454C: CC                 int         3
  0041454D: CC                 int         3
  0041454E: CC                 int         3
  0041454F: CC                 int         3
  00414550: CC                 int         3
  00414551: CC                 int         3
  00414552: CC                 int         3
  00414553: CC                 int         3
  00414554: CC                 int         3
  00414555: CC                 int         3
  00414556: CC                 int         3
  00414557: CC                 int         3
  00414558: CC                 int         3
  00414559: CC                 int         3
  0041455A: CC                 int         3
  0041455B: CC                 int         3
  0041455C: CC                 int         3
  0041455D: CC                 int         3
  0041455E: CC                 int         3
  0041455F: CC                 int         3
  00414560: CC                 int         3
  00414561: CC                 int         3
  00414562: CC                 int         3
  00414563: CC                 int         3
  00414564: CC                 int         3
  00414565: CC                 int         3
  00414566: CC                 int         3
  00414567: CC                 int         3
  00414568: CC                 int         3
  00414569: CC                 int         3
  0041456A: CC                 int         3
  0041456B: CC                 int         3
  0041456C: CC                 int         3
  0041456D: CC                 int         3
  0041456E: CC                 int         3
  0041456F: CC                 int         3
  00414570: 55                 push        ebp
  00414571: 8B EC              mov         ebp,esp
  00414573: 81 EC 0C 06 00 00  sub         esp,60Ch
  00414579: A1 00 A0 41 00     mov         eax,dword ptr [___security_cookie]
  0041457E: 33 C5              xor         eax,ebp
  00414580: 89 45 FC           mov         dword ptr [ebp-4],eax
  00414583: 8B 45 08           mov         eax,dword ptr [ebp+8]
  00414586: 8D 8D F4 FD FF FF  lea         ecx,[ebp-20Ch]
  0041458C: 56                 push        esi
  0041458D: 8B 75 0C           mov         esi,dword ptr [ebp+0Ch]
  00414590: 68 00 01 00 00     push        100h
  00414595: 51                 push        ecx
  00414596: 68 00 01 00 00     push        100h
  0041459B: 8D 8D F4 FB FF FF  lea         ecx,[ebp-40Ch]
  004145A1: 51                 push        ecx
  004145A2: 68 00 01 00 00     push        100h
  004145A7: 8D 8D F4 F9 FF FF  lea         ecx,[ebp-60Ch]
  004145AD: 51                 push        ecx
  004145AE: 6A 03              push        3
  004145B0: 8D 4D F4           lea         ecx,[ebp-0Ch]
  004145B3: 51                 push        ecx
  004145B4: 50                 push        eax
  004145B5: E8 02 CD FF FF     call        @ILT+695(__wsplitpath_s)
  004145BA: 83 C4 24           add         esp,24h
  004145BD: 85 C0              test        eax,eax
  004145BF: 75 71              jne         00414632
  004145C1: 68 0C 85 41 00     push        41850Ch
  004145C6: 8D 85 F4 FB FF FF  lea         eax,[ebp-40Ch]
  004145CC: 6A 09              push        9
  004145CE: 50                 push        eax
  004145CF: E8 8B CA FF FF     call        @ILT+90(_wcscpy_s)
  004145D4: 83 C4 0C           add         esp,0Ch
  004145D7: 85 C0              test        eax,eax
  004145D9: 75 57              jne         00414632
  004145DB: 68 00 85 41 00     push        418500h
  004145E0: 8D 85 F4 FD FF FF  lea         eax,[ebp-20Ch]
  004145E6: 6A 04              push        4
  004145E8: 50                 push        eax
  004145E9: E8 71 CA FF FF     call        @ILT+90(_wcscpy_s)
  004145EE: 83 C4 0C           add         esp,0Ch
  004145F1: 85 C0              test        eax,eax
  004145F3: 75 3D              jne         00414632
  004145F5: 8D 85 F4 FD FF FF  lea         eax,[ebp-20Ch]
  004145FB: 50                 push        eax
  004145FC: 8D 85 F4 FB FF FF  lea         eax,[ebp-40Ch]
  00414602: 50                 push        eax
  00414603: 8D 85 F4 F9 FF FF  lea         eax,[ebp-60Ch]
  00414609: 50                 push        eax
  0041460A: 8D 45 F4           lea         eax,[ebp-0Ch]
  0041460D: 50                 push        eax
  0041460E: FF 75 10           push        dword ptr [ebp+10h]
  00414611: 56                 push        esi
  00414612: E8 F3 C9 FF FF     call        @ILT+5(__wmakepath_s)
  00414617: 83 C4 18           add         esp,18h
  0041461A: 85 C0              test        eax,eax
  0041461C: 75 14              jne         00414632
  0041461E: B8 01 00 00 00     mov         eax,1
  00414623: 5E                 pop         esi
  00414624: 8B 4D FC           mov         ecx,dword ptr [ebp-4]
  00414627: 33 CD              xor         ecx,ebp
  00414629: E8 61 CC FF FF     call        @ILT+650(@__security_check_cookie@4)
  0041462E: 8B E5              mov         esp,ebp
  00414630: 5D                 pop         ebp
  00414631: C3                 ret
  00414632: 8B 4D FC           mov         ecx,dword ptr [ebp-4]
  00414635: 33 C0              xor         eax,eax
  00414637: 33 CD              xor         ecx,ebp
  00414639: 5E                 pop         esi
  0041463A: E8 50 CC FF FF     call        @ILT+650(@__security_check_cookie@4)
  0041463F: 8B E5              mov         esp,ebp
  00414641: 5D                 pop         ebp
  00414642: C3                 ret
  00414643: CC                 int         3
  00414644: CC                 int         3
  00414645: CC                 int         3
  00414646: CC                 int         3
  00414647: CC                 int         3
  00414648: CC                 int         3
  00414649: CC                 int         3
  0041464A: CC                 int         3
  0041464B: CC                 int         3
  0041464C: CC                 int         3
  0041464D: CC                 int         3
  0041464E: CC                 int         3
  0041464F: CC                 int         3
  00414650: CC                 int         3
  00414651: CC                 int         3
  00414652: CC                 int         3
  00414653: CC                 int         3
  00414654: CC                 int         3
  00414655: CC                 int         3
  00414656: CC                 int         3
  00414657: CC                 int         3
  00414658: CC                 int         3
  00414659: CC                 int         3
  0041465A: CC                 int         3
  0041465B: CC                 int         3
  0041465C: CC                 int         3
  0041465D: CC                 int         3
  0041465E: CC                 int         3
  0041465F: CC                 int         3
  00414660: CC                 int         3
  00414661: CC                 int         3
  00414662: CC                 int         3
  00414663: CC                 int         3
  00414664: CC                 int         3
  00414665: CC                 int         3
  00414666: CC                 int         3
  00414667: CC                 int         3
  00414668: CC                 int         3
  00414669: CC                 int         3
  0041466A: CC                 int         3
  0041466B: CC                 int         3
  0041466C: CC                 int         3
  0041466D: CC                 int         3
  0041466E: CC                 int         3
  0041466F: CC                 int         3
  00414670: CC                 int         3
  00414671: CC                 int         3
  00414672: CC                 int         3
  00414673: CC                 int         3
  00414674: CC                 int         3
  00414675: CC                 int         3
  00414676: CC                 int         3
  00414677: CC                 int         3
  00414678: CC                 int         3
  00414679: CC                 int         3
  0041467A: CC                 int         3
  0041467B: CC                 int         3
  0041467C: CC                 int         3
  0041467D: CC                 int         3
  0041467E: CC                 int         3
  0041467F: CC                 int         3
?_RTC_GetSrcLine@@YAHPAEPA_WKPAH1K@Z:
  00414680: 55                 push        ebp
  00414681: 8B EC              mov         ebp,esp
  00414683: 8B 45 14           mov         eax,dword ptr [ebp+14h]
  00414686: 83 EC 4C           sub         esp,4Ch
  00414689: 33 C9              xor         ecx,ecx
  0041468B: 53                 push        ebx
  0041468C: 56                 push        esi
  0041468D: 8B 75 08           mov         esi,dword ptr [ebp+8]
  00414690: C7 00 00 00 00 00  mov         dword ptr [eax],0
  00414696: 4E                 dec         esi
  00414697: 8B 45 0C           mov         eax,dword ptr [ebp+0Ch]
  0041469A: 57                 push        edi
  0041469B: 6A 1C              push        1Ch
  0041469D: 66 89 08           mov         word ptr [eax],cx
  004146A0: 8D 45 B4           lea         eax,[ebp-4Ch]
  004146A3: 50                 push        eax
  004146A4: 56                 push        esi
  004146A5: FF 15 20 B0 41 00  call        dword ptr [__imp__VirtualQuery@12]
  004146AB: 85 C0              test        eax,eax
  004146AD: 0F 84 50 03 00 00  je          00414A03
  004146B3: FF 75 1C           push        dword ptr [ebp+1Ch]
  004146B6: FF 75 18           push        dword ptr [ebp+18h]
  004146B9: FF 75 B8           push        dword ptr [ebp-48h]
  004146BC: E8 3C CC FF FF     call        @ILT+760(___vcrt_GetModuleFileNameW)
  004146C1: 83 C4 0C           add         esp,0Ch
  004146C4: 85 C0              test        eax,eax
  004146C6: 0F 84 37 03 00 00  je          00414A03
  004146CC: 8B 45 B8           mov         eax,dword ptr [ebp-48h]
  004146CF: B9 4D 5A 00 00     mov         ecx,5A4Dh
  004146D4: 66 39 08           cmp         word ptr [eax],cx
  004146D7: 0F 85 26 03 00 00  jne         00414A03
  004146DD: 8B 48 3C           mov         ecx,dword ptr [eax+3Ch]
  004146E0: 85 C9              test        ecx,ecx
  004146E2: 0F 8E 1B 03 00 00  jle         00414A03
  004146E8: 03 C8              add         ecx,eax
  004146EA: 81 39 50 45 00 00  cmp         dword ptr [ecx],4550h
  004146F0: 0F 85 0D 03 00 00  jne         00414A03
  004146F6: 0F B7 51 14        movzx       edx,word ptr [ecx+14h]
  004146FA: 2B F0              sub         esi,eax
  004146FC: 0F B7 79 06        movzx       edi,word ptr [ecx+6]
  00414700: 83 C2 20           add         edx,20h
  00414703: 33 DB              xor         ebx,ebx
  00414705: 33 C0              xor         eax,eax
  00414707: 85 FF              test        edi,edi
  00414709: 74 1C              je          00414727
  0041470B: 03 CA              add         ecx,edx
  0041470D: 8D 49 00           lea         ecx,[ecx]
  00414710: 8B 51 04           mov         edx,dword ptr [ecx+4]
  00414713: 3B F2              cmp         esi,edx
  00414715: 72 08              jb          0041471F
  00414717: 8B DE              mov         ebx,esi
  00414719: 2B DA              sub         ebx,edx
  0041471B: 3B 31              cmp         esi,dword ptr [ecx]
  0041471D: 72 08              jb          00414727
  0041471F: 40                 inc         eax
  00414720: 83 C1 28           add         ecx,28h
  00414723: 3B C7              cmp         eax,edi
  00414725: 72 E9              jb          00414710
  00414727: 3B C7              cmp         eax,edi
  00414729: 0F 84 D4 02 00 00  je          00414A03
  0041472F: 40                 inc         eax
  00414730: 80 3D 65 A5 41 00  cmp         byte ptr ds:[41A565h],0
            00
  00414737: 89 45 F4           mov         dword ptr [ebp-0Ch],eax
  0041473A: 75 28              jne         00414764
  0041473C: 83 3D 60 A5 41 00  cmp         dword ptr ds:[41A560h],0
            00
  00414743: 0F 85 BA 02 00 00  jne         00414A03
  00414749: E8 A2 F9 FF FF     call        004140F0
  0041474E: A3 60 A5 41 00     mov         dword ptr ds:[0041A560h],eax
  00414753: 85 C0              test        eax,eax
  00414755: 0F 84 A8 02 00 00  je          00414A03
  0041475B: C6 05 65 A5 41 00  mov         byte ptr ds:[41A565h],1
            01
  00414762: EB 05              jmp         00414769
  00414764: A1 60 A5 41 00     mov         eax,dword ptr ds:[0041A560h]
  00414769: 68 3C 85 41 00     push        offset ??_C@_0BB@KCIACLNC@PDBOpenValidate5?$AA@
  0041476E: 50                 push        eax
  0041476F: FF 15 18 B0 41 00  call        dword ptr [__imp__GetProcAddress@8]
  00414775: 8B F0              mov         esi,eax
  00414777: 85 F6              test        esi,esi
  00414779: 0F 84 84 02 00 00  je          00414A03
  0041477F: 8D 45 E8           lea         eax,[ebp-18h]
  00414782: 8B CE              mov         ecx,esi
  00414784: 50                 push        eax
  00414785: 6A 00              push        0
  00414787: 6A 00              push        0
  00414789: 8D 45 D0           lea         eax,[ebp-30h]
  0041478C: 50                 push        eax
  0041478D: 6A 00              push        0
  0041478F: 6A 00              push        0
  00414791: 6A 00              push        0
  00414793: FF 75 18           push        dword ptr [ebp+18h]
  00414796: FF 15 00 C0 41 00  call        dword ptr [___guard_check_icall_fptr]
  0041479C: FF D6              call        esi
  0041479E: 83 C4 20           add         esp,20h
  004147A1: 85 C0              test        eax,eax
  004147A3: 0F 84 5A 02 00 00  je          00414A03
  004147A9: 8B 7D E8           mov         edi,dword ptr [ebp-18h]
  004147AC: C7 45 DC 00 00 00  mov         dword ptr [ebp-24h],0
            00
  004147B3: 8B 07              mov         eax,dword ptr [edi]
  004147B5: 8B 30              mov         esi,dword ptr [eax]
  004147B7: 8B CE              mov         ecx,esi
  004147B9: FF 15 00 C0 41 00  call        dword ptr [___guard_check_icall_fptr]
  004147BF: 8B CF              mov         ecx,edi
  004147C1: FF D6              call        esi
  004147C3: 3D 41 91 32 01     cmp         eax,1329141h
  004147C8: 0F 85 50 01 00 00  jne         0041491E
  004147CE: 8B 7D E8           mov         edi,dword ptr [ebp-18h]
  004147D1: 8D 4D E0           lea         ecx,[ebp-20h]
  004147D4: 51                 push        ecx
  004147D5: 68 50 85 41 00     push        offset ??_C@_01KDCPPGHE@r?$AA@
  004147DA: 6A 00              push        0
  004147DC: 8B 07              mov         eax,dword ptr [edi]
  004147DE: 8B 70 1C           mov         esi,dword ptr [eax+1Ch]
  004147E1: 8B CE              mov         ecx,esi
  004147E3: FF 15 00 C0 41 00  call        dword ptr [___guard_check_icall_fptr]
  004147E9: 8B CF              mov         ecx,edi
  004147EB: FF D6              call        esi
  004147ED: 85 C0              test        eax,eax
  004147EF: 0F 84 29 01 00 00  je          0041491E
  004147F5: 8B 7D E0           mov         edi,dword ptr [ebp-20h]
  004147F8: 8D 45 EC           lea         eax,[ebp-14h]
  004147FB: 6A 00              push        0
  004147FD: 6A 00              push        0
  004147FF: 6A 00              push        0
  00414801: 8B 37              mov         esi,dword ptr [edi]
  00414803: 50                 push        eax
  00414804: 53                 push        ebx
  00414805: FF 75 F4           push        dword ptr [ebp-0Ch]
  00414808: 8B 76 20           mov         esi,dword ptr [esi+20h]
  0041480B: 8B CE              mov         ecx,esi
  0041480D: FF 15 00 C0 41 00  call        dword ptr [___guard_check_icall_fptr]
  00414813: 8B CF              mov         ecx,edi
  00414815: FF D6              call        esi
  00414817: 85 C0              test        eax,eax
  00414819: 0F 84 EB 00 00 00  je          0041490A
  0041481F: 8B 7D EC           mov         edi,dword ptr [ebp-14h]
  00414822: 8D 4D F8           lea         ecx,[ebp-8]
  00414825: C7 45 F8 00 00 00  mov         dword ptr [ebp-8],0
            00
  0041482C: 51                 push        ecx
  0041482D: 8B 07              mov         eax,dword ptr [edi]
  0041482F: 8B 70 68           mov         esi,dword ptr [eax+68h]
  00414832: 8B CE              mov         ecx,esi
  00414834: FF 15 00 C0 41 00  call        dword ptr [___guard_check_icall_fptr]
  0041483A: 8B CF              mov         ecx,edi
  0041483C: FF D6              call        esi
  0041483E: 84 C0              test        al,al
  00414840: 0F 84 B0 00 00 00  je          004148F6
  00414846: 8B 45 F8           mov         eax,dword ptr [ebp-8]
  00414849: 85 C0              test        eax,eax
  0041484B: 0F 84 A5 00 00 00  je          004148F6
  00414851: 8B 00              mov         eax,dword ptr [eax]
  00414853: 33 FF              xor         edi,edi
  00414855: 8B 70 08           mov         esi,dword ptr [eax+8]
  00414858: 8B CE              mov         ecx,esi
  0041485A: FF 15 00 C0 41 00  call        dword ptr [___guard_check_icall_fptr]
  00414860: 8B 4D F8           mov         ecx,dword ptr [ebp-8]
  00414863: FF D6              call        esi
  00414865: 85 C0              test        eax,eax
  00414867: 74 6A              je          004148D3
  00414869: 8D A4 24 00 00 00  lea         esp,[esp]
            00
  00414870: 8B 7D F8           mov         edi,dword ptr [ebp-8]
  00414873: 8D 45 F0           lea         eax,[ebp-10h]
  00414876: 6A 00              push        0
  00414878: 50                 push        eax
  00414879: 8D 45 D8           lea         eax,[ebp-28h]
  0041487C: 8B 37              mov         esi,dword ptr [edi]
  0041487E: 50                 push        eax
  0041487F: 8D 45 FC           lea         eax,[ebp-4]
  00414882: 50                 push        eax
  00414883: 8B 76 0C           mov         esi,dword ptr [esi+0Ch]
  00414886: 8D 45 E4           lea         eax,[ebp-1Ch]
  00414889: 50                 push        eax
  0041488A: 6A 00              push        0
  0041488C: 8B CE              mov         ecx,esi
  0041488E: FF 15 00 C0 41 00  call        dword ptr [___guard_check_icall_fptr]
  00414894: 8B CF              mov         ecx,edi
  00414896: FF D6              call        esi
  00414898: 84 C0              test        al,al
  0041489A: 74 47              je          004148E3
  0041489C: 0F B7 45 FC        movzx       eax,word ptr [ebp-4]
  004148A0: 3B 45 F4           cmp         eax,dword ptr [ebp-0Ch]
  004148A3: 75 14              jne         004148B9
  004148A5: 8B 4D E4           mov         ecx,dword ptr [ebp-1Ch]
  004148A8: 3B CB              cmp         ecx,ebx
  004148AA: 77 0D              ja          004148B9
  004148AC: 8B 45 D8           mov         eax,dword ptr [ebp-28h]
  004148AF: 03 C1              add         eax,ecx
  004148B1: 3B D8              cmp         ebx,eax
  004148B3: 0F 82 83 00 00 00  jb          0041493C
  004148B9: 8B 7D F8           mov         edi,dword ptr [ebp-8]
  004148BC: 8B 07              mov         eax,dword ptr [edi]
  004148BE: 8B 70 08           mov         esi,dword ptr [eax+8]
  004148C1: 8B CE              mov         ecx,esi
  004148C3: FF 15 00 C0 41 00  call        dword ptr [___guard_check_icall_fptr]
  004148C9: 8B CF              mov         ecx,edi
  004148CB: FF D6              call        esi
  004148CD: 85 C0              test        eax,eax
  004148CF: 75 9F              jne         00414870
  004148D1: 33 FF              xor         edi,edi
  004148D3: 57                 push        edi
  004148D4: 6A 00              push        0
  004148D6: FF 15 24 B0 41 00  call        dword ptr [__imp__GetProcessHeap@0]
  004148DC: 50                 push        eax
  004148DD: FF 15 28 B0 41 00  call        dword ptr [__imp__HeapFree@12]
  004148E3: 8B 7D F8           mov         edi,dword ptr [ebp-8]
  004148E6: 8B 07              mov         eax,dword ptr [edi]
  004148E8: 8B 30              mov         esi,dword ptr [eax]
  004148EA: 8B CE              mov         ecx,esi
  004148EC: FF 15 00 C0 41 00  call        dword ptr [___guard_check_icall_fptr]
  004148F2: 8B CF              mov         ecx,edi
  004148F4: FF D6              call        esi
  004148F6: 8B 7D EC           mov         edi,dword ptr [ebp-14h]
  004148F9: 8B 07              mov         eax,dword ptr [edi]
  004148FB: 8B 70 40           mov         esi,dword ptr [eax+40h]
  004148FE: 8B CE              mov         ecx,esi
  00414900: FF 15 00 C0 41 00  call        dword ptr [___guard_check_icall_fptr]
  00414906: 8B CF              mov         ecx,edi
  00414908: FF D6              call        esi
  0041490A: 8B 7D E0           mov         edi,dword ptr [ebp-20h]
  0041490D: 8B 07              mov         eax,dword ptr [edi]
  0041490F: 8B 70 38           mov         esi,dword ptr [eax+38h]
  00414912: 8B CE              mov         ecx,esi
  00414914: FF 15 00 C0 41 00  call        dword ptr [___guard_check_icall_fptr]
  0041491A: 8B CF              mov         ecx,edi
  0041491C: FF D6              call        esi
  0041491E: 8B 7D E8           mov         edi,dword ptr [ebp-18h]
  00414921: 8B 17              mov         edx,dword ptr [edi]
  00414923: 8B 72 2C           mov         esi,dword ptr [edx+2Ch]
  00414926: 8B CE              mov         ecx,esi
  00414928: FF 15 00 C0 41 00  call        dword ptr [___guard_check_icall_fptr]
  0041492E: 8B CF              mov         ecx,edi
  00414930: FF D6              call        esi
  00414932: 8B 45 DC           mov         eax,dword ptr [ebp-24h]
  00414935: 5F                 pop         edi
  00414936: 5E                 pop         esi
  00414937: 5B                 pop         ebx
  00414938: 8B E5              mov         esp,ebp
  0041493A: 5D                 pop         ebp
  0041493B: C3                 ret
  0041493C: 8B 45 F0           mov         eax,dword ptr [ebp-10h]
  0041493F: 85 C0              test        eax,eax
  00414941: 74 A0              je          004148E3
  00414943: 3D FF FF FF 1F     cmp         eax,1FFFFFFFh
  00414948: 73 99              jae         004148E3
  0041494A: C1 E0 03           shl         eax,3
  0041494D: 50                 push        eax
  0041494E: 6A 00              push        0
  00414950: FF 15 24 B0 41 00  call        dword ptr [__imp__GetProcessHeap@0]
  00414956: 50                 push        eax
  00414957: FF 15 2C B0 41 00  call        dword ptr [__imp__HeapAlloc@12]
  0041495D: 89 45 F4           mov         dword ptr [ebp-0Ch],eax
  00414960: 85 C0              test        eax,eax
  00414962: 0F 84 7B FF FF FF  je          004148E3
  00414968: 8B 7D F8           mov         edi,dword ptr [ebp-8]
  0041496B: 50                 push        eax
  0041496C: 8D 45 F0           lea         eax,[ebp-10h]
  0041496F: 50                 push        eax
  00414970: 8B 37              mov         esi,dword ptr [edi]
  00414972: 8D 45 D4           lea         eax,[ebp-2Ch]
  00414975: 6A 00              push        0
  00414977: 6A 00              push        0
  00414979: 6A 00              push        0
  0041497B: 8B 76 0C           mov         esi,dword ptr [esi+0Ch]
  0041497E: 8B CE              mov         ecx,esi
  00414980: 50                 push        eax
  00414981: FF 15 00 C0 41 00  call        dword ptr [___guard_check_icall_fptr]
  00414987: 8B CF              mov         ecx,edi
  00414989: FF D6              call        esi
  0041498B: 8B 7D F4           mov         edi,dword ptr [ebp-0Ch]
  0041498E: 84 C0              test        al,al
  00414990: 0F 84 3D FF FF FF  je          004148D3
  00414996: 2B 5D E4           sub         ebx,dword ptr [ebp-1Ch]
  00414999: 3B 1F              cmp         ebx,dword ptr [edi]
  0041499B: 0F 82 32 FF FF FF  jb          004148D3
  004149A1: 8B 4D F0           mov         ecx,dword ptr [ebp-10h]
  004149A4: B8 01 00 00 00     mov         eax,1
  004149A9: 3B C8              cmp         ecx,eax
  004149AB: 76 0D              jbe         004149BA
  004149AD: 8D 49 00           lea         ecx,[ecx]
  004149B0: 3B 1C C7           cmp         ebx,dword ptr [edi+eax*8]
  004149B3: 72 05              jb          004149BA
  004149B5: 40                 inc         eax
  004149B6: 3B C1              cmp         eax,ecx
  004149B8: 72 F6              jb          004149B0
  004149BA: 8B 44 C7 FC        mov         eax,dword ptr [edi+eax*8-4]
  004149BE: 8B 4D 14           mov         ecx,dword ptr [ebp+14h]
  004149C1: 25 FF FF FF 00     and         eax,0FFFFFFh
  004149C6: 8B 7D EC           mov         edi,dword ptr [ebp-14h]
  004149C9: 6A 00              push        0
  004149CB: 6A 00              push        0
  004149CD: 89 01              mov         dword ptr [ecx],eax
  004149CF: 8D 45 10           lea         eax,[ebp+10h]
  004149D2: 8B 37              mov         esi,dword ptr [edi]
  004149D4: 6A 00              push        0
  004149D6: 50                 push        eax
  004149D7: FF 75 0C           push        dword ptr [ebp+0Ch]
  004149DA: 8B 76 70           mov         esi,dword ptr [esi+70h]
  004149DD: 8B CE              mov         ecx,esi
  004149DF: FF 75 D4           push        dword ptr [ebp-2Ch]
  004149E2: FF 15 00 C0 41 00  call        dword ptr [___guard_check_icall_fptr]
  004149E8: 8B CF              mov         ecx,edi
  004149EA: FF D6              call        esi
  004149EC: 8B 7D F4           mov         edi,dword ptr [ebp-0Ch]
  004149EF: 84 C0              test        al,al
  004149F1: 0F 84 DC FE FF FF  je          004148D3
  004149F7: C7 45 DC 01 00 00  mov         dword ptr [ebp-24h],1
            00
  004149FE: E9 D0 FE FF FF     jmp         004148D3
  00414A03: 5F                 pop         edi
  00414A04: 5E                 pop         esi
  00414A05: 33 C0              xor         eax,eax
  00414A07: 5B                 pop         ebx
  00414A08: 8B E5              mov         esp,ebp
  00414A0A: 5D                 pop         ebp
  00414A0B: C3                 ret
  00414A0C: CC                 int         3
  00414A0D: CC                 int         3
  00414A0E: CC                 int         3
  00414A0F: CC                 int         3
  00414A10: CC                 int         3
  00414A11: CC                 int         3
  00414A12: CC                 int         3
  00414A13: CC                 int         3
  00414A14: CC                 int         3
  00414A15: CC                 int         3
  00414A16: CC                 int         3
  00414A17: CC                 int         3
  00414A18: CC                 int         3
  00414A19: CC                 int         3
  00414A1A: CC                 int         3
  00414A1B: CC                 int         3
  00414A1C: CC                 int         3
  00414A1D: CC                 int         3
  00414A1E: CC                 int         3
  00414A1F: CC                 int         3
  00414A20: CC                 int         3
  00414A21: CC                 int         3
  00414A22: CC                 int         3
  00414A23: CC                 int         3
  00414A24: CC                 int         3
  00414A25: CC                 int         3
  00414A26: CC                 int         3
  00414A27: CC                 int         3
  00414A28: CC                 int         3
  00414A29: CC                 int         3
  00414A2A: CC                 int         3
  00414A2B: CC                 int         3
  00414A2C: CC                 int         3
  00414A2D: CC                 int         3
  00414A2E: CC                 int         3
  00414A2F: CC                 int         3
  00414A30: CC                 int         3
  00414A31: CC                 int         3
  00414A32: CC                 int         3
  00414A33: CC                 int         3
  00414A34: CC                 int         3
  00414A35: CC                 int         3
  00414A36: CC                 int         3
  00414A37: CC                 int         3
  00414A38: CC                 int         3
  00414A39: CC                 int         3
  00414A3A: CC                 int         3
  00414A3B: CC                 int         3
  00414A3C: CC                 int         3
  00414A3D: CC                 int         3
  00414A3E: CC                 int         3
  00414A3F: CC                 int         3
  00414A40: CC                 int         3
  00414A41: CC                 int         3
  00414A42: CC                 int         3
  00414A43: CC                 int         3
  00414A44: CC                 int         3
  00414A45: CC                 int         3
  00414A46: CC                 int         3
  00414A47: CC                 int         3
  00414A48: CC                 int         3
  00414A49: CC                 int         3
  00414A4A: CC                 int         3
  00414A4B: CC                 int         3
  00414A4C: CC                 int         3
  00414A4D: CC                 int         3
  00414A4E: CC                 int         3
  00414A4F: CC                 int         3
  00414A50: CC                 int         3
  00414A51: CC                 int         3
  00414A52: CC                 int         3
  00414A53: CC                 int         3
  00414A54: CC                 int         3
  00414A55: CC                 int         3
  00414A56: CC                 int         3
  00414A57: CC                 int         3
  00414A58: CC                 int         3
  00414A59: CC                 int         3
  00414A5A: CC                 int         3
  00414A5B: CC                 int         3
  00414A5C: CC                 int         3
  00414A5D: CC                 int         3
  00414A5E: CC                 int         3
  00414A5F: CC                 int         3
  00414A60: CC                 int         3
  00414A61: CC                 int         3
  00414A62: CC                 int         3
  00414A63: CC                 int         3
  00414A64: CC                 int         3
  00414A65: CC                 int         3
  00414A66: CC                 int         3
  00414A67: CC                 int         3
  00414A68: CC                 int         3
  00414A69: CC                 int         3
  00414A6A: CC                 int         3
  00414A6B: CC                 int         3
  00414A6C: CC                 int         3
  00414A6D: CC                 int         3
  00414A6E: CC                 int         3
  00414A6F: CC                 int         3
  00414A70: CC                 int         3
  00414A71: CC                 int         3
  00414A72: CC                 int         3
  00414A73: CC                 int         3
  00414A74: CC                 int         3
  00414A75: CC                 int         3
  00414A76: CC                 int         3
  00414A77: CC                 int         3
  00414A78: CC                 int         3
  00414A79: CC                 int         3
  00414A7A: CC                 int         3
  00414A7B: CC                 int         3
  00414A7C: CC                 int         3
  00414A7D: CC                 int         3
  00414A7E: CC                 int         3
  00414A7F: CC                 int         3
  00414A80: CC                 int         3
  00414A81: CC                 int         3
  00414A82: CC                 int         3
  00414A83: CC                 int         3
  00414A84: CC                 int         3
  00414A85: CC                 int         3
  00414A86: CC                 int         3
  00414A87: CC                 int         3
  00414A88: CC                 int         3
  00414A89: CC                 int         3
  00414A8A: CC                 int         3
  00414A8B: CC                 int         3
  00414A8C: CC                 int         3
  00414A8D: CC                 int         3
  00414A8E: CC                 int         3
  00414A8F: CC                 int         3
  00414A90: CC                 int         3
  00414A91: CC                 int         3
  00414A92: CC                 int         3
  00414A93: CC                 int         3
  00414A94: CC                 int         3
  00414A95: CC                 int         3
  00414A96: CC                 int         3
  00414A97: CC                 int         3
  00414A98: CC                 int         3
  00414A99: CC                 int         3
  00414A9A: CC                 int         3
  00414A9B: CC                 int         3
  00414A9C: CC                 int         3
  00414A9D: CC                 int         3
  00414A9E: CC                 int         3
  00414A9F: CC                 int         3
  00414AA0: CC                 int         3
  00414AA1: CC                 int         3
  00414AA2: CC                 int         3
  00414AA3: CC                 int         3
  00414AA4: CC                 int         3
  00414AA5: CC                 int         3
  00414AA6: CC                 int         3
  00414AA7: CC                 int         3
  00414AA8: CC                 int         3
  00414AA9: CC                 int         3
  00414AAA: CC                 int         3
  00414AAB: CC                 int         3
  00414AAC: CC                 int         3
  00414AAD: CC                 int         3
  00414AAE: CC                 int         3
  00414AAF: CC                 int         3
  00414AB0: CC                 int         3
  00414AB1: CC                 int         3
  00414AB2: CC                 int         3
  00414AB3: CC                 int         3
  00414AB4: CC                 int         3
  00414AB5: CC                 int         3
  00414AB6: CC                 int         3
  00414AB7: CC                 int         3
  00414AB8: CC                 int         3
  00414AB9: CC                 int         3
  00414ABA: CC                 int         3
  00414ABB: CC                 int         3
  00414ABC: CC                 int         3
  00414ABD: CC                 int         3
  00414ABE: CC                 int         3
  00414ABF: CC                 int         3
  00414AC0: CC                 int         3
  00414AC1: CC                 int         3
  00414AC2: CC                 int         3
  00414AC3: CC                 int         3
  00414AC4: CC                 int         3
  00414AC5: CC                 int         3
  00414AC6: CC                 int         3
  00414AC7: CC                 int         3
  00414AC8: CC                 int         3
  00414AC9: CC                 int         3
  00414ACA: CC                 int         3
  00414ACB: CC                 int         3
  00414ACC: CC                 int         3
  00414ACD: CC                 int         3
  00414ACE: CC                 int         3
  00414ACF: CC                 int         3
  00414AD0: CC                 int         3
  00414AD1: CC                 int         3
  00414AD2: CC                 int         3
  00414AD3: CC                 int         3
  00414AD4: CC                 int         3
  00414AD5: CC                 int         3
  00414AD6: CC                 int         3
  00414AD7: CC                 int         3
  00414AD8: CC                 int         3
  00414AD9: CC                 int         3
  00414ADA: CC                 int         3
  00414ADB: CC                 int         3
  00414ADC: CC                 int         3
  00414ADD: CC                 int         3
  00414ADE: CC                 int         3
  00414ADF: CC                 int         3
  00414AE0: CC                 int         3
  00414AE1: CC                 int         3
  00414AE2: CC                 int         3
  00414AE3: CC                 int         3
  00414AE4: CC                 int         3
  00414AE5: CC                 int         3
  00414AE6: CC                 int         3
  00414AE7: CC                 int         3
  00414AE8: CC                 int         3
  00414AE9: CC                 int         3
  00414AEA: CC                 int         3
  00414AEB: CC                 int         3
  00414AEC: CC                 int         3
  00414AED: CC                 int         3
  00414AEE: CC                 int         3
  00414AEF: CC                 int         3
__except_handler4_noexcept:
  00414AF0: 55                 push        ebp
  00414AF1: 8B EC              mov         ebp,esp
  00414AF3: 51                 push        ecx
  00414AF4: 8B 45 14           mov         eax,dword ptr [ebp+14h]
  00414AF7: 50                 push        eax
  00414AF8: 8B 4D 10           mov         ecx,dword ptr [ebp+10h]
  00414AFB: 51                 push        ecx
  00414AFC: 8B 55 0C           mov         edx,dword ptr [ebp+0Ch]
  00414AFF: 52                 push        edx
  00414B00: 8B 45 08           mov         eax,dword ptr [ebp+8]
  00414B03: 50                 push        eax
  00414B04: E8 27 F5 FF FF     call        __except_handler4
  00414B09: 83 C4 10           add         esp,10h
  00414B0C: 89 45 FC           mov         dword ptr [ebp-4],eax
  00414B0F: 8B 4D 08           mov         ecx,dword ptr [ebp+8]
  00414B12: 8B 51 04           mov         edx,dword ptr [ecx+4]
  00414B15: 83 E2 66           and         edx,66h
  00414B18: 75 16              jne         00414B30
  00414B1A: 8B 45 08           mov         eax,dword ptr [ebp+8]
  00414B1D: 81 38 63 73 6D E0  cmp         dword ptr [eax],0E06D7363h
  00414B23: 75 0B              jne         00414B30
  00414B25: 83 7D FC 01        cmp         dword ptr [ebp-4],1
  00414B29: 75 05              jne         00414B30
  00414B2B: E8 F6 C6 FF FF     call        @ILT+545(_terminate)
  00414B30: 8B 45 FC           mov         eax,dword ptr [ebp-4]
  00414B33: 8B E5              mov         esp,ebp
  00414B35: 5D                 pop         ebp
  00414B36: C3                 ret
  00414B37: CC                 int         3
  00414B38: CC                 int         3
  00414B39: CC                 int         3
  00414B3A: CC                 int         3
  00414B3B: CC                 int         3
  00414B3C: CC                 int         3
  00414B3D: CC                 int         3
  00414B3E: CC                 int         3
  00414B3F: CC                 int         3
  00414B40: CC                 int         3
  00414B41: CC                 int         3
  00414B42: CC                 int         3
  00414B43: CC                 int         3
  00414B44: CC                 int         3
  00414B45: CC                 int         3
  00414B46: CC                 int         3
  00414B47: CC                 int         3
  00414B48: CC                 int         3
  00414B49: CC                 int         3
  00414B4A: CC                 int         3
  00414B4B: CC                 int         3
  00414B4C: CC                 int         3
  00414B4D: CC                 int         3
  00414B4E: CC                 int         3
  00414B4F: CC                 int         3
___isa_available_init:
  00414B50: 55                 push        ebp
  00414B51: 8B EC              mov         ebp,esp
  00414B53: 83 EC 40           sub         esp,40h
  00414B56: A1 00 A0 41 00     mov         eax,dword ptr [___security_cookie]
  00414B5B: 33 C5              xor         eax,ebp
  00414B5D: 89 45 FC           mov         dword ptr [ebp-4],eax
  00414B60: 53                 push        ebx
  00414B61: 56                 push        esi
  00414B62: C7 05 68 A5 41 00  mov         dword ptr [___isa_available],0
            00 00 00 00
  00414B6C: A1 2C A0 41 00     mov         eax,dword ptr [___isa_enabled]
  00414B71: 83 C8 01           or          eax,1
  00414B74: A3 2C A0 41 00     mov         dword ptr [___isa_enabled],eax
  00414B79: 6A 0A              push        0Ah
  00414B7B: E8 8C C7 FF FF     call        @ILT+775(_IsProcessorFeaturePresent@4)
  00414B80: 85 C0              test        eax,eax
  00414B82: 75 07              jne         00414B8B
  00414B84: 33 C0              xor         eax,eax
  00414B86: E9 88 02 00 00     jmp         00414E13
  00414B8B: C7 45 F0 00 00 00  mov         dword ptr [ebp-10h],0
            00
  00414B92: C7 45 F4 00 00 00  mov         dword ptr [ebp-0Ch],0
            00
  00414B99: C7 45 F8 00 00 00  mov         dword ptr [ebp-8],0
            00
  00414BA0: C7 05 68 A5 41 00  mov         dword ptr [___isa_available],1
            01 00 00 00
  00414BAA: 8B 0D 2C A0 41 00  mov         ecx,dword ptr [___isa_enabled]
  00414BB0: 83 C9 02           or          ecx,2
  00414BB3: 89 0D 2C A0 41 00  mov         dword ptr [___isa_enabled],ecx
  00414BB9: 8D 75 E0           lea         esi,[ebp-20h]
  00414BBC: 33 C0              xor         eax,eax
  00414BBE: 33 C9              xor         ecx,ecx
  00414BC0: 0F A2              cpuid
  00414BC2: 89 06              mov         dword ptr [esi],eax
  00414BC4: 89 5E 04           mov         dword ptr [esi+4],ebx
  00414BC7: 89 4E 08           mov         dword ptr [esi+8],ecx
  00414BCA: 89 56 0C           mov         dword ptr [esi+0Ch],edx
  00414BCD: BA 04 00 00 00     mov         edx,4
  00414BD2: 6B C2 00           imul        eax,edx,0
  00414BD5: 8B 4C 05 E0        mov         ecx,dword ptr [ebp+eax-20h]
  00414BD9: 89 4D D0           mov         dword ptr [ebp-30h],ecx
  00414BDC: BA 04 00 00 00     mov         edx,4
  00414BE1: C1 E2 00           shl         edx,0
  00414BE4: 8B 44 15 E0        mov         eax,dword ptr [ebp+edx-20h]
  00414BE8: 35 47 65 6E 75     xor         eax,756E6547h
  00414BED: B9 04 00 00 00     mov         ecx,4
  00414BF2: 6B D1 03           imul        edx,ecx,3
  00414BF5: 8B 4C 15 E0        mov         ecx,dword ptr [ebp+edx-20h]
  00414BF9: 81 F1 69 6E 65 49  xor         ecx,49656E69h
  00414BFF: 0B C1              or          eax,ecx
  00414C01: BA 04 00 00 00     mov         edx,4
  00414C06: D1 E2              shl         edx,1
  00414C08: 8B 4C 15 E0        mov         ecx,dword ptr [ebp+edx-20h]
  00414C0C: 81 F1 6E 74 65 6C  xor         ecx,6C65746Eh
  00414C12: 0B C1              or          eax,ecx
  00414C14: 75 09              jne         00414C1F
  00414C16: C7 45 D4 01 00 00  mov         dword ptr [ebp-2Ch],1
            00
  00414C1D: EB 07              jmp         00414C26
  00414C1F: C7 45 D4 00 00 00  mov         dword ptr [ebp-2Ch],0
            00
  00414C26: 8A 55 D4           mov         dl,byte ptr [ebp-2Ch]
  00414C29: 88 55 DF           mov         byte ptr [ebp-21h],dl
  00414C2C: 8D 75 E0           lea         esi,[ebp-20h]
  00414C2F: B8 01 00 00 00     mov         eax,1
  00414C34: 33 C9              xor         ecx,ecx
  00414C36: 0F A2              cpuid
  00414C38: 89 06              mov         dword ptr [esi],eax
  00414C3A: 89 5E 04           mov         dword ptr [esi+4],ebx
  00414C3D: 89 4E 08           mov         dword ptr [esi+8],ecx
  00414C40: 89 56 0C           mov         dword ptr [esi+0Ch],edx
  00414C43: B8 04 00 00 00     mov         eax,4
  00414C48: 6B C8 00           imul        ecx,eax,0
  00414C4B: 8B 54 0D E0        mov         edx,dword ptr [ebp+ecx-20h]
  00414C4F: 89 55 D8           mov         dword ptr [ebp-28h],edx
  00414C52: 0F B6 45 DF        movzx       eax,byte ptr [ebp-21h]
  00414C56: 85 C0              test        eax,eax
  00414C58: 74 71              je          00414CCB
  00414C5A: 8B 4D D8           mov         ecx,dword ptr [ebp-28h]
  00414C5D: 81 E1 F0 3F FF 0F  and         ecx,0FFF3FF0h
  00414C63: 81 F9 C0 06 01 00  cmp         ecx,106C0h
  00414C69: 74 51              je          00414CBC
  00414C6B: 8B 55 D8           mov         edx,dword ptr [ebp-28h]
  00414C6E: 81 E2 F0 3F FF 0F  and         edx,0FFF3FF0h
  00414C74: 81 FA 60 06 02 00  cmp         edx,20660h
  00414C7A: 74 40              je          00414CBC
  00414C7C: 8B 45 D8           mov         eax,dword ptr [ebp-28h]
  00414C7F: 25 F0 3F FF 0F     and         eax,0FFF3FF0h
  00414C84: 3D 70 06 02 00     cmp         eax,20670h
  00414C89: 74 31              je          00414CBC
  00414C8B: 8B 4D D8           mov         ecx,dword ptr [ebp-28h]
  00414C8E: 81 E1 F0 3F FF 0F  and         ecx,0FFF3FF0h
  00414C94: 81 F9 50 06 03 00  cmp         ecx,30650h
  00414C9A: 74 20              je          00414CBC
  00414C9C: 8B 55 D8           mov         edx,dword ptr [ebp-28h]
  00414C9F: 81 E2 F0 3F FF 0F  and         edx,0FFF3FF0h
  00414CA5: 81 FA 60 06 03 00  cmp         edx,30660h
  00414CAB: 74 0F              je          00414CBC
  00414CAD: 8B 45 D8           mov         eax,dword ptr [ebp-28h]
  00414CB0: 25 F0 3F FF 0F     and         eax,0FFF3FF0h
  00414CB5: 3D 70 06 03 00     cmp         eax,30670h
  00414CBA: 75 0F              jne         00414CCB
  00414CBC: 8B 0D 6C A5 41 00  mov         ecx,dword ptr [___favor]
  00414CC2: 83 C9 01           or          ecx,1
  00414CC5: 89 0D 6C A5 41 00  mov         dword ptr [___favor],ecx
  00414CCB: BA 04 00 00 00     mov         edx,4
  00414CD0: 6B C2 03           imul        eax,edx,3
  00414CD3: B9 04 00 00 00     mov         ecx,4
  00414CD8: 6B D1 00           imul        edx,ecx,0
  00414CDB: 8B 44 05 E0        mov         eax,dword ptr [ebp+eax-20h]
  00414CDF: 89 44 15 F0        mov         dword ptr [ebp+edx-10h],eax
  00414CE3: B9 04 00 00 00     mov         ecx,4
  00414CE8: D1 E1              shl         ecx,1
  00414CEA: BA 04 00 00 00     mov         edx,4
  00414CEF: C1 E2 00           shl         edx,0
  00414CF2: 8B 44 0D E0        mov         eax,dword ptr [ebp+ecx-20h]
  00414CF6: 89 44 15 F0        mov         dword ptr [ebp+edx-10h],eax
  00414CFA: 83 7D D0 07        cmp         dword ptr [ebp-30h],7
  00414CFE: 7C 4F              jl          00414D4F
  00414D00: 8D 75 E0           lea         esi,[ebp-20h]
  00414D03: B8 07 00 00 00     mov         eax,7
  00414D08: 33 C9              xor         ecx,ecx
  00414D0A: 0F A2              cpuid
  00414D0C: 89 06              mov         dword ptr [esi],eax
  00414D0E: 89 5E 04           mov         dword ptr [esi+4],ebx
  00414D11: 89 4E 08           mov         dword ptr [esi+8],ecx
  00414D14: 89 56 0C           mov         dword ptr [esi+0Ch],edx
  00414D17: B9 04 00 00 00     mov         ecx,4
  00414D1C: C1 E1 00           shl         ecx,0
  00414D1F: BA 04 00 00 00     mov         edx,4
  00414D24: D1 E2              shl         edx,1
  00414D26: 8B 44 0D E0        mov         eax,dword ptr [ebp+ecx-20h]
  00414D2A: 89 44 15 F0        mov         dword ptr [ebp+edx-10h],eax
  00414D2E: B9 04 00 00 00     mov         ecx,4
  00414D33: C1 E1 00           shl         ecx,0
  00414D36: 8B 54 0D E0        mov         edx,dword ptr [ebp+ecx-20h]
  00414D3A: 81 E2 00 02 00 00  and         edx,200h
  00414D40: 74 0D              je          00414D4F
  00414D42: A1 6C A5 41 00     mov         eax,dword ptr [___favor]
  00414D47: 83 C8 02           or          eax,2
  00414D4A: A3 6C A5 41 00     mov         dword ptr [___favor],eax
  00414D4F: B9 04 00 00 00     mov         ecx,4
  00414D54: C1 E1 00           shl         ecx,0
  00414D57: 8B 54 0D F0        mov         edx,dword ptr [ebp+ecx-10h]
  00414D5B: 81 E2 00 00 10 00  and         edx,100000h
  00414D61: 0F 84 AA 00 00 00  je          00414E11
  00414D67: C7 05 68 A5 41 00  mov         dword ptr [___isa_available],2
            02 00 00 00
  00414D71: A1 2C A0 41 00     mov         eax,dword ptr [___isa_enabled]
  00414D76: 83 C8 04           or          eax,4
  00414D79: A3 2C A0 41 00     mov         dword ptr [___isa_enabled],eax
  00414D7E: B9 04 00 00 00     mov         ecx,4
  00414D83: C1 E1 00           shl         ecx,0
  00414D86: 8B 54 0D F0        mov         edx,dword ptr [ebp+ecx-10h]
  00414D8A: 81 E2 00 00 00 08  and         edx,8000000h
  00414D90: 74 7F              je          00414E11
  00414D92: B8 04 00 00 00     mov         eax,4
  00414D97: C1 E0 00           shl         eax,0
  00414D9A: 8B 4C 05 F0        mov         ecx,dword ptr [ebp+eax-10h]
  00414D9E: 81 E1 00 00 00 10  and         ecx,10000000h
  00414DA4: 74 6B              je          00414E11
  00414DA6: 33 C9              xor         ecx,ecx
  00414DA8: 0F 01 D0           xgetbv
  00414DAB: 89 45 C8           mov         dword ptr [ebp-38h],eax
  00414DAE: 89 55 CC           mov         dword ptr [ebp-34h],edx
  00414DB1: 8B 55 C8           mov         edx,dword ptr [ebp-38h]
  00414DB4: 8B 45 CC           mov         eax,dword ptr [ebp-34h]
  00414DB7: 83 E2 06           and         edx,6
  00414DBA: 83 E0 00           and         eax,0
  00414DBD: 89 55 C0           mov         dword ptr [ebp-40h],edx
  00414DC0: 89 45 C4           mov         dword ptr [ebp-3Ch],eax
  00414DC3: 83 7D C0 06        cmp         dword ptr [ebp-40h],6
  00414DC7: 75 48              jne         00414E11
  00414DC9: 83 7D C4 00        cmp         dword ptr [ebp-3Ch],0
  00414DCD: 75 42              jne         00414E11
  00414DCF: C7 05 68 A5 41 00  mov         dword ptr [___isa_available],3
            03 00 00 00
  00414DD9: 8B 0D 2C A0 41 00  mov         ecx,dword ptr [___isa_enabled]
  00414DDF: 83 C9 08           or          ecx,8
  00414DE2: 89 0D 2C A0 41 00  mov         dword ptr [___isa_enabled],ecx
  00414DE8: BA 04 00 00 00     mov         edx,4
  00414DED: D1 E2              shl         edx,1
  00414DEF: 8B 44 15 F0        mov         eax,dword ptr [ebp+edx-10h]
  00414DF3: 83 E0 20           and         eax,20h
  00414DF6: 74 19              je          00414E11
  00414DF8: C7 05 68 A5 41 00  mov         dword ptr [___isa_available],5
            05 00 00 00
  00414E02: 8B 0D 2C A0 41 00  mov         ecx,dword ptr [___isa_enabled]
  00414E08: 83 C9 20           or          ecx,20h
  00414E0B: 89 0D 2C A0 41 00  mov         dword ptr [___isa_enabled],ecx
  00414E11: 33 C0              xor         eax,eax
  00414E13: 5E                 pop         esi
  00414E14: 5B                 pop         ebx
  00414E15: 8B 4D FC           mov         ecx,dword ptr [ebp-4]
  00414E18: 33 CD              xor         ecx,ebp
  00414E1A: E8 70 C4 FF FF     call        @ILT+650(@__security_check_cookie@4)
  00414E1F: 8B E5              mov         esp,ebp
  00414E21: 5D                 pop         ebp
  00414E22: C3                 ret
  00414E23: CC                 int         3
  00414E24: CC                 int         3
  00414E25: CC                 int         3
  00414E26: CC                 int         3
  00414E27: CC                 int         3
  00414E28: CC                 int         3
  00414E29: CC                 int         3
  00414E2A: CC                 int         3
  00414E2B: CC                 int         3
  00414E2C: CC                 int         3
  00414E2D: CC                 int         3
  00414E2E: CC                 int         3
  00414E2F: CC                 int         3
  00414E30: CC                 int         3
  00414E31: CC                 int         3
  00414E32: CC                 int         3
  00414E33: CC                 int         3
  00414E34: CC                 int         3
  00414E35: CC                 int         3
  00414E36: CC                 int         3
  00414E37: CC                 int         3
  00414E38: CC                 int         3
  00414E39: CC                 int         3
  00414E3A: CC                 int         3
  00414E3B: CC                 int         3
  00414E3C: CC                 int         3
  00414E3D: CC                 int         3
  00414E3E: CC                 int         3
  00414E3F: CC                 int         3
  00414E40: CC                 int         3
  00414E41: CC                 int         3
  00414E42: CC                 int         3
  00414E43: CC                 int         3
  00414E44: CC                 int         3
  00414E45: CC                 int         3
  00414E46: CC                 int         3
  00414E47: CC                 int         3
  00414E48: CC                 int         3
  00414E49: CC                 int         3
  00414E4A: CC                 int         3
  00414E4B: CC                 int         3
  00414E4C: CC                 int         3
  00414E4D: CC                 int         3
  00414E4E: CC                 int         3
  00414E4F: CC                 int         3
  00414E50: CC                 int         3
  00414E51: CC                 int         3
  00414E52: CC                 int         3
  00414E53: CC                 int         3
  00414E54: CC                 int         3
  00414E55: CC                 int         3
  00414E56: CC                 int         3
  00414E57: CC                 int         3
  00414E58: CC                 int         3
  00414E59: CC                 int         3
  00414E5A: CC                 int         3
  00414E5B: CC                 int         3
  00414E5C: CC                 int         3
  00414E5D: CC                 int         3
  00414E5E: CC                 int         3
  00414E5F: CC                 int         3
  00414E60: CC                 int         3
  00414E61: CC                 int         3
  00414E62: CC                 int         3
  00414E63: CC                 int         3
  00414E64: CC                 int         3
  00414E65: CC                 int         3
  00414E66: CC                 int         3
  00414E67: CC                 int         3
  00414E68: CC                 int         3
  00414E69: CC                 int         3
  00414E6A: CC                 int         3
  00414E6B: CC                 int         3
  00414E6C: CC                 int         3
  00414E6D: CC                 int         3
  00414E6E: CC                 int         3
  00414E6F: CC                 int         3
  00414E70: CC                 int         3
  00414E71: CC                 int         3
  00414E72: CC                 int         3
  00414E73: CC                 int         3
  00414E74: CC                 int         3
  00414E75: CC                 int         3
  00414E76: CC                 int         3
  00414E77: CC                 int         3
  00414E78: CC                 int         3
  00414E79: CC                 int         3
  00414E7A: CC                 int         3
  00414E7B: CC                 int         3
  00414E7C: CC                 int         3
  00414E7D: CC                 int         3
  00414E7E: CC                 int         3
  00414E7F: CC                 int         3
  00414E80: CC                 int         3
  00414E81: CC                 int         3
  00414E82: CC                 int         3
  00414E83: CC                 int         3
  00414E84: CC                 int         3
  00414E85: CC                 int         3
  00414E86: CC                 int         3
  00414E87: CC                 int         3
  00414E88: CC                 int         3
  00414E89: CC                 int         3
  00414E8A: CC                 int         3
  00414E8B: CC                 int         3
  00414E8C: CC                 int         3
  00414E8D: CC                 int         3
  00414E8E: CC                 int         3
  00414E8F: CC                 int         3
  00414E90: CC                 int         3
  00414E91: CC                 int         3
  00414E92: CC                 int         3
  00414E93: CC                 int         3
  00414E94: CC                 int         3
  00414E95: CC                 int         3
  00414E96: CC                 int         3
  00414E97: CC                 int         3
  00414E98: CC                 int         3
  00414E99: CC                 int         3
  00414E9A: CC                 int         3
  00414E9B: CC                 int         3
  00414E9C: CC                 int         3
  00414E9D: CC                 int         3
  00414E9E: CC                 int         3
  00414E9F: CC                 int         3
  00414EA0: CC                 int         3
  00414EA1: CC                 int         3
  00414EA2: CC                 int         3
  00414EA3: CC                 int         3
  00414EA4: CC                 int         3
  00414EA5: CC                 int         3
  00414EA6: CC                 int         3
  00414EA7: CC                 int         3
  00414EA8: CC                 int         3
  00414EA9: CC                 int         3
  00414EAA: CC                 int         3
  00414EAB: CC                 int         3
  00414EAC: CC                 int         3
  00414EAD: CC                 int         3
  00414EAE: CC                 int         3
  00414EAF: CC                 int         3
  00414EB0: CC                 int         3
  00414EB1: CC                 int         3
  00414EB2: CC                 int         3
  00414EB3: CC                 int         3
  00414EB4: CC                 int         3
  00414EB5: CC                 int         3
  00414EB6: CC                 int         3
  00414EB7: CC                 int         3
  00414EB8: CC                 int         3
  00414EB9: CC                 int         3
  00414EBA: CC                 int         3
  00414EBB: CC                 int         3
  00414EBC: CC                 int         3
  00414EBD: CC                 int         3
  00414EBE: CC                 int         3
  00414EBF: CC                 int         3
  00414EC0: CC                 int         3
  00414EC1: CC                 int         3
  00414EC2: CC                 int         3
  00414EC3: CC                 int         3
  00414EC4: CC                 int         3
  00414EC5: CC                 int         3
  00414EC6: CC                 int         3
  00414EC7: CC                 int         3
  00414EC8: CC                 int         3
  00414EC9: CC                 int         3
  00414ECA: CC                 int         3
  00414ECB: CC                 int         3
  00414ECC: CC                 int         3
  00414ECD: CC                 int         3
  00414ECE: CC                 int         3
  00414ECF: CC                 int         3
  00414ED0: CC                 int         3
  00414ED1: CC                 int         3
  00414ED2: CC                 int         3
  00414ED3: CC                 int         3
  00414ED4: CC                 int         3
  00414ED5: CC                 int         3
  00414ED6: CC                 int         3
  00414ED7: CC                 int         3
  00414ED8: CC                 int         3
  00414ED9: CC                 int         3
  00414EDA: CC                 int         3
  00414EDB: CC                 int         3
  00414EDC: CC                 int         3
  00414EDD: CC                 int         3
  00414EDE: CC                 int         3
  00414EDF: CC                 int         3
___scrt_is_ucrt_dll_in_use:
  00414EE0: 55                 push        ebp
  00414EE1: 8B EC              mov         ebp,esp
  00414EE3: 51                 push        ecx
  00414EE4: 83 3D 30 A0 41 00  cmp         dword ptr [___scrt_ucrt_dll_is_in_use],0
            00
  00414EEB: 74 09              je          00414EF6
  00414EED: C7 45 FC 01 00 00  mov         dword ptr [ebp-4],1
            00
  00414EF4: EB 07              jmp         00414EFD
  00414EF6: C7 45 FC 00 00 00  mov         dword ptr [ebp-4],0
            00
  00414EFD: 8B 45 FC           mov         eax,dword ptr [ebp-4]
  00414F00: 8B E5              mov         esp,ebp
  00414F02: 5D                 pop         ebp
  00414F03: C3                 ret
  00414F04: CC                 int         3
  00414F05: CC                 int         3
  00414F06: CC                 int         3
  00414F07: CC                 int         3
  00414F08: CC                 int         3
  00414F09: CC                 int         3
  00414F0A: CC                 int         3
  00414F0B: CC                 int         3
  00414F0C: CC                 int         3
___std_type_info_destroy_list:
  00414F0D: FF 25 AC B0 41 00  jmp         dword ptr [__imp____std_type_info_destroy_list]
_memset:
  00414F13: FF 25 A0 B0 41 00  jmp         dword ptr [__imp__memset]
__except_handler4_common:
  00414F19: FF 25 9C B0 41 00  jmp         dword ptr [__imp___except_handler4_common]
___vcrt_GetModuleFileNameW:
  00414F1F: FF 25 98 B0 41 00  jmp         dword ptr [__imp____vcrt_GetModuleFileNameW]
___vcrt_GetModuleHandleW:
  00414F25: FF 25 A4 B0 41 00  jmp         dword ptr [__imp____vcrt_GetModuleHandleW]
___vcrt_LoadLibraryExW:
  00414F2B: FF 25 A8 B0 41 00  jmp         dword ptr [__imp____vcrt_LoadLibraryExW]
___acrt_iob_func:
  00414F31: FF 25 6C B1 41 00  jmp         dword ptr [__imp____acrt_iob_func]
___stdio_common_vfprintf:
  00414F37: FF 25 68 B1 41 00  jmp         dword ptr [__imp____stdio_common_vfprintf]
_strcpy_s:
  00414F3D: FF 25 64 B1 41 00  jmp         dword ptr [__imp__strcpy_s]
__CrtDbgReport:
  00414F43: FF 25 60 B1 41 00  jmp         dword ptr [__imp___CrtDbgReport]
__CrtDbgReportW:
  00414F49: FF 25 5C B1 41 00  jmp         dword ptr [__imp___CrtDbgReportW]
__seh_filter_exe:
  00414F4F: FF 25 58 B1 41 00  jmp         dword ptr [__imp___seh_filter_exe]
__set_app_type:
  00414F55: FF 25 54 B1 41 00  jmp         dword ptr [__imp___set_app_type]
___setusermatherr:
  00414F5B: FF 25 50 B1 41 00  jmp         dword ptr [__imp____setusermatherr]
__configure_narrow_argv:
  00414F61: FF 25 4C B1 41 00  jmp         dword ptr [__imp___configure_narrow_argv]
__initialize_narrow_environment:
  00414F67: FF 25 48 B1 41 00  jmp         dword ptr [__imp___initialize_narrow_environment]
__get_initial_narrow_environment:
  00414F6D: FF 25 44 B1 41 00  jmp         dword ptr [__imp___get_initial_narrow_environment]
__initterm:
  00414F73: FF 25 40 B1 41 00  jmp         dword ptr [__imp___initterm]
__initterm_e:
  00414F79: FF 25 3C B1 41 00  jmp         dword ptr [__imp___initterm_e]
_exit:
  00414F7F: FF 25 38 B1 41 00  jmp         dword ptr [__imp__exit]
__exit:
  00414F85: FF 25 34 B1 41 00  jmp         dword ptr [__imp___exit]
__set_fmode:
  00414F8B: FF 25 30 B1 41 00  jmp         dword ptr [__imp___set_fmode]
___p___argc:
  00414F91: FF 25 2C B1 41 00  jmp         dword ptr [__imp____p___argc]
___p___argv:
  00414F97: FF 25 28 B1 41 00  jmp         dword ptr [__imp____p___argv]
__cexit:
  00414F9D: FF 25 24 B1 41 00  jmp         dword ptr [__imp___cexit]
__c_exit:
  00414FA3: FF 25 20 B1 41 00  jmp         dword ptr [__imp___c_exit]
__register_thread_local_exe_atexit_callback:
  00414FA9: FF 25 1C B1 41 00  jmp         dword ptr [__imp___register_thread_local_exe_atexit_callback]
__configthreadlocale:
  00414FAF: FF 25 18 B1 41 00  jmp         dword ptr [__imp___configthreadlocale]
__set_new_mode:
  00414FB5: FF 25 EC B0 41 00  jmp         dword ptr [__imp___set_new_mode]
___p__commode:
  00414FBB: FF 25 14 B1 41 00  jmp         dword ptr [__imp____p__commode]
_strcat_s:
  00414FC1: FF 25 E0 B0 41 00  jmp         dword ptr [__imp__strcat_s]
___stdio_common_vsprintf_s:
  00414FC7: FF 25 E4 B0 41 00  jmp         dword ptr [__imp____stdio_common_vsprintf_s]
__seh_filter_dll:
  00414FCD: FF 25 E8 B0 41 00  jmp         dword ptr [__imp___seh_filter_dll]
__initialize_onexit_table:
  00414FD3: FF 25 70 B1 41 00  jmp         dword ptr [__imp___initialize_onexit_table]
__register_onexit_function:
  00414FD9: FF 25 F0 B0 41 00  jmp         dword ptr [__imp___register_onexit_function]
__execute_onexit_table:
  00414FDF: FF 25 F4 B0 41 00  jmp         dword ptr [__imp___execute_onexit_table]
__crt_atexit:
  00414FE5: FF 25 F8 B0 41 00  jmp         dword ptr [__imp___crt_atexit]
__crt_at_quick_exit:
  00414FEB: FF 25 FC B0 41 00  jmp         dword ptr [__imp___crt_at_quick_exit]
__controlfp_s:
  00414FF1: FF 25 00 B1 41 00  jmp         dword ptr [__imp___controlfp_s]
_terminate:
  00414FF7: FF 25 04 B1 41 00  jmp         dword ptr [__imp__terminate]
__wmakepath_s:
  00414FFD: FF 25 08 B1 41 00  jmp         dword ptr [__imp___wmakepath_s]
__wsplitpath_s:
  00415003: FF 25 0C B1 41 00  jmp         dword ptr [__imp___wsplitpath_s]
_wcscpy_s:
  00415009: FF 25 10 B1 41 00  jmp         dword ptr [__imp__wcscpy_s]
_IsDebuggerPresent@0:
  0041500F: FF 25 38 B0 41 00  jmp         dword ptr [__imp__IsDebuggerPresent@0]
_RaiseException@16:
  00415015: FF 25 04 B0 41 00  jmp         dword ptr [__imp__RaiseException@16]
_MultiByteToWideChar@24:
  0041501B: FF 25 08 B0 41 00  jmp         dword ptr [__imp__MultiByteToWideChar@24]
_WideCharToMultiByte@32:
  00415021: FF 25 0C B0 41 00  jmp         dword ptr [__imp__WideCharToMultiByte@32]
_UnhandledExceptionFilter@4:
  00415027: FF 25 10 B0 41 00  jmp         dword ptr [__imp__UnhandledExceptionFilter@4]
_SetUnhandledExceptionFilter@4:
  0041502D: FF 25 14 B0 41 00  jmp         dword ptr [__imp__SetUnhandledExceptionFilter@4]
_GetCurrentProcess@0:
  00415033: FF 25 58 B0 41 00  jmp         dword ptr [__imp__GetCurrentProcess@0]
_TerminateProcess@8:
  00415039: FF 25 54 B0 41 00  jmp         dword ptr [__imp__TerminateProcess@8]
_IsProcessorFeaturePresent@4:
  0041503F: FF 25 50 B0 41 00  jmp         dword ptr [__imp__IsProcessorFeaturePresent@4]
_QueryPerformanceCounter@4:
  00415045: FF 25 4C B0 41 00  jmp         dword ptr [__imp__QueryPerformanceCounter@4]
_GetCurrentProcessId@0:
  0041504B: FF 25 48 B0 41 00  jmp         dword ptr [__imp__GetCurrentProcessId@0]
_GetCurrentThreadId@0:
  00415051: FF 25 44 B0 41 00  jmp         dword ptr [__imp__GetCurrentThreadId@0]
_GetSystemTimeAsFileTime@4:
  00415057: FF 25 40 B0 41 00  jmp         dword ptr [__imp__GetSystemTimeAsFileTime@4]
_InitializeSListHead@4:
  0041505D: FF 25 3C B0 41 00  jmp         dword ptr [__imp__InitializeSListHead@4]
_GetStartupInfoW@4:
  00415063: FF 25 00 B0 41 00  jmp         dword ptr [__imp__GetStartupInfoW@4]
_GetModuleHandleW@4:
  00415069: FF 25 34 B0 41 00  jmp         dword ptr [__imp__GetModuleHandleW@4]
_GetLastError@0:
  0041506F: FF 25 30 B0 41 00  jmp         dword ptr [__imp__GetLastError@0]
_HeapAlloc@12:
  00415075: FF 25 2C B0 41 00  jmp         dword ptr [__imp__HeapAlloc@12]
_HeapFree@12:
  0041507B: FF 25 28 B0 41 00  jmp         dword ptr [__imp__HeapFree@12]
_GetProcessHeap@0:
  00415081: FF 25 24 B0 41 00  jmp         dword ptr [__imp__GetProcessHeap@0]
_VirtualQuery@12:
  00415087: FF 25 20 B0 41 00  jmp         dword ptr [__imp__VirtualQuery@12]
_FreeLibrary@4:
  0041508D: FF 25 1C B0 41 00  jmp         dword ptr [__imp__FreeLibrary@4]
_GetProcAddress@8:
  00415093: FF 25 18 B0 41 00  jmp         dword ptr [__imp__GetProcAddress@8]
  00415099: CC                 int         3
  0041509A: CC                 int         3
  0041509B: CC                 int         3
  0041509C: CC                 int         3
  0041509D: CC                 int         3
  0041509E: CC                 int         3
  0041509F: CC                 int         3
___acrt_initialize:
  004150A0: 55                 push        ebp
  004150A1: 8B EC              mov         ebp,esp
  004150A3: B0 01              mov         al,1
  004150A5: 5D                 pop         ebp
  004150A6: C3                 ret
  004150A7: CC                 int         3
  004150A8: CC                 int         3
  004150A9: CC                 int         3
  004150AA: CC                 int         3
  004150AB: CC                 int         3
  004150AC: CC                 int         3
  004150AD: CC                 int         3
  004150AE: CC                 int         3
  004150AF: CC                 int         3
___acrt_thread_attach:
  004150B0: 55                 push        ebp
  004150B1: 8B EC              mov         ebp,esp
  004150B3: B0 01              mov         al,1
  004150B5: 5D                 pop         ebp
  004150B6: C3                 ret
  004150B7: CC                 int         3
  004150B8: CC                 int         3
  004150B9: CC                 int         3
  004150BA: CC                 int         3
  004150BB: CC                 int         3
  004150BC: CC                 int         3
  004150BD: CC                 int         3
  004150BE: CC                 int         3
  004150BF: CC                 int         3
___acrt_thread_detach:
  004150C0: 55                 push        ebp
  004150C1: 8B EC              mov         ebp,esp
  004150C3: B0 01              mov         al,1
  004150C5: 5D                 pop         ebp
  004150C6: C3                 ret
  004150C7: CC                 int         3
  004150C8: CC                 int         3
  004150C9: CC                 int         3
  004150CA: CC                 int         3
  004150CB: CC                 int         3
  004150CC: CC                 int         3
  004150CD: CC                 int         3
  004150CE: CC                 int         3
  004150CF: CC                 int         3
___acrt_uninitialize:
  004150D0: 55                 push        ebp
  004150D1: 8B EC              mov         ebp,esp
  004150D3: B0 01              mov         al,1
  004150D5: 5D                 pop         ebp
  004150D6: C3                 ret
  004150D7: CC                 int         3
  004150D8: CC                 int         3
  004150D9: CC                 int         3
  004150DA: CC                 int         3
  004150DB: CC                 int         3
  004150DC: CC                 int         3
  004150DD: CC                 int         3
  004150DE: CC                 int         3
  004150DF: CC                 int         3
___acrt_uninitialize_critical:
  004150E0: 55                 push        ebp
  004150E1: 8B EC              mov         ebp,esp
  004150E3: B0 01              mov         al,1
  004150E5: 5D                 pop         ebp
  004150E6: C3                 ret
  004150E7: CC                 int         3
  004150E8: CC                 int         3
  004150E9: CC                 int         3
  004150EA: CC                 int         3
  004150EB: CC                 int         3
  004150EC: CC                 int         3
  004150ED: CC                 int         3
  004150EE: CC                 int         3
  004150EF: CC                 int         3
___scrt_stub_for_is_c_termination_complete:
  004150F0: 55                 push        ebp
  004150F1: 8B EC              mov         ebp,esp
  004150F3: 33 C0              xor         eax,eax
  004150F5: 5D                 pop         ebp
  004150F6: C3                 ret
  004150F7: CC                 int         3
  004150F8: CC                 int         3
  004150F9: CC                 int         3
  004150FA: CC                 int         3
  004150FB: CC                 int         3
  004150FC: CC                 int         3
  004150FD: CC                 int         3
  004150FE: CC                 int         3
  004150FF: CC                 int         3
  00415100: CC                 int         3
  00415101: CC                 int         3
  00415102: CC                 int         3
  00415103: CC                 int         3
  00415104: CC                 int         3
  00415105: CC                 int         3
  00415106: CC                 int         3
  00415107: CC                 int         3
  00415108: CC                 int         3
  00415109: CC                 int         3
  0041510A: CC                 int         3
  0041510B: CC                 int         3
  0041510C: CC                 int         3
  0041510D: CC                 int         3
  0041510E: CC                 int         3
  0041510F: CC                 int         3
  00415110: CC                 int         3
  00415111: CC                 int         3
  00415112: CC                 int         3
  00415113: CC                 int         3
  00415114: CC                 int         3
  00415115: CC                 int         3
  00415116: CC                 int         3
  00415117: CC                 int         3
  00415118: CC                 int         3
  00415119: CC                 int         3
  0041511A: CC                 int         3
  0041511B: CC                 int         3
  0041511C: CC                 int         3
  0041511D: CC                 int         3
  0041511E: CC                 int         3
  0041511F: CC                 int         3
  00415120: CC                 int         3
  00415121: CC                 int         3
  00415122: CC                 int         3
  00415123: CC                 int         3
  00415124: CC                 int         3
  00415125: CC                 int         3
  00415126: CC                 int         3
  00415127: CC                 int         3
  00415128: CC                 int         3
  00415129: CC                 int         3
  0041512A: CC                 int         3
  0041512B: CC                 int         3
  0041512C: CC                 int         3
  0041512D: CC                 int         3
  0041512E: CC                 int         3
  0041512F: CC                 int         3
  00415130: CC                 int         3
  00415131: CC                 int         3
  00415132: CC                 int         3
  00415133: CC                 int         3
  00415134: CC                 int         3
  00415135: CC                 int         3
  00415136: CC                 int         3
  00415137: CC                 int         3
  00415138: CC                 int         3
  00415139: CC                 int         3
  0041513A: CC                 int         3
  0041513B: CC                 int         3
  0041513C: CC                 int         3
  0041513D: CC                 int         3
  0041513E: CC                 int         3
  0041513F: CC                 int         3
  00415140: CC                 int         3
  00415141: CC                 int         3
  00415142: CC                 int         3
  00415143: CC                 int         3
  00415144: CC                 int         3
  00415145: CC                 int         3
  00415146: CC                 int         3
  00415147: CC                 int         3
  00415148: CC                 int         3
  00415149: CC                 int         3
  0041514A: CC                 int         3
  0041514B: CC                 int         3
  0041514C: CC                 int         3
  0041514D: CC                 int         3
  0041514E: CC                 int         3
  0041514F: CC                 int         3
  00415150: CC                 int         3
  00415151: CC                 int         3
  00415152: CC                 int         3
  00415153: CC                 int         3
  00415154: CC                 int         3
  00415155: CC                 int         3
  00415156: CC                 int         3
  00415157: CC                 int         3
  00415158: CC                 int         3
  00415159: CC                 int         3
  0041515A: CC                 int         3
  0041515B: CC                 int         3
  0041515C: CC                 int         3
  0041515D: CC                 int         3
  0041515E: CC                 int         3
  0041515F: CC                 int         3
  00415160: CC                 int         3
  00415161: CC                 int         3
  00415162: CC                 int         3
  00415163: CC                 int         3
  00415164: CC                 int         3
  00415165: CC                 int         3
  00415166: CC                 int         3
  00415167: CC                 int         3
  00415168: CC                 int         3
  00415169: CC                 int         3
  0041516A: CC                 int         3
  0041516B: CC                 int         3
  0041516C: CC                 int         3
  0041516D: CC                 int         3
  0041516E: CC                 int         3
  0041516F: CC                 int         3
  00415170: CC                 int         3
  00415171: CC                 int         3
  00415172: CC                 int         3
  00415173: CC                 int         3
  00415174: CC                 int         3
  00415175: CC                 int         3
  00415176: CC                 int         3
  00415177: CC                 int         3
  00415178: CC                 int         3
  00415179: CC                 int         3
  0041517A: CC                 int         3
  0041517B: CC                 int         3
  0041517C: CC                 int         3
  0041517D: CC                 int         3
  0041517E: CC                 int         3
  0041517F: CC                 int         3
  00415180: CC                 int         3
  00415181: CC                 int         3
  00415182: CC                 int         3
  00415183: CC                 int         3
  00415184: CC                 int         3
  00415185: CC                 int         3
  00415186: CC                 int         3
  00415187: CC                 int         3
  00415188: CC                 int         3
  00415189: CC                 int         3
  0041518A: CC                 int         3
  0041518B: CC                 int         3
  0041518C: CC                 int         3
  0041518D: CC                 int         3
  0041518E: CC                 int         3
  0041518F: CC                 int         3
  00415190: CC                 int         3
  00415191: CC                 int         3
  00415192: CC                 int         3
  00415193: CC                 int         3
  00415194: CC                 int         3
  00415195: CC                 int         3
  00415196: CC                 int         3
  00415197: CC                 int         3
  00415198: CC                 int         3
  00415199: CC                 int         3
  0041519A: CC                 int         3
  0041519B: CC                 int         3
  0041519C: CC                 int         3
  0041519D: CC                 int         3
  0041519E: CC                 int         3
  0041519F: CC                 int         3
  004151A0: CC                 int         3
  004151A1: CC                 int         3
  004151A2: CC                 int         3
  004151A3: CC                 int         3
  004151A4: CC                 int         3
  004151A5: CC                 int         3
  004151A6: CC                 int         3
  004151A7: CC                 int         3
  004151A8: CC                 int         3
  004151A9: CC                 int         3
  004151AA: CC                 int         3
  004151AB: CC                 int         3
  004151AC: CC                 int         3
  004151AD: CC                 int         3
  004151AE: CC                 int         3
  004151AF: CC                 int         3
  004151B0: CC                 int         3
  004151B1: CC                 int         3
  004151B2: CC                 int         3
  004151B3: CC                 int         3
  004151B4: CC                 int         3
  004151B5: CC                 int         3
  004151B6: CC                 int         3
  004151B7: CC                 int         3
  004151B8: CC                 int         3
  004151B9: CC                 int         3
  004151BA: CC                 int         3
  004151BB: CC                 int         3
  004151BC: CC                 int         3
  004151BD: CC                 int         3
  004151BE: CC                 int         3
  004151BF: CC                 int         3
  004151C0: CC                 int         3
  004151C1: CC                 int         3
  004151C2: CC                 int         3
  004151C3: CC                 int         3
  004151C4: CC                 int         3
  004151C5: CC                 int         3
  004151C6: CC                 int         3
  004151C7: CC                 int         3
  004151C8: CC                 int         3
  004151C9: CC                 int         3
  004151CA: CC                 int         3
  004151CB: CC                 int         3
  004151CC: CC                 int         3
  004151CD: CC                 int         3
  004151CE: CC                 int         3
  004151CF: CC                 int         3
  004151D0: CC                 int         3
  004151D1: CC                 int         3
  004151D2: CC                 int         3
  004151D3: CC                 int         3
  004151D4: CC                 int         3
  004151D5: CC                 int         3
  004151D6: CC                 int         3
  004151D7: CC                 int         3
  004151D8: CC                 int         3
  004151D9: CC                 int         3
  004151DA: CC                 int         3
  004151DB: CC                 int         3
  004151DC: CC                 int         3
  004151DD: CC                 int         3
  004151DE: CC                 int         3
  004151DF: CC                 int         3
  004151E0: CC                 int         3
  004151E1: CC                 int         3
  004151E2: CC                 int         3
  004151E3: CC                 int         3
  004151E4: CC                 int         3
  004151E5: CC                 int         3
  004151E6: CC                 int         3
  004151E7: CC                 int         3
  004151E8: CC                 int         3
  004151E9: CC                 int         3
  004151EA: CC                 int         3
  004151EB: CC                 int         3
  004151EC: CC                 int         3
  004151ED: CC                 int         3
  004151EE: CC                 int         3
  004151EF: CC                 int         3
  004151F0: CC                 int         3
  004151F1: CC                 int         3
  004151F2: CC                 int         3
  004151F3: CC                 int         3
  004151F4: CC                 int         3
  004151F5: CC                 int         3
  004151F6: CC                 int         3
  004151F7: CC                 int         3
  004151F8: CC                 int         3
  004151F9: CC                 int         3
  004151FA: CC                 int         3
  004151FB: CC                 int         3
  004151FC: CC                 int         3
  004151FD: CC                 int         3
  004151FE: CC                 int         3
  004151FF: CC                 int         3
  00415200: CC                 int         3
  00415201: CC                 int         3
  00415202: CC                 int         3
  00415203: CC                 int         3
  00415204: CC                 int         3
  00415205: CC                 int         3
  00415206: CC                 int         3
  00415207: CC                 int         3
  00415208: CC                 int         3
  00415209: CC                 int         3
  0041520A: CC                 int         3
  0041520B: CC                 int         3
  0041520C: CC                 int         3
  0041520D: CC                 int         3
  0041520E: CC                 int         3
  0041520F: CC                 int         3
  00415210: CC                 int         3
  00415211: CC                 int         3
  00415212: CC                 int         3
  00415213: CC                 int         3
  00415214: CC                 int         3
  00415215: CC                 int         3
  00415216: CC                 int         3
  00415217: CC                 int         3
  00415218: CC                 int         3
  00415219: CC                 int         3
  0041521A: CC                 int         3
  0041521B: CC                 int         3
  0041521C: CC                 int         3
  0041521D: CC                 int         3
  0041521E: CC                 int         3
  0041521F: CC                 int         3
  00415220: CC                 int         3
  00415221: CC                 int         3
  00415222: CC                 int         3
  00415223: CC                 int         3
  00415224: CC                 int         3
  00415225: CC                 int         3
  00415226: CC                 int         3
  00415227: CC                 int         3
  00415228: CC                 int         3
  00415229: CC                 int         3
  0041522A: CC                 int         3
  0041522B: CC                 int         3
  0041522C: CC                 int         3
  0041522D: CC                 int         3
  0041522E: CC                 int         3
  0041522F: CC                 int         3
  00415230: CC                 int         3
  00415231: CC                 int         3
  00415232: CC                 int         3
  00415233: CC                 int         3
  00415234: CC                 int         3
  00415235: CC                 int         3
  00415236: CC                 int         3
  00415237: CC                 int         3
  00415238: CC                 int         3
  00415239: CC                 int         3
  0041523A: CC                 int         3
  0041523B: CC                 int         3
  0041523C: CC                 int         3
  0041523D: CC                 int         3
  0041523E: CC                 int         3
  0041523F: CC                 int         3
  00415240: CC                 int         3
  00415241: CC                 int         3
  00415242: CC                 int         3
  00415243: CC                 int         3
  00415244: CC                 int         3
  00415245: CC                 int         3
  00415246: CC                 int         3
  00415247: CC                 int         3
  00415248: CC                 int         3
  00415249: CC                 int         3
  0041524A: CC                 int         3
  0041524B: CC                 int         3
  0041524C: CC                 int         3
  0041524D: CC                 int         3
  0041524E: CC                 int         3
  0041524F: CC                 int         3
  00415250: CC                 int         3
  00415251: CC                 int         3
  00415252: CC                 int         3
  00415253: CC                 int         3
  00415254: CC                 int         3
  00415255: CC                 int         3
  00415256: CC                 int         3
  00415257: CC                 int         3
  00415258: CC                 int         3
  00415259: CC                 int         3
  0041525A: CC                 int         3
  0041525B: CC                 int         3
  0041525C: CC                 int         3
  0041525D: CC                 int         3
  0041525E: CC                 int         3
  0041525F: CC                 int         3
  00415260: CC                 int         3
  00415261: CC                 int         3
  00415262: CC                 int         3
  00415263: CC                 int         3
  00415264: CC                 int         3
  00415265: CC                 int         3
  00415266: CC                 int         3
  00415267: CC                 int         3
  00415268: CC                 int         3
  00415269: CC                 int         3
  0041526A: CC                 int         3
  0041526B: CC                 int         3
  0041526C: CC                 int         3
  0041526D: CC                 int         3
  0041526E: CC                 int         3
  0041526F: CC                 int         3
  00415270: CC                 int         3
  00415271: CC                 int         3
  00415272: CC                 int         3
  00415273: CC                 int         3
  00415274: CC                 int         3
  00415275: CC                 int         3
  00415276: CC                 int         3
  00415277: CC                 int         3
  00415278: CC                 int         3
  00415279: CC                 int         3
  0041527A: CC                 int         3
  0041527B: CC                 int         3
  0041527C: CC                 int         3
  0041527D: CC                 int         3
  0041527E: CC                 int         3
  0041527F: CC                 int         3
  00415280: CC                 int         3
  00415281: CC                 int         3
  00415282: CC                 int         3
  00415283: CC                 int         3
  00415284: CC                 int         3
  00415285: CC                 int         3
  00415286: CC                 int         3
  00415287: CC                 int         3
  00415288: CC                 int         3
  00415289: CC                 int         3
  0041528A: CC                 int         3
  0041528B: CC                 int         3
  0041528C: CC                 int         3
  0041528D: CC                 int         3
  0041528E: CC                 int         3
  0041528F: CC                 int         3
  00415290: CC                 int         3
  00415291: CC                 int         3
  00415292: CC                 int         3
  00415293: CC                 int         3
  00415294: CC                 int         3
  00415295: CC                 int         3
  00415296: CC                 int         3
  00415297: CC                 int         3
  00415298: CC                 int         3
  00415299: CC                 int         3
  0041529A: CC                 int         3
  0041529B: CC                 int         3
  0041529C: CC                 int         3
  0041529D: CC                 int         3
  0041529E: CC                 int         3
  0041529F: CC                 int         3
  004152A0: CC                 int         3
  004152A1: CC                 int         3
  004152A2: CC                 int         3
  004152A3: CC                 int         3
  004152A4: CC                 int         3
  004152A5: CC                 int         3
  004152A6: CC                 int         3
  004152A7: CC                 int         3
  004152A8: CC                 int         3
  004152A9: CC                 int         3
  004152AA: CC                 int         3
  004152AB: CC                 int         3
  004152AC: CC                 int         3
  004152AD: CC                 int         3
  004152AE: CC                 int         3
  004152AF: CC                 int         3
  004152B0: CC                 int         3
  004152B1: CC                 int         3
  004152B2: CC                 int         3
  004152B3: CC                 int         3
  004152B4: CC                 int         3
  004152B5: CC                 int         3
  004152B6: CC                 int         3
  004152B7: CC                 int         3
  004152B8: CC                 int         3
  004152B9: CC                 int         3
  004152BA: CC                 int         3
  004152BB: CC                 int         3
  004152BC: CC                 int         3
  004152BD: CC                 int         3
  004152BE: CC                 int         3
  004152BF: CC                 int         3
  004152C0: CC                 int         3
  004152C1: CC                 int         3
  004152C2: CC                 int         3
  004152C3: CC                 int         3
  004152C4: CC                 int         3
  004152C5: CC                 int         3
  004152C6: CC                 int         3
  004152C7: CC                 int         3
  004152C8: CC                 int         3
  004152C9: CC                 int         3
  004152CA: CC                 int         3
  004152CB: CC                 int         3
  004152CC: CC                 int         3
  004152CD: CC                 int         3
  004152CE: CC                 int         3
  004152CF: CC                 int         3
  004152D0: CC                 int         3
  004152D1: CC                 int         3
  004152D2: CC                 int         3
  004152D3: CC                 int         3
  004152D4: CC                 int         3
  004152D5: CC                 int         3
  004152D6: CC                 int         3
  004152D7: CC                 int         3
  004152D8: CC                 int         3
  004152D9: CC                 int         3
  004152DA: CC                 int         3
  004152DB: CC                 int         3
  004152DC: CC                 int         3
  004152DD: CC                 int         3
  004152DE: CC                 int         3
  004152DF: CC                 int         3
  004152E0: CC                 int         3
  004152E1: CC                 int         3
  004152E2: CC                 int         3
  004152E3: CC                 int         3
  004152E4: CC                 int         3
  004152E5: CC                 int         3
  004152E6: CC                 int         3
  004152E7: CC                 int         3
  004152E8: CC                 int         3
  004152E9: CC                 int         3
  004152EA: CC                 int         3
  004152EB: CC                 int         3
  004152EC: CC                 int         3
  004152ED: CC                 int         3
  004152EE: CC                 int         3
  004152EF: CC                 int         3
  004152F0: CC                 int         3
  004152F1: CC                 int         3
  004152F2: CC                 int         3
  004152F3: CC                 int         3
  004152F4: CC                 int         3
  004152F5: CC                 int         3
  004152F6: CC                 int         3
  004152F7: CC                 int         3
  004152F8: CC                 int         3
  004152F9: CC                 int         3
  004152FA: CC                 int         3
  004152FB: CC                 int         3
  004152FC: CC                 int         3
  004152FD: CC                 int         3
  004152FE: CC                 int         3
  004152FF: CC                 int         3
  00415300: CC                 int         3
  00415301: CC                 int         3
  00415302: CC                 int         3
  00415303: CC                 int         3
  00415304: CC                 int         3
  00415305: CC                 int         3
  00415306: CC                 int         3
  00415307: CC                 int         3
  00415308: CC                 int         3
  00415309: CC                 int         3
  0041530A: CC                 int         3
  0041530B: CC                 int         3
  0041530C: CC                 int         3
  0041530D: CC                 int         3
  0041530E: CC                 int         3
  0041530F: CC                 int         3
  00415310: CC                 int         3
  00415311: CC                 int         3
  00415312: CC                 int         3
  00415313: CC                 int         3
  00415314: CC                 int         3
  00415315: CC                 int         3
  00415316: CC                 int         3
  00415317: CC                 int         3
  00415318: CC                 int         3
  00415319: CC                 int         3
  0041531A: CC                 int         3
  0041531B: CC                 int         3
  0041531C: CC                 int         3
  0041531D: CC                 int         3
  0041531E: CC                 int         3
  0041531F: CC                 int         3
  00415320: CC                 int         3
  00415321: CC                 int         3
  00415322: CC                 int         3
  00415323: CC                 int         3
  00415324: CC                 int         3
  00415325: CC                 int         3
  00415326: CC                 int         3
  00415327: CC                 int         3
  00415328: CC                 int         3
  00415329: CC                 int         3
  0041532A: CC                 int         3
  0041532B: CC                 int         3
  0041532C: CC                 int         3
  0041532D: CC                 int         3
  0041532E: CC                 int         3
  0041532F: CC                 int         3
  00415330: CC                 int         3
  00415331: CC                 int         3
  00415332: CC                 int         3
  00415333: CC                 int         3
  00415334: CC                 int         3
  00415335: CC                 int         3
  00415336: CC                 int         3
  00415337: CC                 int         3
  00415338: CC                 int         3
  00415339: CC                 int         3
  0041533A: CC                 int         3
  0041533B: CC                 int         3
  0041533C: CC                 int         3
  0041533D: CC                 int         3
  0041533E: CC                 int         3
  0041533F: CC                 int         3
  00415340: CC                 int         3
  00415341: CC                 int         3
  00415342: CC                 int         3
  00415343: CC                 int         3
  00415344: CC                 int         3
  00415345: CC                 int         3
  00415346: CC                 int         3
  00415347: CC                 int         3
  00415348: CC                 int         3
  00415349: CC                 int         3
  0041534A: CC                 int         3
  0041534B: CC                 int         3
  0041534C: CC                 int         3
  0041534D: CC                 int         3
  0041534E: CC                 int         3
  0041534F: CC                 int         3
  00415350: CC                 int         3
  00415351: CC                 int         3
  00415352: CC                 int         3
  00415353: CC                 int         3
  00415354: CC                 int         3
  00415355: CC                 int         3
  00415356: CC                 int         3
  00415357: CC                 int         3
  00415358: CC                 int         3
  00415359: CC                 int         3
  0041535A: CC                 int         3
  0041535B: CC                 int         3
  0041535C: CC                 int         3
  0041535D: CC                 int         3
  0041535E: CC                 int         3
  0041535F: CC                 int         3
  00415360: CC                 int         3
  00415361: CC                 int         3
  00415362: CC                 int         3
  00415363: CC                 int         3
  00415364: CC                 int         3
  00415365: CC                 int         3
  00415366: CC                 int         3
  00415367: CC                 int         3
  00415368: CC                 int         3
  00415369: CC                 int         3
  0041536A: CC                 int         3
  0041536B: CC                 int         3
  0041536C: CC                 int         3
  0041536D: CC                 int         3
  0041536E: CC                 int         3
  0041536F: CC                 int         3
  00415370: CC                 int         3
  00415371: CC                 int         3
  00415372: CC                 int         3
  00415373: CC                 int         3
  00415374: CC                 int         3
  00415375: CC                 int         3
  00415376: CC                 int         3
  00415377: CC                 int         3
  00415378: CC                 int         3
  00415379: CC                 int         3
  0041537A: CC                 int         3
  0041537B: CC                 int         3
  0041537C: CC                 int         3
  0041537D: CC                 int         3
  0041537E: CC                 int         3
  0041537F: CC                 int         3
  00415380: CC                 int         3
  00415381: CC                 int         3
  00415382: CC                 int         3
  00415383: CC                 int         3
  00415384: CC                 int         3
  00415385: CC                 int         3
  00415386: CC                 int         3
  00415387: CC                 int         3
  00415388: CC                 int         3
  00415389: CC                 int         3
  0041538A: CC                 int         3
  0041538B: CC                 int         3
  0041538C: CC                 int         3
  0041538D: CC                 int         3
  0041538E: CC                 int         3
  0041538F: CC                 int         3
  00415390: CC                 int         3
  00415391: CC                 int         3
  00415392: CC                 int         3
  00415393: CC                 int         3
  00415394: CC                 int         3
  00415395: CC                 int         3
  00415396: CC                 int         3
  00415397: CC                 int         3
  00415398: CC                 int         3
  00415399: CC                 int         3
  0041539A: CC                 int         3
  0041539B: CC                 int         3
  0041539C: CC                 int         3
  0041539D: CC                 int         3
  0041539E: CC                 int         3
  0041539F: CC                 int         3
  004153A0: CC                 int         3
  004153A1: CC                 int         3
  004153A2: CC                 int         3
  004153A3: CC                 int         3
  004153A4: CC                 int         3
  004153A5: CC                 int         3
  004153A6: CC                 int         3
  004153A7: CC                 int         3
  004153A8: CC                 int         3
  004153A9: CC                 int         3
  004153AA: CC                 int         3
  004153AB: CC                 int         3
  004153AC: CC                 int         3
  004153AD: CC                 int         3
  004153AE: CC                 int         3
  004153AF: CC                 int         3
  004153B0: CC                 int         3
  004153B1: CC                 int         3
  004153B2: CC                 int         3
  004153B3: CC                 int         3
  004153B4: CC                 int         3
  004153B5: CC                 int         3
  004153B6: CC                 int         3
  004153B7: CC                 int         3
  004153B8: CC                 int         3
  004153B9: CC                 int         3
  004153BA: CC                 int         3
  004153BB: CC                 int         3
  004153BC: CC                 int         3
  004153BD: CC                 int         3
  004153BE: CC                 int         3
  004153BF: CC                 int         3
  004153C0: CC                 int         3
  004153C1: CC                 int         3
  004153C2: CC                 int         3
  004153C3: CC                 int         3
  004153C4: CC                 int         3
  004153C5: CC                 int         3
  004153C6: CC                 int         3
  004153C7: CC                 int         3
  004153C8: CC                 int         3
  004153C9: CC                 int         3
  004153CA: CC                 int         3
  004153CB: CC                 int         3
  004153CC: CC                 int         3
  004153CD: CC                 int         3
  004153CE: CC                 int         3
  004153CF: CC                 int         3
  004153D0: CC                 int         3
  004153D1: CC                 int         3
  004153D2: CC                 int         3
  004153D3: CC                 int         3
  004153D4: CC                 int         3
  004153D5: CC                 int         3
  004153D6: CC                 int         3
  004153D7: CC                 int         3
  004153D8: CC                 int         3
  004153D9: CC                 int         3
  004153DA: CC                 int         3
  004153DB: CC                 int         3
  004153DC: CC                 int         3
  004153DD: CC                 int         3
  004153DE: CC                 int         3
  004153DF: CC                 int         3
  004153E0: CC                 int         3
  004153E1: CC                 int         3
  004153E2: CC                 int         3
  004153E3: CC                 int         3
  004153E4: CC                 int         3
  004153E5: CC                 int         3
  004153E6: CC                 int         3
  004153E7: CC                 int         3
  004153E8: CC                 int         3
  004153E9: CC                 int         3
  004153EA: CC                 int         3
  004153EB: CC                 int         3
  004153EC: CC                 int         3
  004153ED: CC                 int         3
  004153EE: CC                 int         3
  004153EF: CC                 int         3
  004153F0: CC                 int         3
  004153F1: CC                 int         3
  004153F2: CC                 int         3
  004153F3: CC                 int         3
  004153F4: CC                 int         3
  004153F5: CC                 int         3
  004153F6: CC                 int         3
  004153F7: CC                 int         3
  004153F8: CC                 int         3
  004153F9: CC                 int         3
  004153FA: CC                 int         3
  004153FB: CC                 int         3
  004153FC: CC                 int         3
  004153FD: CC                 int         3
  004153FE: CC                 int         3
  004153FF: CC                 int         3
  00415400: CC                 int         3
  00415401: CC                 int         3
  00415402: CC                 int         3
  00415403: CC                 int         3
  00415404: CC                 int         3
  00415405: CC                 int         3
  00415406: CC                 int         3
  00415407: CC                 int         3
  00415408: CC                 int         3
  00415409: CC                 int         3
  0041540A: CC                 int         3
  0041540B: CC                 int         3
  0041540C: CC                 int         3
  0041540D: CC                 int         3
  0041540E: CC                 int         3
  0041540F: CC                 int         3
  00415410: CC                 int         3
  00415411: CC                 int         3
  00415412: CC                 int         3
  00415413: CC                 int         3
  00415414: CC                 int         3
  00415415: CC                 int         3
  00415416: CC                 int         3
  00415417: CC                 int         3
  00415418: CC                 int         3
  00415419: CC                 int         3
  0041541A: CC                 int         3
  0041541B: CC                 int         3
  0041541C: CC                 int         3
  0041541D: CC                 int         3
  0041541E: CC                 int         3
  0041541F: CC                 int         3
  00415420: CC                 int         3
  00415421: CC                 int         3
  00415422: CC                 int         3
  00415423: CC                 int         3
  00415424: CC                 int         3
  00415425: CC                 int         3
  00415426: CC                 int         3
  00415427: CC                 int         3
  00415428: CC                 int         3
  00415429: CC                 int         3
  0041542A: CC                 int         3
  0041542B: CC                 int         3
  0041542C: CC                 int         3
  0041542D: CC                 int         3
  0041542E: CC                 int         3
  0041542F: CC                 int         3
  00415430: CC                 int         3
  00415431: CC                 int         3
  00415432: CC                 int         3
  00415433: CC                 int         3
  00415434: CC                 int         3
  00415435: CC                 int         3
  00415436: CC                 int         3
  00415437: CC                 int         3
  00415438: CC                 int         3
  00415439: CC                 int         3
  0041543A: CC                 int         3
  0041543B: CC                 int         3
  0041543C: CC                 int         3
  0041543D: CC                 int         3
  0041543E: CC                 int         3
  0041543F: CC                 int         3
  00415440: CC                 int         3
  00415441: CC                 int         3
  00415442: CC                 int         3
  00415443: CC                 int         3
  00415444: CC                 int         3
  00415445: CC                 int         3
  00415446: CC                 int         3
  00415447: CC                 int         3
  00415448: CC                 int         3
  00415449: CC                 int         3
  0041544A: CC                 int         3
  0041544B: CC                 int         3
  0041544C: CC                 int         3
  0041544D: CC                 int         3
  0041544E: CC                 int         3
  0041544F: CC                 int         3
  00415450: CC                 int         3
  00415451: CC                 int         3
  00415452: CC                 int         3
  00415453: CC                 int         3
  00415454: CC                 int         3
  00415455: CC                 int         3
  00415456: CC                 int         3
  00415457: CC                 int         3
  00415458: CC                 int         3
  00415459: CC                 int         3
  0041545A: CC                 int         3
  0041545B: CC                 int         3
  0041545C: CC                 int         3
  0041545D: CC                 int         3
  0041545E: CC                 int         3
  0041545F: CC                 int         3
  00415460: CC                 int         3
  00415461: CC                 int         3
  00415462: CC                 int         3
  00415463: CC                 int         3
  00415464: CC                 int         3
  00415465: CC                 int         3
  00415466: CC                 int         3
  00415467: CC                 int         3
  00415468: CC                 int         3
  00415469: CC                 int         3
  0041546A: CC                 int         3
  0041546B: CC                 int         3
  0041546C: CC                 int         3
  0041546D: CC                 int         3
  0041546E: CC                 int         3
  0041546F: CC                 int         3
  00415470: CC                 int         3
  00415471: CC                 int         3
  00415472: CC                 int         3
  00415473: CC                 int         3
  00415474: CC                 int         3
  00415475: CC                 int         3
  00415476: CC                 int         3
  00415477: CC                 int         3
  00415478: CC                 int         3
  00415479: CC                 int         3
  0041547A: CC                 int         3
  0041547B: CC                 int         3
  0041547C: CC                 int         3
  0041547D: CC                 int         3
  0041547E: CC                 int         3
  0041547F: CC                 int         3
  00415480: CC                 int         3
  00415481: CC                 int         3
  00415482: CC                 int         3
  00415483: CC                 int         3
  00415484: CC                 int         3
  00415485: CC                 int         3
  00415486: CC                 int         3
  00415487: CC                 int         3
  00415488: CC                 int         3
  00415489: CC                 int         3
  0041548A: CC                 int         3
  0041548B: CC                 int         3
  0041548C: CC                 int         3
  0041548D: CC                 int         3
  0041548E: CC                 int         3
  0041548F: CC                 int         3
  00415490: CC                 int         3
  00415491: CC                 int         3
  00415492: CC                 int         3
  00415493: CC                 int         3
  00415494: CC                 int         3
  00415495: CC                 int         3
  00415496: CC                 int         3
  00415497: CC                 int         3
  00415498: CC                 int         3
  00415499: CC                 int         3
  0041549A: CC                 int         3
  0041549B: CC                 int         3
  0041549C: CC                 int         3
  0041549D: CC                 int         3
  0041549E: CC                 int         3
  0041549F: CC                 int         3
  004154A0: CC                 int         3
  004154A1: CC                 int         3
  004154A2: CC                 int         3
  004154A3: CC                 int         3
  004154A4: CC                 int         3
  004154A5: CC                 int         3
  004154A6: CC                 int         3
  004154A7: CC                 int         3
  004154A8: CC                 int         3
  004154A9: CC                 int         3
  004154AA: CC                 int         3
  004154AB: CC                 int         3
  004154AC: CC                 int         3
  004154AD: CC                 int         3
  004154AE: CC                 int         3
  004154AF: CC                 int         3
  004154B0: CC                 int         3
  004154B1: CC                 int         3
  004154B2: CC                 int         3
  004154B3: CC                 int         3
  004154B4: CC                 int         3
  004154B5: CC                 int         3
  004154B6: CC                 int         3
  004154B7: CC                 int         3
  004154B8: CC                 int         3
  004154B9: CC                 int         3
  004154BA: CC                 int         3
  004154BB: CC                 int         3
  004154BC: CC                 int         3
  004154BD: CC                 int         3
  004154BE: CC                 int         3
  004154BF: CC                 int         3
  004154C0: CC                 int         3
  004154C1: CC                 int         3
  004154C2: CC                 int         3
  004154C3: CC                 int         3
  004154C4: CC                 int         3
  004154C5: CC                 int         3
  004154C6: CC                 int         3
  004154C7: CC                 int         3
  004154C8: CC                 int         3
  004154C9: CC                 int         3
  004154CA: CC                 int         3
  004154CB: CC                 int         3
  004154CC: CC                 int         3
  004154CD: CC                 int         3
  004154CE: CC                 int         3
  004154CF: CC                 int         3
  004154D0: CC                 int         3
  004154D1: CC                 int         3
  004154D2: CC                 int         3
  004154D3: CC                 int         3
  004154D4: CC                 int         3
  004154D5: CC                 int         3
  004154D6: CC                 int         3
  004154D7: CC                 int         3
  004154D8: CC                 int         3
  004154D9: CC                 int         3
  004154DA: CC                 int         3
  004154DB: CC                 int         3
  004154DC: CC                 int         3
  004154DD: CC                 int         3
  004154DE: CC                 int         3
  004154DF: CC                 int         3
  004154E0: CC                 int         3
  004154E1: CC                 int         3
  004154E2: CC                 int         3
  004154E3: CC                 int         3
  004154E4: CC                 int         3
  004154E5: CC                 int         3
  004154E6: CC                 int         3
  004154E7: CC                 int         3
  004154E8: CC                 int         3
  004154E9: CC                 int         3
  004154EA: CC                 int         3
  004154EB: CC                 int         3
  004154EC: CC                 int         3
  004154ED: CC                 int         3
  004154EE: CC                 int         3
  004154EF: CC                 int         3
  004154F0: CC                 int         3
  004154F1: CC                 int         3
  004154F2: CC                 int         3
  004154F3: CC                 int         3
  004154F4: CC                 int         3
  004154F5: CC                 int         3
  004154F6: CC                 int         3
  004154F7: CC                 int         3
  004154F8: CC                 int         3
  004154F9: CC                 int         3
  004154FA: CC                 int         3
  004154FB: CC                 int         3
  004154FC: CC                 int         3
  004154FD: CC                 int         3
  004154FE: CC                 int         3
  004154FF: CC                 int         3
  00415500: CC                 int         3
  00415501: CC                 int         3
  00415502: CC                 int         3
  00415503: CC                 int         3
  00415504: CC                 int         3
  00415505: CC                 int         3
  00415506: CC                 int         3
  00415507: CC                 int         3
  00415508: CC                 int         3
  00415509: CC                 int         3
  0041550A: CC                 int         3
  0041550B: CC                 int         3
  0041550C: CC                 int         3
  0041550D: CC                 int         3
  0041550E: CC                 int         3
  0041550F: CC                 int         3
  00415510: CC                 int         3
  00415511: CC                 int         3
  00415512: CC                 int         3
  00415513: CC                 int         3
  00415514: CC                 int         3
  00415515: CC                 int         3
  00415516: CC                 int         3
  00415517: CC                 int         3
  00415518: CC                 int         3
  00415519: CC                 int         3
  0041551A: CC                 int         3
  0041551B: CC                 int         3
  0041551C: CC                 int         3
  0041551D: CC                 int         3
  0041551E: CC                 int         3
  0041551F: CC                 int         3
  00415520: CC                 int         3
  00415521: CC                 int         3
  00415522: CC                 int         3
  00415523: CC                 int         3
  00415524: CC                 int         3
  00415525: CC                 int         3
  00415526: CC                 int         3
  00415527: CC                 int         3
  00415528: CC                 int         3
  00415529: CC                 int         3
  0041552A: CC                 int         3
  0041552B: CC                 int         3
  0041552C: CC                 int         3
  0041552D: CC                 int         3
  0041552E: CC                 int         3
  0041552F: CC                 int         3
  00415530: CC                 int         3
  00415531: CC                 int         3
  00415532: CC                 int         3
  00415533: CC                 int         3
  00415534: CC                 int         3
  00415535: CC                 int         3
  00415536: CC                 int         3
  00415537: CC                 int         3
  00415538: CC                 int         3
  00415539: CC                 int         3
  0041553A: CC                 int         3
  0041553B: CC                 int         3
  0041553C: CC                 int         3
  0041553D: CC                 int         3
  0041553E: CC                 int         3
  0041553F: CC                 int         3
  00415540: CC                 int         3
  00415541: CC                 int         3
  00415542: CC                 int         3
  00415543: CC                 int         3
  00415544: CC                 int         3
  00415545: CC                 int         3
  00415546: CC                 int         3
  00415547: CC                 int         3
  00415548: CC                 int         3
  00415549: CC                 int         3
  0041554A: CC                 int         3
  0041554B: CC                 int         3
  0041554C: CC                 int         3
  0041554D: CC                 int         3
  0041554E: CC                 int         3
  0041554F: CC                 int         3
  00415550: CC                 int         3
  00415551: CC                 int         3
  00415552: CC                 int         3
  00415553: CC                 int         3
  00415554: CC                 int         3
  00415555: CC                 int         3
  00415556: CC                 int         3
  00415557: CC                 int         3
  00415558: CC                 int         3
  00415559: CC                 int         3
  0041555A: CC                 int         3
  0041555B: CC                 int         3
  0041555C: CC                 int         3
  0041555D: CC                 int         3
  0041555E: CC                 int         3
  0041555F: CC                 int         3
  00415560: CC                 int         3
  00415561: CC                 int         3
  00415562: CC                 int         3
  00415563: CC                 int         3
  00415564: CC                 int         3
  00415565: CC                 int         3
  00415566: CC                 int         3
  00415567: CC                 int         3
  00415568: CC                 int         3
  00415569: CC                 int         3
  0041556A: CC                 int         3
  0041556B: CC                 int         3
  0041556C: CC                 int         3
  0041556D: CC                 int         3
  0041556E: CC                 int         3
  0041556F: CC                 int         3
  00415570: CC                 int         3
  00415571: CC                 int         3
  00415572: CC                 int         3
  00415573: CC                 int         3
  00415574: CC                 int         3
  00415575: CC                 int         3
  00415576: CC                 int         3
  00415577: CC                 int         3
  00415578: CC                 int         3
  00415579: CC                 int         3
  0041557A: CC                 int         3
  0041557B: CC                 int         3
  0041557C: CC                 int         3
  0041557D: CC                 int         3
  0041557E: CC                 int         3
  0041557F: CC                 int         3
  00415580: CC                 int         3
  00415581: CC                 int         3
  00415582: CC                 int         3
  00415583: CC                 int         3
  00415584: CC                 int         3
  00415585: CC                 int         3
  00415586: CC                 int         3
  00415587: CC                 int         3
  00415588: CC                 int         3
  00415589: CC                 int         3
  0041558A: CC                 int         3
  0041558B: CC                 int         3
  0041558C: CC                 int         3
  0041558D: CC                 int         3
  0041558E: CC                 int         3
  0041558F: CC                 int         3
  00415590: CC                 int         3
  00415591: CC                 int         3
  00415592: CC                 int         3
  00415593: CC                 int         3
  00415594: CC                 int         3
  00415595: CC                 int         3
  00415596: CC                 int         3
  00415597: CC                 int         3
  00415598: CC                 int         3
  00415599: CC                 int         3
  0041559A: CC                 int         3
  0041559B: CC                 int         3
  0041559C: CC                 int         3
  0041559D: CC                 int         3
  0041559E: CC                 int         3
  0041559F: CC                 int         3
  004155A0: CC                 int         3
  004155A1: CC                 int         3
  004155A2: CC                 int         3
  004155A3: CC                 int         3
  004155A4: CC                 int         3
  004155A5: CC                 int         3
  004155A6: CC                 int         3
  004155A7: CC                 int         3
  004155A8: CC                 int         3
  004155A9: CC                 int         3
  004155AA: CC                 int         3
  004155AB: CC                 int         3
  004155AC: CC                 int         3
  004155AD: CC                 int         3
  004155AE: CC                 int         3
  004155AF: CC                 int         3
  004155B0: CC                 int         3
  004155B1: CC                 int         3
  004155B2: CC                 int         3
  004155B3: CC                 int         3
  004155B4: CC                 int         3
  004155B5: CC                 int         3
  004155B6: CC                 int         3
  004155B7: CC                 int         3
  004155B8: CC                 int         3
  004155B9: CC                 int         3
  004155BA: CC                 int         3
  004155BB: CC                 int         3
  004155BC: CC                 int         3
  004155BD: CC                 int         3
  004155BE: CC                 int         3
  004155BF: CC                 int         3
  004155C0: CC                 int         3
  004155C1: CC                 int         3
  004155C2: CC                 int         3
  004155C3: CC                 int         3
  004155C4: CC                 int         3
  004155C5: CC                 int         3
  004155C6: CC                 int         3
  004155C7: CC                 int         3
  004155C8: CC                 int         3
  004155C9: CC                 int         3
  004155CA: CC                 int         3
  004155CB: CC                 int         3
  004155CC: CC                 int         3
  004155CD: CC                 int         3
  004155CE: CC                 int         3
  004155CF: CC                 int         3
  004155D0: CC                 int         3
  004155D1: CC                 int         3
  004155D2: CC                 int         3
  004155D3: CC                 int         3
  004155D4: CC                 int         3
  004155D5: CC                 int         3
  004155D6: CC                 int         3
  004155D7: CC                 int         3
  004155D8: CC                 int         3
  004155D9: CC                 int         3
  004155DA: CC                 int         3
  004155DB: CC                 int         3
  004155DC: CC                 int         3
  004155DD: CC                 int         3
  004155DE: CC                 int         3
  004155DF: CC                 int         3
  004155E0: CC                 int         3
  004155E1: CC                 int         3
  004155E2: CC                 int         3
  004155E3: CC                 int         3
  004155E4: CC                 int         3
  004155E5: CC                 int         3
  004155E6: CC                 int         3
  004155E7: CC                 int         3
  004155E8: CC                 int         3
  004155E9: CC                 int         3
  004155EA: CC                 int         3
  004155EB: CC                 int         3
  004155EC: CC                 int         3
  004155ED: CC                 int         3
  004155EE: CC                 int         3
  004155EF: CC                 int         3
  004155F0: CC                 int         3
  004155F1: CC                 int         3
  004155F2: CC                 int         3
  004155F3: CC                 int         3
  004155F4: CC                 int         3
  004155F5: CC                 int         3
  004155F6: CC                 int         3
  004155F7: CC                 int         3
  004155F8: CC                 int         3
  004155F9: CC                 int         3
  004155FA: CC                 int         3
  004155FB: CC                 int         3
  004155FC: CC                 int         3
  004155FD: CC                 int         3
  004155FE: CC                 int         3
  004155FF: CC                 int         3
  00415600: CC                 int         3
  00415601: CC                 int         3
  00415602: CC                 int         3
  00415603: CC                 int         3
  00415604: CC                 int         3
  00415605: CC                 int         3
  00415606: CC                 int         3
  00415607: CC                 int         3
  00415608: CC                 int         3
  00415609: CC                 int         3
  0041560A: CC                 int         3
  0041560B: CC                 int         3
  0041560C: CC                 int         3
  0041560D: CC                 int         3
  0041560E: CC                 int         3
  0041560F: CC                 int         3
  00415610: CC                 int         3
  00415611: CC                 int         3
  00415612: CC                 int         3
  00415613: CC                 int         3
  00415614: CC                 int         3
  00415615: CC                 int         3
  00415616: CC                 int         3
  00415617: CC                 int         3
  00415618: CC                 int         3
  00415619: CC                 int         3
  0041561A: CC                 int         3
  0041561B: CC                 int         3
  0041561C: CC                 int         3
  0041561D: CC                 int         3
  0041561E: CC                 int         3
  0041561F: CC                 int         3
  00415620: CC                 int         3
  00415621: CC                 int         3
  00415622: CC                 int         3
  00415623: CC                 int         3
  00415624: CC                 int         3
  00415625: CC                 int         3
  00415626: CC                 int         3
  00415627: CC                 int         3
  00415628: CC                 int         3
  00415629: CC                 int         3
  0041562A: CC                 int         3
  0041562B: CC                 int         3
  0041562C: CC                 int         3
  0041562D: CC                 int         3
  0041562E: CC                 int         3
  0041562F: CC                 int         3
  00415630: CC                 int         3
  00415631: CC                 int         3
  00415632: CC                 int         3
  00415633: CC                 int         3
  00415634: CC                 int         3
  00415635: CC                 int         3
  00415636: CC                 int         3
  00415637: CC                 int         3
  00415638: CC                 int         3
  00415639: CC                 int         3
  0041563A: CC                 int         3
  0041563B: CC                 int         3
  0041563C: CC                 int         3
  0041563D: CC                 int         3
  0041563E: CC                 int         3
  0041563F: CC                 int         3
  00415640: CC                 int         3
  00415641: CC                 int         3
  00415642: CC                 int         3
  00415643: CC                 int         3
  00415644: CC                 int         3
  00415645: CC                 int         3
  00415646: CC                 int         3
  00415647: CC                 int         3
  00415648: CC                 int         3
  00415649: CC                 int         3
  0041564A: CC                 int         3
  0041564B: CC                 int         3
  0041564C: CC                 int         3
  0041564D: CC                 int         3
  0041564E: CC                 int         3
  0041564F: CC                 int         3
  00415650: CC                 int         3
  00415651: CC                 int         3
  00415652: CC                 int         3
  00415653: CC                 int         3
  00415654: CC                 int         3
  00415655: CC                 int         3
  00415656: CC                 int         3
  00415657: CC                 int         3
  00415658: CC                 int         3
  00415659: CC                 int         3
  0041565A: CC                 int         3
  0041565B: CC                 int         3
  0041565C: CC                 int         3
  0041565D: CC                 int         3
  0041565E: CC                 int         3
  0041565F: CC                 int         3
  00415660: CC                 int         3
  00415661: CC                 int         3
  00415662: CC                 int         3
  00415663: CC                 int         3
  00415664: CC                 int         3
  00415665: CC                 int         3
  00415666: CC                 int         3
  00415667: CC                 int         3
  00415668: CC                 int         3
  00415669: CC                 int         3
  0041566A: CC                 int         3
  0041566B: CC                 int         3
  0041566C: CC                 int         3
  0041566D: CC                 int         3
  0041566E: CC                 int         3
  0041566F: CC                 int         3
  00415670: CC                 int         3
  00415671: CC                 int         3
  00415672: CC                 int         3
  00415673: CC                 int         3
  00415674: CC                 int         3
  00415675: CC                 int         3
  00415676: CC                 int         3
  00415677: CC                 int         3
  00415678: CC                 int         3
  00415679: CC                 int         3
  0041567A: CC                 int         3
  0041567B: CC                 int         3
  0041567C: CC                 int         3
  0041567D: CC                 int         3
  0041567E: CC                 int         3
  0041567F: CC                 int         3
  00415680: CC                 int         3
  00415681: CC                 int         3
  00415682: CC                 int         3
  00415683: CC                 int         3
  00415684: CC                 int         3
  00415685: CC                 int         3
  00415686: CC                 int         3
  00415687: CC                 int         3
  00415688: CC                 int         3
  00415689: CC                 int         3
  0041568A: CC                 int         3
  0041568B: CC                 int         3
  0041568C: CC                 int         3
  0041568D: CC                 int         3
  0041568E: CC                 int         3
  0041568F: CC                 int         3
  00415690: CC                 int         3
  00415691: CC                 int         3
  00415692: CC                 int         3
  00415693: CC                 int         3
  00415694: CC                 int         3
  00415695: CC                 int         3
  00415696: CC                 int         3
  00415697: CC                 int         3
  00415698: CC                 int         3
  00415699: CC                 int         3
  0041569A: CC                 int         3
  0041569B: CC                 int         3
  0041569C: CC                 int         3
  0041569D: CC                 int         3
  0041569E: CC                 int         3
  0041569F: CC                 int         3
  004156A0: CC                 int         3
  004156A1: CC                 int         3
  004156A2: CC                 int         3
  004156A3: CC                 int         3
  004156A4: CC                 int         3
  004156A5: CC                 int         3
  004156A6: CC                 int         3
  004156A7: CC                 int         3
  004156A8: CC                 int         3
  004156A9: CC                 int         3
  004156AA: CC                 int         3
  004156AB: CC                 int         3
  004156AC: CC                 int         3
  004156AD: CC                 int         3
  004156AE: CC                 int         3
  004156AF: CC                 int         3
  004156B0: CC                 int         3
  004156B1: CC                 int         3
  004156B2: CC                 int         3
  004156B3: CC                 int         3
  004156B4: CC                 int         3
  004156B5: CC                 int         3
  004156B6: CC                 int         3
  004156B7: CC                 int         3
  004156B8: CC                 int         3
  004156B9: CC                 int         3
  004156BA: CC                 int         3
  004156BB: CC                 int         3
  004156BC: CC                 int         3
  004156BD: CC                 int         3
  004156BE: CC                 int         3
  004156BF: CC                 int         3
  004156C0: CC                 int         3
  004156C1: CC                 int         3
  004156C2: CC                 int         3
  004156C3: CC                 int         3
  004156C4: CC                 int         3
  004156C5: CC                 int         3
  004156C6: CC                 int         3
  004156C7: CC                 int         3
  004156C8: CC                 int         3
  004156C9: CC                 int         3
  004156CA: CC                 int         3
  004156CB: CC                 int         3
  004156CC: CC                 int         3
  004156CD: CC                 int         3
  004156CE: CC                 int         3
  004156CF: CC                 int         3
  004156D0: CC                 int         3
  004156D1: CC                 int         3
  004156D2: CC                 int         3
  004156D3: CC                 int         3
  004156D4: CC                 int         3
  004156D5: CC                 int         3
  004156D6: CC                 int         3
  004156D7: CC                 int         3
  004156D8: CC                 int         3
  004156D9: CC                 int         3
  004156DA: CC                 int         3
  004156DB: CC                 int         3
  004156DC: CC                 int         3
  004156DD: CC                 int         3
  004156DE: CC                 int         3
  004156DF: CC                 int         3
  004156E0: CC                 int         3
  004156E1: CC                 int         3
  004156E2: CC                 int         3
  004156E3: CC                 int         3
  004156E4: CC                 int         3
  004156E5: CC                 int         3
  004156E6: CC                 int         3
  004156E7: CC                 int         3
  004156E8: CC                 int         3
  004156E9: CC                 int         3
  004156EA: CC                 int         3
  004156EB: CC                 int         3
  004156EC: CC                 int         3
  004156ED: CC                 int         3
  004156EE: CC                 int         3
  004156EF: CC                 int         3
  004156F0: CC                 int         3
  004156F1: CC                 int         3
  004156F2: CC                 int         3
  004156F3: CC                 int         3
  004156F4: CC                 int         3
  004156F5: CC                 int         3
  004156F6: CC                 int         3
  004156F7: CC                 int         3
  004156F8: CC                 int         3
  004156F9: CC                 int         3
  004156FA: CC                 int         3
  004156FB: CC                 int         3
  004156FC: CC                 int         3
  004156FD: CC                 int         3
  004156FE: CC                 int         3
  004156FF: CC                 int         3
  00415700: CC                 int         3
  00415701: CC                 int         3
  00415702: CC                 int         3
  00415703: CC                 int         3
  00415704: CC                 int         3
  00415705: CC                 int         3
  00415706: CC                 int         3
  00415707: CC                 int         3
  00415708: CC                 int         3
  00415709: CC                 int         3
  0041570A: CC                 int         3
  0041570B: CC                 int         3
  0041570C: CC                 int         3
  0041570D: CC                 int         3
  0041570E: CC                 int         3
  0041570F: CC                 int         3
  00415710: CC                 int         3
  00415711: CC                 int         3
  00415712: CC                 int         3
  00415713: CC                 int         3
  00415714: CC                 int         3
  00415715: CC                 int         3
  00415716: CC                 int         3
  00415717: CC                 int         3
  00415718: CC                 int         3
  00415719: CC                 int         3
  0041571A: CC                 int         3
  0041571B: CC                 int         3
  0041571C: CC                 int         3
  0041571D: CC                 int         3
  0041571E: CC                 int         3
  0041571F: CC                 int         3
  00415720: CC                 int         3
  00415721: CC                 int         3
  00415722: CC                 int         3
  00415723: CC                 int         3
  00415724: CC                 int         3
  00415725: CC                 int         3
  00415726: CC                 int         3
  00415727: CC                 int         3
  00415728: CC                 int         3
  00415729: CC                 int         3
  0041572A: CC                 int         3
  0041572B: CC                 int         3
  0041572C: CC                 int         3
  0041572D: CC                 int         3
  0041572E: CC                 int         3
  0041572F: CC                 int         3
  00415730: CC                 int         3
  00415731: CC                 int         3
  00415732: CC                 int         3
  00415733: CC                 int         3
  00415734: CC                 int         3
  00415735: CC                 int         3
  00415736: CC                 int         3
  00415737: CC                 int         3
  00415738: CC                 int         3
  00415739: CC                 int         3
  0041573A: CC                 int         3
  0041573B: CC                 int         3
  0041573C: CC                 int         3
  0041573D: CC                 int         3
  0041573E: CC                 int         3
  0041573F: CC                 int         3
  00415740: CC                 int         3
  00415741: CC                 int         3
  00415742: CC                 int         3
  00415743: CC                 int         3
  00415744: CC                 int         3
  00415745: CC                 int         3
  00415746: CC                 int         3
  00415747: CC                 int         3
  00415748: CC                 int         3
  00415749: CC                 int         3
  0041574A: CC                 int         3
  0041574B: CC                 int         3
  0041574C: CC                 int         3
  0041574D: CC                 int         3
  0041574E: CC                 int         3
  0041574F: CC                 int         3
  00415750: CC                 int         3
  00415751: CC                 int         3
  00415752: CC                 int         3
  00415753: CC                 int         3
  00415754: CC                 int         3
  00415755: CC                 int         3
  00415756: CC                 int         3
  00415757: CC                 int         3
  00415758: CC                 int         3
  00415759: CC                 int         3
  0041575A: CC                 int         3
  0041575B: CC                 int         3
  0041575C: CC                 int         3
  0041575D: CC                 int         3
  0041575E: CC                 int         3
  0041575F: CC                 int         3
  00415760: CC                 int         3
  00415761: CC                 int         3
  00415762: CC                 int         3
  00415763: CC                 int         3
  00415764: CC                 int         3
  00415765: CC                 int         3
  00415766: CC                 int         3
  00415767: CC                 int         3
  00415768: CC                 int         3
  00415769: CC                 int         3
  0041576A: CC                 int         3
  0041576B: CC                 int         3
  0041576C: CC                 int         3
  0041576D: CC                 int         3
  0041576E: CC                 int         3
  0041576F: CC                 int         3
  00415770: CC                 int         3
  00415771: CC                 int         3
  00415772: CC                 int         3
  00415773: CC                 int         3
  00415774: CC                 int         3
  00415775: CC                 int         3
  00415776: CC                 int         3
  00415777: CC                 int         3
  00415778: CC                 int         3
  00415779: CC                 int         3
  0041577A: CC                 int         3
  0041577B: CC                 int         3
  0041577C: CC                 int         3
  0041577D: CC                 int         3
  0041577E: CC                 int         3
  0041577F: CC                 int         3
  00415780: CC                 int         3
  00415781: CC                 int         3
  00415782: CC                 int         3
  00415783: CC                 int         3
  00415784: CC                 int         3
  00415785: CC                 int         3
  00415786: CC                 int         3
  00415787: CC                 int         3
  00415788: CC                 int         3
  00415789: CC                 int         3
  0041578A: CC                 int         3
  0041578B: CC                 int         3
  0041578C: CC                 int         3
  0041578D: CC                 int         3
  0041578E: CC                 int         3
  0041578F: CC                 int         3
  00415790: CC                 int         3
  00415791: CC                 int         3
  00415792: CC                 int         3
  00415793: CC                 int         3
  00415794: CC                 int         3
  00415795: CC                 int         3
  00415796: CC                 int         3
  00415797: CC                 int         3
  00415798: CC                 int         3
  00415799: CC                 int         3
  0041579A: CC                 int         3
  0041579B: CC                 int         3
  0041579C: CC                 int         3
  0041579D: CC                 int         3
  0041579E: CC                 int         3
  0041579F: CC                 int         3
  004157A0: CC                 int         3
  004157A1: CC                 int         3
  004157A2: CC                 int         3
  004157A3: CC                 int         3
  004157A4: CC                 int         3
  004157A5: CC                 int         3
  004157A6: CC                 int         3
  004157A7: CC                 int         3
  004157A8: CC                 int         3
  004157A9: CC                 int         3
  004157AA: CC                 int         3
  004157AB: CC                 int         3
  004157AC: CC                 int         3
  004157AD: CC                 int         3
  004157AE: CC                 int         3
  004157AF: CC                 int         3
  004157B0: CC                 int         3
  004157B1: CC                 int         3
  004157B2: CC                 int         3
  004157B3: CC                 int         3
  004157B4: CC                 int         3
  004157B5: CC                 int         3
  004157B6: CC                 int         3
  004157B7: CC                 int         3
  004157B8: CC                 int         3
  004157B9: CC                 int         3
  004157BA: CC                 int         3
  004157BB: CC                 int         3
  004157BC: CC                 int         3
  004157BD: CC                 int         3
  004157BE: CC                 int         3
  004157BF: CC                 int         3
  004157C0: CC                 int         3
  004157C1: CC                 int         3
  004157C2: CC                 int         3
  004157C3: CC                 int         3
  004157C4: CC                 int         3
  004157C5: CC                 int         3
  004157C6: CC                 int         3
  004157C7: CC                 int         3
  004157C8: CC                 int         3
  004157C9: CC                 int         3
  004157CA: CC                 int         3
  004157CB: CC                 int         3
  004157CC: CC                 int         3
  004157CD: CC                 int         3
  004157CE: CC                 int         3
  004157CF: CC                 int         3
  004157D0: CC                 int         3
  004157D1: CC                 int         3
  004157D2: CC                 int         3
  004157D3: CC                 int         3
  004157D4: CC                 int         3
  004157D5: CC                 int         3
  004157D6: CC                 int         3
  004157D7: CC                 int         3
  004157D8: CC                 int         3
  004157D9: CC                 int         3
  004157DA: CC                 int         3
  004157DB: CC                 int         3
  004157DC: CC                 int         3
  004157DD: CC                 int         3
  004157DE: CC                 int         3
  004157DF: CC                 int         3
  004157E0: CC                 int         3
  004157E1: CC                 int         3
  004157E2: CC                 int         3
  004157E3: CC                 int         3
  004157E4: CC                 int         3
  004157E5: CC                 int         3
  004157E6: CC                 int         3
  004157E7: CC                 int         3
  004157E8: CC                 int         3
  004157E9: CC                 int         3
  004157EA: CC                 int         3
  004157EB: CC                 int         3
  004157EC: CC                 int         3
  004157ED: CC                 int         3
  004157EE: CC                 int         3
  004157EF: CC                 int         3
  004157F0: CC                 int         3
  004157F1: CC                 int         3
  004157F2: CC                 int         3
  004157F3: CC                 int         3
  004157F4: CC                 int         3
  004157F5: CC                 int         3
  004157F6: CC                 int         3
  004157F7: CC                 int         3
  004157F8: CC                 int         3
  004157F9: CC                 int         3
  004157FA: CC                 int         3
  004157FB: CC                 int         3
  004157FC: CC                 int         3
  004157FD: CC                 int         3
  004157FE: CC                 int         3
  004157FF: CC                 int         3
  00415800: CC                 int         3
  00415801: CC                 int         3
  00415802: CC                 int         3
  00415803: CC                 int         3
  00415804: CC                 int         3
  00415805: CC                 int         3
  00415806: CC                 int         3
  00415807: CC                 int         3
  00415808: CC                 int         3
  00415809: CC                 int         3
  0041580A: CC                 int         3
  0041580B: CC                 int         3
  0041580C: CC                 int         3
  0041580D: CC                 int         3
  0041580E: CC                 int         3
  0041580F: CC                 int         3
  00415810: CC                 int         3
  00415811: CC                 int         3
  00415812: CC                 int         3
  00415813: CC                 int         3
  00415814: CC                 int         3
  00415815: CC                 int         3
  00415816: CC                 int         3
  00415817: CC                 int         3
  00415818: CC                 int         3
  00415819: CC                 int         3
  0041581A: CC                 int         3
  0041581B: CC                 int         3
  0041581C: CC                 int         3
  0041581D: CC                 int         3
  0041581E: CC                 int         3
  0041581F: CC                 int         3
  00415820: CC                 int         3
  00415821: CC                 int         3
  00415822: CC                 int         3
  00415823: CC                 int         3
  00415824: CC                 int         3
  00415825: CC                 int         3
  00415826: CC                 int         3
  00415827: CC                 int         3
  00415828: CC                 int         3
  00415829: CC                 int         3
  0041582A: CC                 int         3
  0041582B: CC                 int         3
  0041582C: CC                 int         3
  0041582D: CC                 int         3
  0041582E: CC                 int         3
  0041582F: CC                 int         3
  00415830: CC                 int         3
  00415831: CC                 int         3
  00415832: CC                 int         3
  00415833: CC                 int         3
  00415834: CC                 int         3
  00415835: CC                 int         3
  00415836: CC                 int         3
  00415837: CC                 int         3
  00415838: CC                 int         3
  00415839: CC                 int         3
  0041583A: CC                 int         3
  0041583B: CC                 int         3
  0041583C: CC                 int         3
  0041583D: CC                 int         3
  0041583E: CC                 int         3
  0041583F: CC                 int         3
  00415840: CC                 int         3
  00415841: CC                 int         3
  00415842: CC                 int         3
  00415843: CC                 int         3
  00415844: CC                 int         3
  00415845: CC                 int         3
  00415846: CC                 int         3
  00415847: CC                 int         3
  00415848: CC                 int         3
  00415849: CC                 int         3
  0041584A: CC                 int         3
  0041584B: CC                 int         3
  0041584C: CC                 int         3
  0041584D: CC                 int         3
  0041584E: CC                 int         3
  0041584F: CC                 int         3
  00415850: CC                 int         3
  00415851: CC                 int         3
  00415852: CC                 int         3
  00415853: CC                 int         3
  00415854: CC                 int         3
  00415855: CC                 int         3
  00415856: CC                 int         3
  00415857: CC                 int         3
  00415858: CC                 int         3
  00415859: CC                 int         3
  0041585A: CC                 int         3
  0041585B: CC                 int         3
  0041585C: CC                 int         3
  0041585D: CC                 int         3
  0041585E: CC                 int         3
  0041585F: CC                 int         3
  00415860: CC                 int         3
  00415861: CC                 int         3
  00415862: CC                 int         3
  00415863: CC                 int         3
  00415864: CC                 int         3
  00415865: CC                 int         3
  00415866: CC                 int         3
  00415867: CC                 int         3
  00415868: CC                 int         3
  00415869: CC                 int         3
  0041586A: CC                 int         3
  0041586B: CC                 int         3
  0041586C: CC                 int         3
  0041586D: CC                 int         3
  0041586E: CC                 int         3
  0041586F: CC                 int         3
  00415870: CC                 int         3
  00415871: CC                 int         3
  00415872: CC                 int         3
  00415873: CC                 int         3
  00415874: CC                 int         3
  00415875: CC                 int         3
  00415876: CC                 int         3
  00415877: CC                 int         3
  00415878: CC                 int         3
  00415879: CC                 int         3
  0041587A: CC                 int         3
  0041587B: CC                 int         3
  0041587C: CC                 int         3
  0041587D: CC                 int         3
  0041587E: CC                 int         3
  0041587F: CC                 int         3
  00415880: CC                 int         3
  00415881: CC                 int         3
  00415882: CC                 int         3
  00415883: CC                 int         3
  00415884: CC                 int         3
  00415885: CC                 int         3
  00415886: CC                 int         3
  00415887: CC                 int         3
  00415888: CC                 int         3
  00415889: CC                 int         3
  0041588A: CC                 int         3
  0041588B: CC                 int         3
  0041588C: CC                 int         3
  0041588D: CC                 int         3
  0041588E: CC                 int         3
  0041588F: CC                 int         3
  00415890: CC                 int         3
  00415891: CC                 int         3
  00415892: CC                 int         3
  00415893: CC                 int         3
  00415894: CC                 int         3
  00415895: CC                 int         3
  00415896: CC                 int         3
  00415897: CC                 int         3
  00415898: CC                 int         3
  00415899: CC                 int         3
  0041589A: CC                 int         3
  0041589B: CC                 int         3
  0041589C: CC                 int         3
  0041589D: CC                 int         3
  0041589E: CC                 int         3
  0041589F: CC                 int         3
  004158A0: CC                 int         3
  004158A1: CC                 int         3
  004158A2: CC                 int         3
  004158A3: CC                 int         3
  004158A4: CC                 int         3
  004158A5: CC                 int         3
  004158A6: CC                 int         3
  004158A7: CC                 int         3
  004158A8: CC                 int         3
  004158A9: CC                 int         3
  004158AA: CC                 int         3
  004158AB: CC                 int         3
  004158AC: CC                 int         3
  004158AD: CC                 int         3
  004158AE: CC                 int         3
  004158AF: CC                 int         3
  004158B0: CC                 int         3
  004158B1: CC                 int         3
  004158B2: CC                 int         3
  004158B3: CC                 int         3
  004158B4: CC                 int         3
  004158B5: CC                 int         3
  004158B6: CC                 int         3
  004158B7: CC                 int         3
  004158B8: CC                 int         3
  004158B9: CC                 int         3
  004158BA: CC                 int         3
  004158BB: CC                 int         3
  004158BC: CC                 int         3
  004158BD: CC                 int         3
  004158BE: CC                 int         3
  004158BF: CC                 int         3
  004158C0: CC                 int         3
  004158C1: CC                 int         3
  004158C2: CC                 int         3
  004158C3: CC                 int         3
  004158C4: CC                 int         3
  004158C5: CC                 int         3
  004158C6: CC                 int         3
  004158C7: CC                 int         3
  004158C8: CC                 int         3
  004158C9: CC                 int         3
  004158CA: CC                 int         3
  004158CB: CC                 int         3
  004158CC: CC                 int         3
  004158CD: CC                 int         3
  004158CE: CC                 int         3
  004158CF: CC                 int         3
  004158D0: CC                 int         3
  004158D1: CC                 int         3
  004158D2: CC                 int         3
  004158D3: CC                 int         3
  004158D4: CC                 int         3
  004158D5: CC                 int         3
  004158D6: CC                 int         3
  004158D7: CC                 int         3
  004158D8: CC                 int         3
  004158D9: CC                 int         3
  004158DA: CC                 int         3
  004158DB: CC                 int         3
  004158DC: CC                 int         3
  004158DD: CC                 int         3
  004158DE: CC                 int         3
  004158DF: CC                 int         3
  004158E0: CC                 int         3
  004158E1: CC                 int         3
  004158E2: CC                 int         3
  004158E3: CC                 int         3
  004158E4: CC                 int         3
  004158E5: CC                 int         3
  004158E6: CC                 int         3
  004158E7: CC                 int         3
  004158E8: CC                 int         3
  004158E9: CC                 int         3
  004158EA: CC                 int         3
  004158EB: CC                 int         3
  004158EC: CC                 int         3
  004158ED: CC                 int         3
  004158EE: CC                 int         3
  004158EF: CC                 int         3
  004158F0: CC                 int         3
  004158F1: CC                 int         3
  004158F2: CC                 int         3
  004158F3: CC                 int         3
  004158F4: CC                 int         3
  004158F5: CC                 int         3
  004158F6: CC                 int         3
  004158F7: CC                 int         3
  004158F8: CC                 int         3
  004158F9: CC                 int         3
  004158FA: CC                 int         3
  004158FB: CC                 int         3
  004158FC: CC                 int         3
  004158FD: CC                 int         3
  004158FE: CC                 int         3
  004158FF: CC                 int         3
  00415900: CC                 int         3
  00415901: CC                 int         3
  00415902: CC                 int         3
  00415903: CC                 int         3
  00415904: CC                 int         3
  00415905: CC                 int         3
  00415906: CC                 int         3
  00415907: CC                 int         3
  00415908: CC                 int         3
  00415909: CC                 int         3
  0041590A: CC                 int         3
  0041590B: CC                 int         3
  0041590C: CC                 int         3
  0041590D: CC                 int         3
  0041590E: CC                 int         3
  0041590F: CC                 int         3
  00415910: CC                 int         3
  00415911: CC                 int         3
  00415912: CC                 int         3
  00415913: CC                 int         3
  00415914: CC                 int         3
  00415915: CC                 int         3
  00415916: CC                 int         3
  00415917: CC                 int         3
  00415918: CC                 int         3
  00415919: CC                 int         3
  0041591A: CC                 int         3
  0041591B: CC                 int         3
  0041591C: CC                 int         3
  0041591D: CC                 int         3
  0041591E: CC                 int         3
  0041591F: CC                 int         3
  00415920: CC                 int         3
  00415921: CC                 int         3
  00415922: CC                 int         3
  00415923: CC                 int         3
  00415924: CC                 int         3
  00415925: CC                 int         3
  00415926: CC                 int         3
  00415927: CC                 int         3
  00415928: CC                 int         3
  00415929: CC                 int         3
  0041592A: CC                 int         3
  0041592B: CC                 int         3
  0041592C: CC                 int         3
  0041592D: CC                 int         3
  0041592E: CC                 int         3
  0041592F: CC                 int         3
  00415930: CC                 int         3
  00415931: CC                 int         3
  00415932: CC                 int         3
  00415933: CC                 int         3
  00415934: CC                 int         3
  00415935: CC                 int         3
  00415936: CC                 int         3
  00415937: CC                 int         3
  00415938: CC                 int         3
  00415939: CC                 int         3
  0041593A: CC                 int         3
  0041593B: CC                 int         3
  0041593C: CC                 int         3
  0041593D: CC                 int         3
  0041593E: CC                 int         3
  0041593F: CC                 int         3
  00415940: CC                 int         3
  00415941: CC                 int         3
  00415942: CC                 int         3
  00415943: CC                 int         3
  00415944: CC                 int         3
  00415945: CC                 int         3
  00415946: CC                 int         3
  00415947: CC                 int         3
  00415948: CC                 int         3
  00415949: CC                 int         3
  0041594A: CC                 int         3
  0041594B: CC                 int         3
  0041594C: CC                 int         3
  0041594D: CC                 int         3
  0041594E: CC                 int         3
  0041594F: CC                 int         3
  00415950: CC                 int         3
  00415951: CC                 int         3
  00415952: CC                 int         3
  00415953: CC                 int         3
  00415954: CC                 int         3
  00415955: CC                 int         3
  00415956: CC                 int         3
  00415957: CC                 int         3
  00415958: CC                 int         3
  00415959: CC                 int         3
  0041595A: CC                 int         3
  0041595B: CC                 int         3
  0041595C: CC                 int         3
  0041595D: CC                 int         3
  0041595E: CC                 int         3
  0041595F: CC                 int         3
  00415960: CC                 int         3
  00415961: CC                 int         3
  00415962: CC                 int         3
  00415963: CC                 int         3
  00415964: CC                 int         3
  00415965: CC                 int         3
  00415966: CC                 int         3
  00415967: CC                 int         3
  00415968: CC                 int         3
  00415969: CC                 int         3
  0041596A: CC                 int         3
  0041596B: CC                 int         3
  0041596C: CC                 int         3
  0041596D: CC                 int         3
  0041596E: CC                 int         3
  0041596F: CC                 int         3
  00415970: CC                 int         3
  00415971: CC                 int         3
  00415972: CC                 int         3
  00415973: CC                 int         3
  00415974: CC                 int         3
  00415975: CC                 int         3
  00415976: CC                 int         3
  00415977: CC                 int         3
  00415978: CC                 int         3
  00415979: CC                 int         3
  0041597A: CC                 int         3
  0041597B: CC                 int         3
  0041597C: CC                 int         3
  0041597D: CC                 int         3
  0041597E: CC                 int         3
  0041597F: CC                 int         3
  00415980: CC                 int         3
  00415981: CC                 int         3
  00415982: CC                 int         3
  00415983: CC                 int         3
  00415984: CC                 int         3
  00415985: CC                 int         3
  00415986: CC                 int         3
  00415987: CC                 int         3
  00415988: CC                 int         3
  00415989: CC                 int         3
  0041598A: CC                 int         3
  0041598B: CC                 int         3
  0041598C: CC                 int         3
  0041598D: CC                 int         3
  0041598E: CC                 int         3
  0041598F: CC                 int         3
  00415990: CC                 int         3
  00415991: CC                 int         3
  00415992: CC                 int         3
  00415993: CC                 int         3
  00415994: CC                 int         3
  00415995: CC                 int         3
  00415996: CC                 int         3
  00415997: CC                 int         3
  00415998: CC                 int         3
  00415999: CC                 int         3
  0041599A: CC                 int         3
  0041599B: CC                 int         3
  0041599C: CC                 int         3
  0041599D: CC                 int         3
  0041599E: CC                 int         3
  0041599F: CC                 int         3
  004159A0: CC                 int         3
  004159A1: CC                 int         3
  004159A2: CC                 int         3
  004159A3: CC                 int         3
  004159A4: CC                 int         3
  004159A5: CC                 int         3
  004159A6: CC                 int         3
  004159A7: CC                 int         3
  004159A8: CC                 int         3
  004159A9: CC                 int         3
  004159AA: CC                 int         3
  004159AB: CC                 int         3
  004159AC: CC                 int         3
  004159AD: CC                 int         3
  004159AE: CC                 int         3
  004159AF: CC                 int         3
  004159B0: CC                 int         3
  004159B1: CC                 int         3
  004159B2: CC                 int         3
  004159B3: CC                 int         3
  004159B4: CC                 int         3
  004159B5: CC                 int         3
  004159B6: CC                 int         3
  004159B7: CC                 int         3
  004159B8: CC                 int         3
  004159B9: CC                 int         3
  004159BA: CC                 int         3
  004159BB: CC                 int         3
  004159BC: CC                 int         3
  004159BD: CC                 int         3
  004159BE: CC                 int         3
  004159BF: CC                 int         3
  004159C0: CC                 int         3
  004159C1: CC                 int         3
  004159C2: CC                 int         3
  004159C3: CC                 int         3
  004159C4: CC                 int         3
  004159C5: CC                 int         3
  004159C6: CC                 int         3
  004159C7: CC                 int         3
  004159C8: CC                 int         3
  004159C9: CC                 int         3
  004159CA: CC                 int         3
  004159CB: CC                 int         3
  004159CC: CC                 int         3
  004159CD: CC                 int         3
  004159CE: CC                 int         3
  004159CF: CC                 int         3
  004159D0: CC                 int         3
  004159D1: CC                 int         3
  004159D2: CC                 int         3
  004159D3: CC                 int         3
  004159D4: CC                 int         3
  004159D5: CC                 int         3
  004159D6: CC                 int         3
  004159D7: CC                 int         3
  004159D8: CC                 int         3
  004159D9: CC                 int         3
  004159DA: CC                 int         3
  004159DB: CC                 int         3
  004159DC: CC                 int         3
  004159DD: CC                 int         3
  004159DE: CC                 int         3
  004159DF: CC                 int         3
  004159E0: CC                 int         3
  004159E1: CC                 int         3
  004159E2: CC                 int         3
  004159E3: CC                 int         3
  004159E4: CC                 int         3
  004159E5: CC                 int         3
  004159E6: CC                 int         3
  004159E7: CC                 int         3
  004159E8: CC                 int         3
  004159E9: CC                 int         3
  004159EA: CC                 int         3
  004159EB: CC                 int         3
  004159EC: CC                 int         3
  004159ED: CC                 int         3
  004159EE: CC                 int         3
  004159EF: CC                 int         3
  004159F0: CC                 int         3
  004159F1: CC                 int         3
  004159F2: CC                 int         3
  004159F3: CC                 int         3
  004159F4: CC                 int         3
  004159F5: CC                 int         3
  004159F6: CC                 int         3
  004159F7: CC                 int         3
  004159F8: CC                 int         3
  004159F9: CC                 int         3
  004159FA: CC                 int         3
  004159FB: CC                 int         3
  004159FC: CC                 int         3
  004159FD: CC                 int         3
  004159FE: CC                 int         3
  004159FF: CC                 int         3
  00415A00: CC                 int         3
  00415A01: CC                 int         3
  00415A02: CC                 int         3
  00415A03: CC                 int         3
  00415A04: CC                 int         3
  00415A05: CC                 int         3
  00415A06: CC                 int         3
  00415A07: CC                 int         3
  00415A08: CC                 int         3
  00415A09: CC                 int         3
  00415A0A: CC                 int         3
  00415A0B: CC                 int         3
  00415A0C: CC                 int         3
  00415A0D: CC                 int         3
  00415A0E: CC                 int         3
  00415A0F: CC                 int         3
  00415A10: CC                 int         3
  00415A11: CC                 int         3
  00415A12: CC                 int         3
  00415A13: CC                 int         3
  00415A14: CC                 int         3
  00415A15: CC                 int         3
  00415A16: CC                 int         3
  00415A17: CC                 int         3
  00415A18: CC                 int         3
  00415A19: CC                 int         3
  00415A1A: CC                 int         3
  00415A1B: CC                 int         3
  00415A1C: CC                 int         3
  00415A1D: CC                 int         3
  00415A1E: CC                 int         3
  00415A1F: CC                 int         3
  00415A20: CC                 int         3
  00415A21: CC                 int         3
  00415A22: CC                 int         3
  00415A23: CC                 int         3
  00415A24: CC                 int         3
  00415A25: CC                 int         3
  00415A26: CC                 int         3
  00415A27: CC                 int         3
  00415A28: CC                 int         3
  00415A29: CC                 int         3
  00415A2A: CC                 int         3
  00415A2B: CC                 int         3
  00415A2C: CC                 int         3
  00415A2D: CC                 int         3
  00415A2E: CC                 int         3
  00415A2F: CC                 int         3
  00415A30: CC                 int         3
  00415A31: CC                 int         3
  00415A32: CC                 int         3
  00415A33: CC                 int         3
  00415A34: CC                 int         3
  00415A35: CC                 int         3
  00415A36: CC                 int         3
  00415A37: CC                 int         3
  00415A38: CC                 int         3
  00415A39: CC                 int         3
  00415A3A: CC                 int         3
  00415A3B: CC                 int         3
  00415A3C: CC                 int         3
  00415A3D: CC                 int         3
  00415A3E: CC                 int         3
  00415A3F: CC                 int         3
  00415A40: CC                 int         3
  00415A41: CC                 int         3
  00415A42: CC                 int         3
  00415A43: CC                 int         3
  00415A44: CC                 int         3
  00415A45: CC                 int         3
  00415A46: CC                 int         3
  00415A47: CC                 int         3
  00415A48: CC                 int         3
  00415A49: CC                 int         3
  00415A4A: CC                 int         3
  00415A4B: CC                 int         3
  00415A4C: CC                 int         3
  00415A4D: CC                 int         3
  00415A4E: CC                 int         3
  00415A4F: CC                 int         3
  00415A50: CC                 int         3
  00415A51: CC                 int         3
  00415A52: CC                 int         3
  00415A53: CC                 int         3
  00415A54: CC                 int         3
  00415A55: CC                 int         3
  00415A56: CC                 int         3
  00415A57: CC                 int         3
  00415A58: CC                 int         3
  00415A59: CC                 int         3
  00415A5A: CC                 int         3
  00415A5B: CC                 int         3
  00415A5C: CC                 int         3
  00415A5D: CC                 int         3
  00415A5E: CC                 int         3
  00415A5F: CC                 int         3
  00415A60: CC                 int         3
  00415A61: CC                 int         3
  00415A62: CC                 int         3
  00415A63: CC                 int         3
  00415A64: CC                 int         3
  00415A65: CC                 int         3
  00415A66: CC                 int         3
  00415A67: CC                 int         3
  00415A68: CC                 int         3
  00415A69: CC                 int         3
  00415A6A: CC                 int         3
  00415A6B: CC                 int         3
  00415A6C: CC                 int         3
  00415A6D: CC                 int         3
  00415A6E: CC                 int         3
  00415A6F: CC                 int         3
  00415A70: CC                 int         3
  00415A71: CC                 int         3
  00415A72: CC                 int         3
  00415A73: CC                 int         3
  00415A74: CC                 int         3
  00415A75: CC                 int         3
  00415A76: CC                 int         3
  00415A77: CC                 int         3
  00415A78: CC                 int         3
  00415A79: CC                 int         3
  00415A7A: CC                 int         3
  00415A7B: CC                 int         3
  00415A7C: CC                 int         3
  00415A7D: CC                 int         3
  00415A7E: CC                 int         3
  00415A7F: CC                 int         3
  00415A80: CC                 int         3
  00415A81: CC                 int         3
  00415A82: CC                 int         3
  00415A83: CC                 int         3
  00415A84: CC                 int         3
  00415A85: CC                 int         3
  00415A86: CC                 int         3
  00415A87: CC                 int         3
  00415A88: CC                 int         3
  00415A89: CC                 int         3
  00415A8A: CC                 int         3
  00415A8B: CC                 int         3
  00415A8C: CC                 int         3
  00415A8D: CC                 int         3
  00415A8E: CC                 int         3
  00415A8F: CC                 int         3
  00415A90: CC                 int         3
  00415A91: CC                 int         3
  00415A92: CC                 int         3
  00415A93: CC                 int         3
  00415A94: CC                 int         3
  00415A95: CC                 int         3
  00415A96: CC                 int         3
  00415A97: CC                 int         3
  00415A98: CC                 int         3
  00415A99: CC                 int         3
  00415A9A: CC                 int         3
  00415A9B: CC                 int         3
  00415A9C: CC                 int         3
  00415A9D: CC                 int         3
  00415A9E: CC                 int         3
  00415A9F: CC                 int         3
  00415AA0: CC                 int         3
  00415AA1: CC                 int         3
  00415AA2: CC                 int         3
  00415AA3: CC                 int         3
  00415AA4: CC                 int         3
  00415AA5: CC                 int         3
  00415AA6: CC                 int         3
  00415AA7: CC                 int         3
  00415AA8: CC                 int         3
  00415AA9: CC                 int         3
  00415AAA: CC                 int         3
  00415AAB: CC                 int         3
  00415AAC: CC                 int         3
  00415AAD: CC                 int         3
  00415AAE: CC                 int         3
  00415AAF: CC                 int         3
  00415AB0: CC                 int         3
  00415AB1: CC                 int         3
  00415AB2: CC                 int         3
  00415AB3: CC                 int         3
  00415AB4: CC                 int         3
  00415AB5: CC                 int         3
  00415AB6: CC                 int         3
  00415AB7: CC                 int         3
  00415AB8: CC                 int         3
  00415AB9: CC                 int         3
  00415ABA: CC                 int         3
  00415ABB: CC                 int         3
  00415ABC: CC                 int         3
  00415ABD: CC                 int         3
  00415ABE: CC                 int         3
  00415ABF: CC                 int         3
  00415AC0: CC                 int         3
  00415AC1: CC                 int         3
  00415AC2: CC                 int         3
  00415AC3: CC                 int         3
  00415AC4: CC                 int         3
  00415AC5: CC                 int         3
  00415AC6: CC                 int         3
  00415AC7: CC                 int         3
  00415AC8: CC                 int         3
  00415AC9: CC                 int         3
  00415ACA: CC                 int         3
  00415ACB: CC                 int         3
  00415ACC: CC                 int         3
  00415ACD: CC                 int         3
  00415ACE: CC                 int         3
  00415ACF: CC                 int         3
  00415AD0: CC                 int         3
  00415AD1: CC                 int         3
  00415AD2: CC                 int         3
  00415AD3: CC                 int         3
  00415AD4: CC                 int         3
  00415AD5: CC                 int         3
  00415AD6: CC                 int         3
  00415AD7: CC                 int         3
  00415AD8: CC                 int         3
  00415AD9: CC                 int         3
  00415ADA: CC                 int         3
  00415ADB: CC                 int         3
  00415ADC: CC                 int         3
  00415ADD: CC                 int         3
  00415ADE: CC                 int         3
  00415ADF: CC                 int         3
  00415AE0: CC                 int         3
  00415AE1: CC                 int         3
  00415AE2: CC                 int         3
  00415AE3: CC                 int         3
  00415AE4: CC                 int         3
  00415AE5: CC                 int         3
  00415AE6: CC                 int         3
  00415AE7: CC                 int         3
  00415AE8: CC                 int         3
  00415AE9: CC                 int         3
  00415AEA: CC                 int         3
  00415AEB: CC                 int         3
  00415AEC: CC                 int         3
  00415AED: CC                 int         3
  00415AEE: CC                 int         3
  00415AEF: CC                 int         3
  00415AF0: CC                 int         3
  00415AF1: CC                 int         3
  00415AF2: CC                 int         3
  00415AF3: CC                 int         3
  00415AF4: CC                 int         3
  00415AF5: CC                 int         3
  00415AF6: CC                 int         3
  00415AF7: CC                 int         3
  00415AF8: CC                 int         3
  00415AF9: CC                 int         3
  00415AFA: CC                 int         3
  00415AFB: CC                 int         3
  00415AFC: CC                 int         3
  00415AFD: CC                 int         3
  00415AFE: CC                 int         3
  00415AFF: CC                 int         3
  00415B00: CC                 int         3
  00415B01: CC                 int         3
  00415B02: CC                 int         3
  00415B03: CC                 int         3
  00415B04: CC                 int         3
  00415B05: CC                 int         3
  00415B06: CC                 int         3
  00415B07: CC                 int         3
  00415B08: CC                 int         3
  00415B09: CC                 int         3
  00415B0A: CC                 int         3
  00415B0B: CC                 int         3
  00415B0C: CC                 int         3
  00415B0D: CC                 int         3
  00415B0E: CC                 int         3
  00415B0F: CC                 int         3
  00415B10: CC                 int         3
  00415B11: CC                 int         3
  00415B12: CC                 int         3
  00415B13: CC                 int         3
  00415B14: CC                 int         3
  00415B15: CC                 int         3
  00415B16: CC                 int         3
  00415B17: CC                 int         3
  00415B18: CC                 int         3
  00415B19: CC                 int         3
  00415B1A: CC                 int         3
  00415B1B: CC                 int         3
  00415B1C: CC                 int         3
  00415B1D: CC                 int         3
  00415B1E: CC                 int         3
  00415B1F: CC                 int         3
  00415B20: CC                 int         3
  00415B21: CC                 int         3
  00415B22: CC                 int         3
  00415B23: CC                 int         3
  00415B24: CC                 int         3
  00415B25: CC                 int         3
  00415B26: CC                 int         3
  00415B27: CC                 int         3
  00415B28: CC                 int         3
  00415B29: CC                 int         3
  00415B2A: CC                 int         3
  00415B2B: CC                 int         3
  00415B2C: CC                 int         3
  00415B2D: CC                 int         3
  00415B2E: CC                 int         3
  00415B2F: CC                 int         3
  00415B30: CC                 int         3
  00415B31: CC                 int         3
  00415B32: CC                 int         3
  00415B33: CC                 int         3
  00415B34: CC                 int         3
  00415B35: CC                 int         3
  00415B36: CC                 int         3
  00415B37: CC                 int         3
  00415B38: CC                 int         3
  00415B39: CC                 int         3
  00415B3A: CC                 int         3
  00415B3B: CC                 int         3
  00415B3C: CC                 int         3
  00415B3D: CC                 int         3
  00415B3E: CC                 int         3
  00415B3F: CC                 int         3
  00415B40: CC                 int         3
  00415B41: CC                 int         3
  00415B42: CC                 int         3
  00415B43: CC                 int         3
  00415B44: CC                 int         3
  00415B45: CC                 int         3
  00415B46: CC                 int         3
  00415B47: CC                 int         3
  00415B48: CC                 int         3
  00415B49: CC                 int         3
  00415B4A: CC                 int         3
  00415B4B: CC                 int         3
  00415B4C: CC                 int         3
  00415B4D: CC                 int         3
  00415B4E: CC                 int         3
  00415B4F: CC                 int         3
  00415B50: CC                 int         3
  00415B51: CC                 int         3
  00415B52: CC                 int         3
  00415B53: CC                 int         3
  00415B54: CC                 int         3
  00415B55: CC                 int         3
  00415B56: CC                 int         3
  00415B57: CC                 int         3
  00415B58: CC                 int         3
  00415B59: CC                 int         3
  00415B5A: CC                 int         3
  00415B5B: CC                 int         3
  00415B5C: CC                 int         3
  00415B5D: CC                 int         3
  00415B5E: CC                 int         3
  00415B5F: CC                 int         3
  00415B60: CC                 int         3
  00415B61: CC                 int         3
  00415B62: CC                 int         3
  00415B63: CC                 int         3
  00415B64: CC                 int         3
  00415B65: CC                 int         3
  00415B66: CC                 int         3
  00415B67: CC                 int         3
  00415B68: CC                 int         3
  00415B69: CC                 int         3
  00415B6A: CC                 int         3
  00415B6B: CC                 int         3
  00415B6C: CC                 int         3
  00415B6D: CC                 int         3
  00415B6E: CC                 int         3
  00415B6F: CC                 int         3
  00415B70: CC                 int         3
  00415B71: CC                 int         3
  00415B72: CC                 int         3
  00415B73: CC                 int         3
  00415B74: CC                 int         3
  00415B75: CC                 int         3
  00415B76: CC                 int         3
  00415B77: CC                 int         3
  00415B78: CC                 int         3
  00415B79: CC                 int         3
  00415B7A: CC                 int         3
  00415B7B: CC                 int         3
  00415B7C: CC                 int         3
  00415B7D: CC                 int         3
  00415B7E: CC                 int         3
  00415B7F: CC                 int         3
  00415B80: CC                 int         3
  00415B81: CC                 int         3
  00415B82: CC                 int         3
  00415B83: CC                 int         3
  00415B84: CC                 int         3
  00415B85: CC                 int         3
  00415B86: CC                 int         3
  00415B87: CC                 int         3
  00415B88: CC                 int         3
  00415B89: CC                 int         3
  00415B8A: CC                 int         3
  00415B8B: CC                 int         3
  00415B8C: CC                 int         3
  00415B8D: CC                 int         3
  00415B8E: CC                 int         3
  00415B8F: CC                 int         3
  00415B90: CC                 int         3
  00415B91: CC                 int         3
  00415B92: CC                 int         3
  00415B93: CC                 int         3
  00415B94: CC                 int         3
  00415B95: CC                 int         3
  00415B96: CC                 int         3
  00415B97: CC                 int         3
  00415B98: CC                 int         3
  00415B99: CC                 int         3
  00415B9A: CC                 int         3
  00415B9B: CC                 int         3
  00415B9C: CC                 int         3
  00415B9D: CC                 int         3
  00415B9E: CC                 int         3
  00415B9F: CC                 int         3
  00415BA0: CC                 int         3
  00415BA1: CC                 int         3
  00415BA2: CC                 int         3
  00415BA3: CC                 int         3
  00415BA4: CC                 int         3
  00415BA5: CC                 int         3
  00415BA6: CC                 int         3
  00415BA7: CC                 int         3
  00415BA8: CC                 int         3
  00415BA9: CC                 int         3
  00415BAA: CC                 int         3
  00415BAB: CC                 int         3
  00415BAC: CC                 int         3
  00415BAD: CC                 int         3
  00415BAE: CC                 int         3
  00415BAF: CC                 int         3
  00415BB0: CC                 int         3
  00415BB1: CC                 int         3
  00415BB2: CC                 int         3
  00415BB3: CC                 int         3
  00415BB4: CC                 int         3
  00415BB5: CC                 int         3
  00415BB6: CC                 int         3
  00415BB7: CC                 int         3
  00415BB8: CC                 int         3
  00415BB9: CC                 int         3
  00415BBA: CC                 int         3
  00415BBB: CC                 int         3
  00415BBC: CC                 int         3
  00415BBD: CC                 int         3
  00415BBE: CC                 int         3
  00415BBF: CC                 int         3
  00415BC0: CC                 int         3
  00415BC1: CC                 int         3
  00415BC2: CC                 int         3
  00415BC3: CC                 int         3
  00415BC4: CC                 int         3
  00415BC5: CC                 int         3
  00415BC6: CC                 int         3
  00415BC7: CC                 int         3
  00415BC8: CC                 int         3
  00415BC9: CC                 int         3
  00415BCA: CC                 int         3
  00415BCB: CC                 int         3
  00415BCC: CC                 int         3
  00415BCD: CC                 int         3
  00415BCE: CC                 int         3
  00415BCF: CC                 int         3
  00415BD0: CC                 int         3
  00415BD1: CC                 int         3
  00415BD2: CC                 int         3
  00415BD3: CC                 int         3
  00415BD4: CC                 int         3
  00415BD5: CC                 int         3
  00415BD6: CC                 int         3
  00415BD7: CC                 int         3
  00415BD8: CC                 int         3
  00415BD9: CC                 int         3
  00415BDA: CC                 int         3
  00415BDB: CC                 int         3
  00415BDC: CC                 int         3
  00415BDD: CC                 int         3
  00415BDE: CC                 int         3
  00415BDF: CC                 int         3
  00415BE0: CC                 int         3
  00415BE1: CC                 int         3
  00415BE2: CC                 int         3
  00415BE3: CC                 int         3
  00415BE4: CC                 int         3
  00415BE5: CC                 int         3
  00415BE6: CC                 int         3
  00415BE7: CC                 int         3
  00415BE8: CC                 int         3
  00415BE9: CC                 int         3
  00415BEA: CC                 int         3
  00415BEB: CC                 int         3
  00415BEC: CC                 int         3
  00415BED: CC                 int         3
  00415BEE: CC                 int         3
  00415BEF: CC                 int         3
  00415BF0: CC                 int         3
  00415BF1: CC                 int         3
  00415BF2: CC                 int         3
  00415BF3: CC                 int         3
  00415BF4: CC                 int         3
  00415BF5: CC                 int         3
  00415BF6: CC                 int         3
  00415BF7: CC                 int         3
  00415BF8: CC                 int         3
  00415BF9: CC                 int         3
  00415BFA: CC                 int         3
  00415BFB: CC                 int         3
  00415BFC: CC                 int         3
  00415BFD: CC                 int         3
  00415BFE: CC                 int         3
  00415BFF: CC                 int         3
  00415C00: CC                 int         3
  00415C01: CC                 int         3
  00415C02: CC                 int         3
  00415C03: CC                 int         3
  00415C04: CC                 int         3
  00415C05: CC                 int         3
  00415C06: CC                 int         3
  00415C07: CC                 int         3
  00415C08: CC                 int         3
  00415C09: CC                 int         3
  00415C0A: CC                 int         3
  00415C0B: CC                 int         3
  00415C0C: CC                 int         3
  00415C0D: CC                 int         3
  00415C0E: CC                 int         3
  00415C0F: CC                 int         3
  00415C10: CC                 int         3
  00415C11: CC                 int         3
  00415C12: CC                 int         3
  00415C13: CC                 int         3
  00415C14: CC                 int         3
  00415C15: CC                 int         3
  00415C16: CC                 int         3
  00415C17: CC                 int         3
  00415C18: CC                 int         3
  00415C19: CC                 int         3
  00415C1A: CC                 int         3
  00415C1B: CC                 int         3
  00415C1C: CC                 int         3
  00415C1D: CC                 int         3
  00415C1E: CC                 int         3
  00415C1F: CC                 int         3
  00415C20: CC                 int         3
  00415C21: CC                 int         3
  00415C22: CC                 int         3
  00415C23: CC                 int         3
  00415C24: CC                 int         3
  00415C25: CC                 int         3
  00415C26: CC                 int         3
  00415C27: CC                 int         3
  00415C28: CC                 int         3
  00415C29: CC                 int         3
  00415C2A: CC                 int         3
  00415C2B: CC                 int         3
  00415C2C: CC                 int         3
  00415C2D: CC                 int         3
  00415C2E: CC                 int         3
  00415C2F: CC                 int         3
  00415C30: CC                 int         3
  00415C31: CC                 int         3
  00415C32: CC                 int         3
  00415C33: CC                 int         3
  00415C34: CC                 int         3
  00415C35: CC                 int         3
  00415C36: CC                 int         3
  00415C37: CC                 int         3
  00415C38: CC                 int         3
  00415C39: CC                 int         3
  00415C3A: CC                 int         3
  00415C3B: CC                 int         3
  00415C3C: CC                 int         3
  00415C3D: CC                 int         3
  00415C3E: CC                 int         3
  00415C3F: CC                 int         3
  00415C40: CC                 int         3
  00415C41: CC                 int         3
  00415C42: CC                 int         3
  00415C43: CC                 int         3
  00415C44: CC                 int         3
  00415C45: CC                 int         3
  00415C46: CC                 int         3
  00415C47: CC                 int         3
  00415C48: CC                 int         3
  00415C49: CC                 int         3
  00415C4A: CC                 int         3
  00415C4B: CC                 int         3
  00415C4C: CC                 int         3
  00415C4D: CC                 int         3
  00415C4E: CC                 int         3
  00415C4F: CC                 int         3
  00415C50: CC                 int         3
  00415C51: CC                 int         3
  00415C52: CC                 int         3
  00415C53: CC                 int         3
  00415C54: CC                 int         3
  00415C55: CC                 int         3
  00415C56: CC                 int         3
  00415C57: CC                 int         3
  00415C58: CC                 int         3
  00415C59: CC                 int         3
  00415C5A: CC                 int         3
  00415C5B: CC                 int         3
  00415C5C: CC                 int         3
  00415C5D: CC                 int         3
  00415C5E: CC                 int         3
  00415C5F: CC                 int         3
  00415C60: CC                 int         3
  00415C61: CC                 int         3
  00415C62: CC                 int         3
  00415C63: CC                 int         3
  00415C64: CC                 int         3
  00415C65: CC                 int         3
  00415C66: CC                 int         3
  00415C67: CC                 int         3
  00415C68: CC                 int         3
  00415C69: CC                 int         3
  00415C6A: CC                 int         3
  00415C6B: CC                 int         3
  00415C6C: CC                 int         3
  00415C6D: CC                 int         3
  00415C6E: CC                 int         3
  00415C6F: CC                 int         3
  00415C70: CC                 int         3
  00415C71: CC                 int         3
  00415C72: CC                 int         3
  00415C73: CC                 int         3
  00415C74: CC                 int         3
  00415C75: CC                 int         3
  00415C76: CC                 int         3
  00415C77: CC                 int         3
  00415C78: CC                 int         3
  00415C79: CC                 int         3
  00415C7A: CC                 int         3
  00415C7B: CC                 int         3
  00415C7C: CC                 int         3
  00415C7D: CC                 int         3
  00415C7E: CC                 int         3
  00415C7F: CC                 int         3
  00415C80: CC                 int         3
  00415C81: CC                 int         3
  00415C82: CC                 int         3
  00415C83: CC                 int         3
  00415C84: CC                 int         3
  00415C85: CC                 int         3
  00415C86: CC                 int         3
  00415C87: CC                 int         3
  00415C88: CC                 int         3
  00415C89: CC                 int         3
  00415C8A: CC                 int         3
  00415C8B: CC                 int         3
  00415C8C: CC                 int         3
  00415C8D: CC                 int         3
  00415C8E: CC                 int         3
  00415C8F: CC                 int         3
  00415C90: CC                 int         3
  00415C91: CC                 int         3
  00415C92: CC                 int         3
  00415C93: CC                 int         3
  00415C94: CC                 int         3
  00415C95: CC                 int         3
  00415C96: CC                 int         3
  00415C97: CC                 int         3
  00415C98: CC                 int         3
  00415C99: CC                 int         3
  00415C9A: CC                 int         3
  00415C9B: CC                 int         3
  00415C9C: CC                 int         3
  00415C9D: CC                 int         3
  00415C9E: CC                 int         3
  00415C9F: CC                 int         3
  00415CA0: CC                 int         3
  00415CA1: CC                 int         3
  00415CA2: CC                 int         3
  00415CA3: CC                 int         3
  00415CA4: CC                 int         3
  00415CA5: CC                 int         3
  00415CA6: CC                 int         3
  00415CA7: CC                 int         3
  00415CA8: CC                 int         3
  00415CA9: CC                 int         3
  00415CAA: CC                 int         3
  00415CAB: CC                 int         3
  00415CAC: CC                 int         3
  00415CAD: CC                 int         3
  00415CAE: CC                 int         3
  00415CAF: CC                 int         3
  00415CB0: CC                 int         3
  00415CB1: CC                 int         3
  00415CB2: CC                 int         3
  00415CB3: CC                 int         3
  00415CB4: CC                 int         3
  00415CB5: CC                 int         3
  00415CB6: CC                 int         3
  00415CB7: CC                 int         3
  00415CB8: CC                 int         3
  00415CB9: CC                 int         3
  00415CBA: CC                 int         3
  00415CBB: CC                 int         3
  00415CBC: CC                 int         3
  00415CBD: CC                 int         3
  00415CBE: CC                 int         3
  00415CBF: CC                 int         3
  00415CC0: CC                 int         3
  00415CC1: CC                 int         3
  00415CC2: CC                 int         3
  00415CC3: CC                 int         3
  00415CC4: CC                 int         3
  00415CC5: CC                 int         3
  00415CC6: CC                 int         3
  00415CC7: CC                 int         3
  00415CC8: CC                 int         3
  00415CC9: CC                 int         3
  00415CCA: CC                 int         3
  00415CCB: CC                 int         3
  00415CCC: CC                 int         3
  00415CCD: CC                 int         3
  00415CCE: CC                 int         3
  00415CCF: CC                 int         3
  00415CD0: CC                 int         3
  00415CD1: CC                 int         3
  00415CD2: CC                 int         3
  00415CD3: CC                 int         3
  00415CD4: CC                 int         3
  00415CD5: CC                 int         3
  00415CD6: CC                 int         3
  00415CD7: CC                 int         3
  00415CD8: CC                 int         3
  00415CD9: CC                 int         3
  00415CDA: CC                 int         3
  00415CDB: CC                 int         3
  00415CDC: CC                 int         3
  00415CDD: CC                 int         3
  00415CDE: CC                 int         3
  00415CDF: CC                 int         3
  00415CE0: CC                 int         3
  00415CE1: CC                 int         3
  00415CE2: CC                 int         3
  00415CE3: CC                 int         3
  00415CE4: CC                 int         3
  00415CE5: CC                 int         3
  00415CE6: CC                 int         3
  00415CE7: CC                 int         3
  00415CE8: CC                 int         3
  00415CE9: CC                 int         3
  00415CEA: CC                 int         3
  00415CEB: CC                 int         3
  00415CEC: CC                 int         3
  00415CED: CC                 int         3
  00415CEE: CC                 int         3
  00415CEF: CC                 int         3
  00415CF0: CC                 int         3
  00415CF1: CC                 int         3
  00415CF2: CC                 int         3
  00415CF3: CC                 int         3
  00415CF4: CC                 int         3
  00415CF5: CC                 int         3
  00415CF6: CC                 int         3
  00415CF7: CC                 int         3
  00415CF8: CC                 int         3
  00415CF9: CC                 int         3
  00415CFA: CC                 int         3
  00415CFB: CC                 int         3
  00415CFC: CC                 int         3
  00415CFD: CC                 int         3
  00415CFE: CC                 int         3
  00415CFF: CC                 int         3
  00415D00: CC                 int         3
  00415D01: CC                 int         3
  00415D02: CC                 int         3
  00415D03: CC                 int         3
  00415D04: CC                 int         3
  00415D05: CC                 int         3
  00415D06: CC                 int         3
  00415D07: CC                 int         3
  00415D08: CC                 int         3
  00415D09: CC                 int         3
  00415D0A: CC                 int         3
  00415D0B: CC                 int         3
  00415D0C: CC                 int         3
  00415D0D: CC                 int         3
  00415D0E: CC                 int         3
  00415D0F: CC                 int         3
  00415D10: CC                 int         3
  00415D11: CC                 int         3
  00415D12: CC                 int         3
  00415D13: CC                 int         3
  00415D14: CC                 int         3
  00415D15: CC                 int         3
  00415D16: CC                 int         3
  00415D17: CC                 int         3
  00415D18: CC                 int         3
  00415D19: CC                 int         3
  00415D1A: CC                 int         3
  00415D1B: CC                 int         3
  00415D1C: CC                 int         3
  00415D1D: CC                 int         3
  00415D1E: CC                 int         3
  00415D1F: CC                 int         3
  00415D20: CC                 int         3
  00415D21: CC                 int         3
  00415D22: CC                 int         3
  00415D23: CC                 int         3
  00415D24: CC                 int         3
  00415D25: CC                 int         3
  00415D26: CC                 int         3
  00415D27: CC                 int         3
  00415D28: CC                 int         3
  00415D29: CC                 int         3
  00415D2A: CC                 int         3
  00415D2B: CC                 int         3
  00415D2C: CC                 int         3
  00415D2D: CC                 int         3
  00415D2E: CC                 int         3
  00415D2F: CC                 int         3
  00415D30: CC                 int         3
  00415D31: CC                 int         3
  00415D32: CC                 int         3
  00415D33: CC                 int         3
  00415D34: CC                 int         3
  00415D35: CC                 int         3
  00415D36: CC                 int         3
  00415D37: CC                 int         3
  00415D38: CC                 int         3
  00415D39: CC                 int         3
  00415D3A: CC                 int         3
  00415D3B: CC                 int         3
  00415D3C: CC                 int         3
  00415D3D: CC                 int         3
  00415D3E: CC                 int         3
  00415D3F: CC                 int         3
  00415D40: CC                 int         3
  00415D41: CC                 int         3
  00415D42: CC                 int         3
  00415D43: CC                 int         3
  00415D44: CC                 int         3
  00415D45: CC                 int         3
  00415D46: CC                 int         3
  00415D47: CC                 int         3
  00415D48: CC                 int         3
  00415D49: CC                 int         3
  00415D4A: CC                 int         3
  00415D4B: CC                 int         3
  00415D4C: CC                 int         3
  00415D4D: CC                 int         3
  00415D4E: CC                 int         3
  00415D4F: CC                 int         3
  00415D50: CC                 int         3
  00415D51: CC                 int         3
  00415D52: CC                 int         3
  00415D53: CC                 int         3
  00415D54: CC                 int         3
  00415D55: CC                 int         3
  00415D56: CC                 int         3
  00415D57: CC                 int         3
  00415D58: CC                 int         3
  00415D59: CC                 int         3
  00415D5A: CC                 int         3
  00415D5B: CC                 int         3
  00415D5C: CC                 int         3
  00415D5D: CC                 int         3
  00415D5E: CC                 int         3
  00415D5F: CC                 int         3
  00415D60: CC                 int         3
  00415D61: CC                 int         3
  00415D62: CC                 int         3
  00415D63: CC                 int         3
  00415D64: CC                 int         3
  00415D65: CC                 int         3
  00415D66: CC                 int         3
  00415D67: CC                 int         3
  00415D68: CC                 int         3
  00415D69: CC                 int         3
  00415D6A: CC                 int         3
  00415D6B: CC                 int         3
  00415D6C: CC                 int         3
  00415D6D: CC                 int         3
  00415D6E: CC                 int         3
  00415D6F: CC                 int         3
  00415D70: CC                 int         3
  00415D71: CC                 int         3
  00415D72: CC                 int         3
  00415D73: CC                 int         3
  00415D74: CC                 int         3
  00415D75: CC                 int         3
  00415D76: CC                 int         3
  00415D77: CC                 int         3
  00415D78: CC                 int         3
  00415D79: CC                 int         3
  00415D7A: CC                 int         3
  00415D7B: CC                 int         3
  00415D7C: CC                 int         3
  00415D7D: CC                 int         3
  00415D7E: CC                 int         3
  00415D7F: CC                 int         3
  00415D80: CC                 int         3
  00415D81: CC                 int         3
  00415D82: CC                 int         3
  00415D83: CC                 int         3
  00415D84: CC                 int         3
  00415D85: CC                 int         3
  00415D86: CC                 int         3
  00415D87: CC                 int         3
  00415D88: CC                 int         3
  00415D89: CC                 int         3
  00415D8A: CC                 int         3
  00415D8B: CC                 int         3
  00415D8C: CC                 int         3
  00415D8D: CC                 int         3
  00415D8E: CC                 int         3
  00415D8F: CC                 int         3
  00415D90: CC                 int         3
  00415D91: CC                 int         3
  00415D92: CC                 int         3
  00415D93: CC                 int         3
  00415D94: CC                 int         3
  00415D95: CC                 int         3
  00415D96: CC                 int         3
  00415D97: CC                 int         3
  00415D98: CC                 int         3
  00415D99: CC                 int         3
  00415D9A: CC                 int         3
  00415D9B: CC                 int         3
  00415D9C: CC                 int         3
  00415D9D: CC                 int         3
  00415D9E: CC                 int         3
  00415D9F: CC                 int         3
  00415DA0: CC                 int         3
  00415DA1: CC                 int         3
  00415DA2: CC                 int         3
  00415DA3: CC                 int         3
  00415DA4: CC                 int         3
  00415DA5: CC                 int         3
  00415DA6: CC                 int         3
  00415DA7: CC                 int         3
  00415DA8: CC                 int         3
  00415DA9: CC                 int         3
  00415DAA: CC                 int         3
  00415DAB: CC                 int         3
  00415DAC: CC                 int         3
  00415DAD: CC                 int         3
  00415DAE: CC                 int         3
  00415DAF: CC                 int         3
  00415DB0: CC                 int         3
  00415DB1: CC                 int         3
  00415DB2: CC                 int         3
  00415DB3: CC                 int         3
  00415DB4: CC                 int         3
  00415DB5: CC                 int         3
  00415DB6: CC                 int         3
  00415DB7: CC                 int         3
  00415DB8: CC                 int         3
  00415DB9: CC                 int         3
  00415DBA: CC                 int         3
  00415DBB: CC                 int         3
  00415DBC: CC                 int         3
  00415DBD: CC                 int         3
  00415DBE: CC                 int         3
  00415DBF: CC                 int         3
  00415DC0: CC                 int         3
  00415DC1: CC                 int         3
  00415DC2: CC                 int         3
  00415DC3: CC                 int         3
  00415DC4: CC                 int         3
  00415DC5: CC                 int         3
  00415DC6: CC                 int         3
  00415DC7: CC                 int         3
  00415DC8: CC                 int         3
  00415DC9: CC                 int         3
  00415DCA: CC                 int         3
  00415DCB: CC                 int         3
  00415DCC: CC                 int         3
  00415DCD: CC                 int         3
  00415DCE: CC                 int         3
  00415DCF: CC                 int         3
  00415DD0: CC                 int         3
  00415DD1: CC                 int         3
  00415DD2: CC                 int         3
  00415DD3: CC                 int         3
  00415DD4: CC                 int         3
  00415DD5: CC                 int         3
  00415DD6: CC                 int         3
  00415DD7: CC                 int         3
  00415DD8: CC                 int         3
  00415DD9: CC                 int         3
  00415DDA: CC                 int         3
  00415DDB: CC                 int         3
  00415DDC: CC                 int         3
  00415DDD: CC                 int         3
  00415DDE: CC                 int         3
  00415DDF: CC                 int         3
  00415DE0: CC                 int         3
  00415DE1: CC                 int         3
  00415DE2: CC                 int         3
  00415DE3: CC                 int         3
  00415DE4: CC                 int         3
  00415DE5: CC                 int         3
  00415DE6: CC                 int         3
  00415DE7: CC                 int         3
  00415DE8: CC                 int         3
  00415DE9: CC                 int         3
  00415DEA: CC                 int         3
  00415DEB: CC                 int         3
  00415DEC: CC                 int         3
  00415DED: CC                 int         3
  00415DEE: CC                 int         3
  00415DEF: CC                 int         3
  00415DF0: CC                 int         3
  00415DF1: CC                 int         3
  00415DF2: CC                 int         3
  00415DF3: CC                 int         3
  00415DF4: CC                 int         3
  00415DF5: CC                 int         3
  00415DF6: CC                 int         3
  00415DF7: CC                 int         3
  00415DF8: CC                 int         3
  00415DF9: CC                 int         3
  00415DFA: CC                 int         3
  00415DFB: CC                 int         3
  00415DFC: CC                 int         3
  00415DFD: CC                 int         3
  00415DFE: CC                 int         3
  00415DFF: CC                 int         3
  00415E00: CC                 int         3
  00415E01: CC                 int         3
  00415E02: CC                 int         3
  00415E03: CC                 int         3
  00415E04: CC                 int         3
  00415E05: CC                 int         3
  00415E06: CC                 int         3
  00415E07: CC                 int         3
  00415E08: CC                 int         3
  00415E09: CC                 int         3
  00415E0A: CC                 int         3
  00415E0B: CC                 int         3
  00415E0C: CC                 int         3
  00415E0D: CC                 int         3
  00415E0E: CC                 int         3
  00415E0F: CC                 int         3
  00415E10: CC                 int         3
  00415E11: CC                 int         3
  00415E12: CC                 int         3
  00415E13: CC                 int         3
  00415E14: CC                 int         3
  00415E15: CC                 int         3
  00415E16: CC                 int         3
  00415E17: CC                 int         3
  00415E18: CC                 int         3
  00415E19: CC                 int         3
  00415E1A: CC                 int         3
  00415E1B: CC                 int         3
  00415E1C: CC                 int         3
  00415E1D: CC                 int         3
  00415E1E: CC                 int         3
  00415E1F: CC                 int         3
  00415E20: CC                 int         3
  00415E21: CC                 int         3
  00415E22: CC                 int         3
  00415E23: CC                 int         3
  00415E24: CC                 int         3
  00415E25: CC                 int         3
  00415E26: CC                 int         3
  00415E27: CC                 int         3
  00415E28: CC                 int         3
  00415E29: CC                 int         3
  00415E2A: CC                 int         3
  00415E2B: CC                 int         3
  00415E2C: CC                 int         3
  00415E2D: CC                 int         3
  00415E2E: CC                 int         3
  00415E2F: CC                 int         3
  00415E30: CC                 int         3
  00415E31: CC                 int         3
  00415E32: CC                 int         3
  00415E33: CC                 int         3
  00415E34: CC                 int         3
  00415E35: CC                 int         3
  00415E36: CC                 int         3
  00415E37: CC                 int         3
  00415E38: CC                 int         3
  00415E39: CC                 int         3
  00415E3A: CC                 int         3
  00415E3B: CC                 int         3
  00415E3C: CC                 int         3
  00415E3D: CC                 int         3
  00415E3E: CC                 int         3
  00415E3F: CC                 int         3
  00415E40: CC                 int         3
  00415E41: CC                 int         3
  00415E42: CC                 int         3
  00415E43: CC                 int         3
  00415E44: CC                 int         3
  00415E45: CC                 int         3
  00415E46: CC                 int         3
  00415E47: CC                 int         3
  00415E48: CC                 int         3
  00415E49: CC                 int         3
  00415E4A: CC                 int         3
  00415E4B: CC                 int         3
  00415E4C: CC                 int         3
  00415E4D: CC                 int         3
  00415E4E: CC                 int         3
  00415E4F: CC                 int         3
  00415E50: CC                 int         3
  00415E51: CC                 int         3
  00415E52: CC                 int         3
  00415E53: CC                 int         3
  00415E54: CC                 int         3
  00415E55: CC                 int         3
  00415E56: CC                 int         3
  00415E57: CC                 int         3
  00415E58: CC                 int         3
  00415E59: CC                 int         3
  00415E5A: CC                 int         3
  00415E5B: CC                 int         3
  00415E5C: CC                 int         3
  00415E5D: CC                 int         3
  00415E5E: CC                 int         3
  00415E5F: CC                 int         3
  00415E60: CC                 int         3
  00415E61: CC                 int         3
  00415E62: CC                 int         3
  00415E63: CC                 int         3
  00415E64: CC                 int         3
  00415E65: CC                 int         3
  00415E66: CC                 int         3
  00415E67: CC                 int         3
  00415E68: CC                 int         3
  00415E69: CC                 int         3
  00415E6A: CC                 int         3
  00415E6B: CC                 int         3
  00415E6C: CC                 int         3
  00415E6D: CC                 int         3
  00415E6E: CC                 int         3
  00415E6F: CC                 int         3
  00415E70: CC                 int         3
  00415E71: CC                 int         3
  00415E72: CC                 int         3
  00415E73: CC                 int         3
  00415E74: CC                 int         3
  00415E75: CC                 int         3
  00415E76: CC                 int         3
  00415E77: CC                 int         3
  00415E78: CC                 int         3
  00415E79: CC                 int         3
  00415E7A: CC                 int         3
  00415E7B: CC                 int         3
  00415E7C: CC                 int         3
  00415E7D: CC                 int         3
  00415E7E: CC                 int         3
  00415E7F: CC                 int         3
  00415E80: CC                 int         3
  00415E81: CC                 int         3
  00415E82: CC                 int         3
  00415E83: CC                 int         3
  00415E84: CC                 int         3
  00415E85: CC                 int         3
  00415E86: CC                 int         3
  00415E87: CC                 int         3
  00415E88: CC                 int         3
  00415E89: CC                 int         3
  00415E8A: CC                 int         3
  00415E8B: CC                 int         3
  00415E8C: CC                 int         3
  00415E8D: CC                 int         3
  00415E8E: CC                 int         3
  00415E8F: CC                 int         3
  00415E90: CC                 int         3
  00415E91: CC                 int         3
  00415E92: CC                 int         3
  00415E93: CC                 int         3
  00415E94: CC                 int         3
  00415E95: CC                 int         3
  00415E96: CC                 int         3
  00415E97: CC                 int         3
  00415E98: CC                 int         3
  00415E99: CC                 int         3
  00415E9A: CC                 int         3
  00415E9B: CC                 int         3
  00415E9C: CC                 int         3
  00415E9D: CC                 int         3
  00415E9E: CC                 int         3
  00415E9F: CC                 int         3
  00415EA0: CC                 int         3
  00415EA1: CC                 int         3
  00415EA2: CC                 int         3
  00415EA3: CC                 int         3
  00415EA4: CC                 int         3
  00415EA5: CC                 int         3
  00415EA6: CC                 int         3
  00415EA7: CC                 int         3
  00415EA8: CC                 int         3
  00415EA9: CC                 int         3
  00415EAA: CC                 int         3
  00415EAB: CC                 int         3
  00415EAC: CC                 int         3
  00415EAD: CC                 int         3
  00415EAE: CC                 int         3
  00415EAF: CC                 int         3
  00415EB0: CC                 int         3
  00415EB1: CC                 int         3
  00415EB2: CC                 int         3
  00415EB3: CC                 int         3
  00415EB4: CC                 int         3
  00415EB5: CC                 int         3
  00415EB6: CC                 int         3
  00415EB7: CC                 int         3
  00415EB8: CC                 int         3
  00415EB9: CC                 int         3
  00415EBA: CC                 int         3
  00415EBB: CC                 int         3
  00415EBC: CC                 int         3
  00415EBD: CC                 int         3
  00415EBE: CC                 int         3
  00415EBF: CC                 int         3
  00415EC0: CC                 int         3
  00415EC1: CC                 int         3
  00415EC2: CC                 int         3
  00415EC3: CC                 int         3
  00415EC4: CC                 int         3
  00415EC5: CC                 int         3
  00415EC6: CC                 int         3
  00415EC7: CC                 int         3
  00415EC8: CC                 int         3
  00415EC9: CC                 int         3
  00415ECA: CC                 int         3
  00415ECB: CC                 int         3
  00415ECC: CC                 int         3
  00415ECD: CC                 int         3
  00415ECE: CC                 int         3
  00415ECF: CC                 int         3
  00415ED0: CC                 int         3
  00415ED1: CC                 int         3
  00415ED2: CC                 int         3
  00415ED3: CC                 int         3
  00415ED4: CC                 int         3
  00415ED5: CC                 int         3
  00415ED6: CC                 int         3
  00415ED7: CC                 int         3
  00415ED8: CC                 int         3
  00415ED9: CC                 int         3
  00415EDA: CC                 int         3
  00415EDB: CC                 int         3
  00415EDC: CC                 int         3
  00415EDD: CC                 int         3
  00415EDE: CC                 int         3
  00415EDF: CC                 int         3
  00415EE0: CC                 int         3
  00415EE1: CC                 int         3
  00415EE2: CC                 int         3
  00415EE3: CC                 int         3
  00415EE4: CC                 int         3
  00415EE5: CC                 int         3
  00415EE6: CC                 int         3
  00415EE7: CC                 int         3
  00415EE8: CC                 int         3
  00415EE9: CC                 int         3
  00415EEA: CC                 int         3
  00415EEB: CC                 int         3
  00415EEC: CC                 int         3
  00415EED: CC                 int         3
  00415EEE: CC                 int         3
  00415EEF: CC                 int         3
  00415EF0: CC                 int         3
  00415EF1: CC                 int         3
  00415EF2: CC                 int         3
  00415EF3: CC                 int         3
  00415EF4: CC                 int         3
  00415EF5: CC                 int         3
  00415EF6: CC                 int         3
  00415EF7: CC                 int         3
  00415EF8: CC                 int         3
  00415EF9: CC                 int         3
  00415EFA: CC                 int         3
  00415EFB: CC                 int         3
  00415EFC: CC                 int         3
  00415EFD: CC                 int         3
  00415EFE: CC                 int         3
  00415EFF: CC                 int         3
  00415F00: CC                 int         3
  00415F01: CC                 int         3
  00415F02: CC                 int         3
  00415F03: CC                 int         3
  00415F04: CC                 int         3
  00415F05: CC                 int         3
  00415F06: CC                 int         3
  00415F07: CC                 int         3
  00415F08: CC                 int         3
  00415F09: CC                 int         3
  00415F0A: CC                 int         3
  00415F0B: CC                 int         3
  00415F0C: CC                 int         3
  00415F0D: CC                 int         3
  00415F0E: CC                 int         3
  00415F0F: CC                 int         3
  00415F10: CC                 int         3
  00415F11: CC                 int         3
  00415F12: CC                 int         3
  00415F13: CC                 int         3
  00415F14: CC                 int         3
  00415F15: CC                 int         3
  00415F16: CC                 int         3
  00415F17: CC                 int         3
  00415F18: CC                 int         3
  00415F19: CC                 int         3
  00415F1A: CC                 int         3
  00415F1B: CC                 int         3
  00415F1C: CC                 int         3
  00415F1D: CC                 int         3
  00415F1E: CC                 int         3
  00415F1F: CC                 int         3
  00415F20: CC                 int         3
  00415F21: CC                 int         3
  00415F22: CC                 int         3
  00415F23: CC                 int         3
  00415F24: CC                 int         3
  00415F25: CC                 int         3
  00415F26: CC                 int         3
  00415F27: CC                 int         3
  00415F28: CC                 int         3
  00415F29: CC                 int         3
  00415F2A: CC                 int         3
  00415F2B: CC                 int         3
  00415F2C: CC                 int         3
  00415F2D: CC                 int         3
  00415F2E: CC                 int         3
  00415F2F: CC                 int         3
  00415F30: CC                 int         3
  00415F31: CC                 int         3
  00415F32: CC                 int         3
  00415F33: CC                 int         3
  00415F34: CC                 int         3
  00415F35: CC                 int         3
  00415F36: CC                 int         3
  00415F37: CC                 int         3
  00415F38: CC                 int         3
  00415F39: CC                 int         3
  00415F3A: CC                 int         3
  00415F3B: CC                 int         3
  00415F3C: CC                 int         3
  00415F3D: CC                 int         3
  00415F3E: CC                 int         3
  00415F3F: CC                 int         3
  00415F40: CC                 int         3
  00415F41: CC                 int         3
  00415F42: CC                 int         3
  00415F43: CC                 int         3
  00415F44: CC                 int         3
  00415F45: CC                 int         3
  00415F46: CC                 int         3
  00415F47: CC                 int         3
  00415F48: CC                 int         3
  00415F49: CC                 int         3
  00415F4A: CC                 int         3
  00415F4B: CC                 int         3
  00415F4C: CC                 int         3
  00415F4D: CC                 int         3
  00415F4E: CC                 int         3
  00415F4F: CC                 int         3
  00415F50: CC                 int         3
  00415F51: CC                 int         3
  00415F52: CC                 int         3
  00415F53: CC                 int         3
  00415F54: CC                 int         3
  00415F55: CC                 int         3
  00415F56: CC                 int         3
  00415F57: CC                 int         3
  00415F58: CC                 int         3
  00415F59: CC                 int         3
  00415F5A: CC                 int         3
  00415F5B: CC                 int         3
  00415F5C: CC                 int         3
  00415F5D: CC                 int         3
  00415F5E: CC                 int         3
  00415F5F: CC                 int         3
  00415F60: CC                 int         3
  00415F61: CC                 int         3
  00415F62: CC                 int         3
  00415F63: CC                 int         3
  00415F64: CC                 int         3
  00415F65: CC                 int         3
  00415F66: CC                 int         3
  00415F67: CC                 int         3
  00415F68: CC                 int         3
  00415F69: CC                 int         3
  00415F6A: CC                 int         3
  00415F6B: CC                 int         3
  00415F6C: CC                 int         3
  00415F6D: CC                 int         3
  00415F6E: CC                 int         3
  00415F6F: CC                 int         3
  00415F70: CC                 int         3
  00415F71: CC                 int         3
  00415F72: CC                 int         3
  00415F73: CC                 int         3
  00415F74: CC                 int         3
  00415F75: CC                 int         3
  00415F76: CC                 int         3
  00415F77: CC                 int         3
  00415F78: CC                 int         3
  00415F79: CC                 int         3
  00415F7A: CC                 int         3
  00415F7B: CC                 int         3
  00415F7C: CC                 int         3
  00415F7D: CC                 int         3
  00415F7E: CC                 int         3
  00415F7F: CC                 int         3
  00415F80: CC                 int         3
  00415F81: CC                 int         3
  00415F82: CC                 int         3
  00415F83: CC                 int         3
  00415F84: CC                 int         3
  00415F85: CC                 int         3
  00415F86: CC                 int         3
  00415F87: CC                 int         3
  00415F88: CC                 int         3
  00415F89: CC                 int         3
  00415F8A: CC                 int         3
  00415F8B: CC                 int         3
  00415F8C: CC                 int         3
  00415F8D: CC                 int         3
  00415F8E: CC                 int         3
  00415F8F: CC                 int         3
  00415F90: CC                 int         3
  00415F91: CC                 int         3
  00415F92: CC                 int         3
  00415F93: CC                 int         3
  00415F94: CC                 int         3
  00415F95: CC                 int         3
  00415F96: CC                 int         3
  00415F97: CC                 int         3
  00415F98: CC                 int         3
  00415F99: CC                 int         3
  00415F9A: CC                 int         3
  00415F9B: CC                 int         3
  00415F9C: CC                 int         3
  00415F9D: CC                 int         3
  00415F9E: CC                 int         3
  00415F9F: CC                 int         3
  00415FA0: CC                 int         3
  00415FA1: CC                 int         3
  00415FA2: CC                 int         3
  00415FA3: CC                 int         3
  00415FA4: CC                 int         3
  00415FA5: CC                 int         3
  00415FA6: CC                 int         3
  00415FA7: CC                 int         3
  00415FA8: CC                 int         3
  00415FA9: CC                 int         3
  00415FAA: CC                 int         3
  00415FAB: CC                 int         3
  00415FAC: CC                 int         3
  00415FAD: CC                 int         3
  00415FAE: CC                 int         3
  00415FAF: CC                 int         3
  00415FB0: CC                 int         3
  00415FB1: CC                 int         3
  00415FB2: CC                 int         3
  00415FB3: CC                 int         3
  00415FB4: CC                 int         3
  00415FB5: CC                 int         3
  00415FB6: CC                 int         3
  00415FB7: CC                 int         3
  00415FB8: CC                 int         3
  00415FB9: CC                 int         3
  00415FBA: CC                 int         3
  00415FBB: CC                 int         3
  00415FBC: CC                 int         3
  00415FBD: CC                 int         3
  00415FBE: CC                 int         3
  00415FBF: CC                 int         3
  00415FC0: CC                 int         3
  00415FC1: CC                 int         3
  00415FC2: CC                 int         3
  00415FC3: CC                 int         3
  00415FC4: CC                 int         3
  00415FC5: CC                 int         3
  00415FC6: CC                 int         3
  00415FC7: CC                 int         3
  00415FC8: CC                 int         3
  00415FC9: CC                 int         3
  00415FCA: CC                 int         3
  00415FCB: CC                 int         3
  00415FCC: CC                 int         3
  00415FCD: CC                 int         3
  00415FCE: CC                 int         3
  00415FCF: CC                 int         3
  00415FD0: CC                 int         3
  00415FD1: CC                 int         3
  00415FD2: CC                 int         3
  00415FD3: CC                 int         3
  00415FD4: CC                 int         3
  00415FD5: CC                 int         3
  00415FD6: CC                 int         3
  00415FD7: CC                 int         3
  00415FD8: CC                 int         3
  00415FD9: CC                 int         3
  00415FDA: CC                 int         3
  00415FDB: CC                 int         3
  00415FDC: CC                 int         3
  00415FDD: CC                 int         3
  00415FDE: CC                 int         3
  00415FDF: CC                 int         3
  00415FE0: CC                 int         3
  00415FE1: CC                 int         3
  00415FE2: CC                 int         3
  00415FE3: CC                 int         3
  00415FE4: CC                 int         3
  00415FE5: CC                 int         3
  00415FE6: CC                 int         3
  00415FE7: CC                 int         3
  00415FE8: CC                 int         3
  00415FE9: CC                 int         3
  00415FEA: CC                 int         3
  00415FEB: CC                 int         3
  00415FEC: CC                 int         3
  00415FED: CC                 int         3
  00415FEE: CC                 int         3
  00415FEF: CC                 int         3
  00415FF0: CC                 int         3
  00415FF1: CC                 int         3
  00415FF2: CC                 int         3
  00415FF3: CC                 int         3
  00415FF4: CC                 int         3
  00415FF5: CC                 int         3
  00415FF6: CC                 int         3
  00415FF7: CC                 int         3
  00415FF8: CC                 int         3
  00415FF9: CC                 int         3
  00415FFA: CC                 int         3
  00415FFB: CC                 int         3
  00415FFC: CC                 int         3
  00415FFD: CC                 int         3
  00415FFE: CC                 int         3
  00415FFF: CC                 int         3
  00416000: CC                 int         3
  00416001: CC                 int         3
  00416002: CC                 int         3
  00416003: CC                 int         3
  00416004: CC                 int         3
  00416005: CC                 int         3
  00416006: CC                 int         3
  00416007: CC                 int         3
  00416008: CC                 int         3
  00416009: CC                 int         3
  0041600A: CC                 int         3
  0041600B: CC                 int         3
  0041600C: CC                 int         3
  0041600D: CC                 int         3
  0041600E: CC                 int         3
  0041600F: CC                 int         3
  00416010: CC                 int         3
  00416011: CC                 int         3
  00416012: CC                 int         3
  00416013: CC                 int         3
  00416014: CC                 int         3
  00416015: CC                 int         3
  00416016: CC                 int         3
  00416017: CC                 int         3
  00416018: CC                 int         3
  00416019: CC                 int         3
  0041601A: CC                 int         3
  0041601B: CC                 int         3
  0041601C: CC                 int         3
  0041601D: CC                 int         3
  0041601E: CC                 int         3
  0041601F: CC                 int         3
  00416020: CC                 int         3
  00416021: CC                 int         3
  00416022: CC                 int         3
  00416023: CC                 int         3
  00416024: CC                 int         3
  00416025: CC                 int         3
  00416026: CC                 int         3
  00416027: CC                 int         3
  00416028: CC                 int         3
  00416029: CC                 int         3
  0041602A: CC                 int         3
  0041602B: CC                 int         3
  0041602C: CC                 int         3
  0041602D: CC                 int         3
  0041602E: CC                 int         3
  0041602F: CC                 int         3
  00416030: CC                 int         3
  00416031: CC                 int         3
  00416032: CC                 int         3
  00416033: CC                 int         3
  00416034: CC                 int         3
  00416035: CC                 int         3
  00416036: CC                 int         3
  00416037: CC                 int         3
  00416038: CC                 int         3
  00416039: CC                 int         3
  0041603A: CC                 int         3
  0041603B: CC                 int         3
  0041603C: CC                 int         3
  0041603D: CC                 int         3
  0041603E: CC                 int         3
  0041603F: CC                 int         3
  00416040: CC                 int         3
  00416041: CC                 int         3
  00416042: CC                 int         3
  00416043: CC                 int         3
  00416044: CC                 int         3
  00416045: CC                 int         3
  00416046: CC                 int         3
  00416047: CC                 int         3
  00416048: CC                 int         3
  00416049: CC                 int         3
  0041604A: CC                 int         3
  0041604B: CC                 int         3
  0041604C: CC                 int         3
  0041604D: CC                 int         3
  0041604E: CC                 int         3
  0041604F: CC                 int         3
  00416050: CC                 int         3
  00416051: CC                 int         3
  00416052: CC                 int         3
  00416053: CC                 int         3
  00416054: CC                 int         3
  00416055: CC                 int         3
  00416056: CC                 int         3
  00416057: CC                 int         3
  00416058: CC                 int         3
  00416059: CC                 int         3
  0041605A: CC                 int         3
  0041605B: CC                 int         3
  0041605C: CC                 int         3
  0041605D: CC                 int         3
  0041605E: CC                 int         3
  0041605F: CC                 int         3
  00416060: CC                 int         3
  00416061: CC                 int         3
  00416062: CC                 int         3
  00416063: CC                 int         3
  00416064: CC                 int         3
  00416065: CC                 int         3
  00416066: CC                 int         3
  00416067: CC                 int         3
  00416068: CC                 int         3
  00416069: CC                 int         3
  0041606A: CC                 int         3
  0041606B: CC                 int         3
  0041606C: CC                 int         3
  0041606D: CC                 int         3
  0041606E: CC                 int         3
  0041606F: CC                 int         3
  00416070: CC                 int         3
  00416071: CC                 int         3
  00416072: CC                 int         3
  00416073: CC                 int         3
  00416074: CC                 int         3
  00416075: CC                 int         3
  00416076: CC                 int         3
  00416077: CC                 int         3
  00416078: CC                 int         3
  00416079: CC                 int         3
  0041607A: CC                 int         3
  0041607B: CC                 int         3
  0041607C: CC                 int         3
  0041607D: CC                 int         3
  0041607E: CC                 int         3
  0041607F: CC                 int         3
  00416080: CC                 int         3
  00416081: CC                 int         3
  00416082: CC                 int         3
  00416083: CC                 int         3
  00416084: CC                 int         3
  00416085: CC                 int         3
  00416086: CC                 int         3
  00416087: CC                 int         3
  00416088: CC                 int         3
  00416089: CC                 int         3
  0041608A: CC                 int         3
  0041608B: CC                 int         3
  0041608C: CC                 int         3
  0041608D: CC                 int         3
  0041608E: CC                 int         3
  0041608F: CC                 int         3
  00416090: CC                 int         3
  00416091: CC                 int         3
  00416092: CC                 int         3
  00416093: CC                 int         3
  00416094: CC                 int         3
  00416095: CC                 int         3
  00416096: CC                 int         3
  00416097: CC                 int         3
  00416098: CC                 int         3
  00416099: CC                 int         3
  0041609A: CC                 int         3
  0041609B: CC                 int         3
  0041609C: CC                 int         3
  0041609D: CC                 int         3
  0041609E: CC                 int         3
  0041609F: CC                 int         3
  004160A0: CC                 int         3
  004160A1: CC                 int         3
  004160A2: CC                 int         3
  004160A3: CC                 int         3
  004160A4: CC                 int         3
  004160A5: CC                 int         3
  004160A6: CC                 int         3
  004160A7: CC                 int         3
  004160A8: CC                 int         3
  004160A9: CC                 int         3
  004160AA: CC                 int         3
  004160AB: CC                 int         3
  004160AC: CC                 int         3
  004160AD: CC                 int         3
  004160AE: CC                 int         3
  004160AF: CC                 int         3
  004160B0: CC                 int         3
  004160B1: CC                 int         3
  004160B2: CC                 int         3
  004160B3: CC                 int         3
  004160B4: CC                 int         3
  004160B5: CC                 int         3
  004160B6: CC                 int         3
  004160B7: CC                 int         3
  004160B8: CC                 int         3
  004160B9: CC                 int         3
  004160BA: CC                 int         3
  004160BB: CC                 int         3
  004160BC: CC                 int         3
  004160BD: CC                 int         3
  004160BE: CC                 int         3
  004160BF: CC                 int         3
  004160C0: CC                 int         3
  004160C1: CC                 int         3
  004160C2: CC                 int         3
  004160C3: CC                 int         3
  004160C4: CC                 int         3
  004160C5: CC                 int         3
  004160C6: CC                 int         3
  004160C7: CC                 int         3
  004160C8: CC                 int         3
  004160C9: CC                 int         3
  004160CA: CC                 int         3
  004160CB: CC                 int         3
  004160CC: CC                 int         3
  004160CD: CC                 int         3
  004160CE: CC                 int         3
  004160CF: CC                 int         3
  004160D0: CC                 int         3
  004160D1: CC                 int         3
  004160D2: CC                 int         3
  004160D3: CC                 int         3
  004160D4: CC                 int         3
  004160D5: CC                 int         3
  004160D6: CC                 int         3
  004160D7: CC                 int         3
  004160D8: CC                 int         3
  004160D9: CC                 int         3
  004160DA: CC                 int         3
  004160DB: CC                 int         3
  004160DC: CC                 int         3
  004160DD: CC                 int         3
  004160DE: CC                 int         3
  004160DF: CC                 int         3
  004160E0: CC                 int         3
  004160E1: CC                 int         3
  004160E2: CC                 int         3
  004160E3: CC                 int         3
  004160E4: CC                 int         3
  004160E5: CC                 int         3
  004160E6: CC                 int         3
  004160E7: CC                 int         3
  004160E8: CC                 int         3
  004160E9: CC                 int         3
  004160EA: CC                 int         3
  004160EB: CC                 int         3
  004160EC: CC                 int         3
  004160ED: CC                 int         3
  004160EE: CC                 int         3
  004160EF: CC                 int         3
  004160F0: CC                 int         3
  004160F1: CC                 int         3
  004160F2: CC                 int         3
  004160F3: CC                 int         3
  004160F4: CC                 int         3
  004160F5: CC                 int         3
  004160F6: CC                 int         3
  004160F7: CC                 int         3
  004160F8: CC                 int         3
  004160F9: CC                 int         3
  004160FA: CC                 int         3
  004160FB: CC                 int         3
  004160FC: CC                 int         3
  004160FD: CC                 int         3
  004160FE: CC                 int         3
  004160FF: CC                 int         3
  00416100: CC                 int         3
  00416101: CC                 int         3
  00416102: CC                 int         3
  00416103: CC                 int         3
  00416104: CC                 int         3
  00416105: CC                 int         3
  00416106: CC                 int         3
  00416107: CC                 int         3
  00416108: CC                 int         3
  00416109: CC                 int         3
  0041610A: CC                 int         3
  0041610B: CC                 int         3
  0041610C: CC                 int         3
  0041610D: CC                 int         3
  0041610E: CC                 int         3
  0041610F: CC                 int         3
  00416110: CC                 int         3
  00416111: CC                 int         3
  00416112: CC                 int         3
  00416113: CC                 int         3
  00416114: CC                 int         3
  00416115: CC                 int         3
  00416116: CC                 int         3
  00416117: CC                 int         3
  00416118: CC                 int         3
  00416119: CC                 int         3
  0041611A: CC                 int         3
  0041611B: CC                 int         3
  0041611C: CC                 int         3
  0041611D: CC                 int         3
  0041611E: CC                 int         3
  0041611F: CC                 int         3
  00416120: CC                 int         3
  00416121: CC                 int         3
  00416122: CC                 int         3
  00416123: CC                 int         3
  00416124: CC                 int         3
  00416125: CC                 int         3
  00416126: CC                 int         3
  00416127: CC                 int         3
  00416128: CC                 int         3
  00416129: CC                 int         3
  0041612A: CC                 int         3
  0041612B: CC                 int         3
  0041612C: CC                 int         3
  0041612D: CC                 int         3
  0041612E: CC                 int         3
  0041612F: CC                 int         3
  00416130: CC                 int         3
  00416131: CC                 int         3
  00416132: CC                 int         3
  00416133: CC                 int         3
  00416134: CC                 int         3
  00416135: CC                 int         3
  00416136: CC                 int         3
  00416137: CC                 int         3
  00416138: CC                 int         3
  00416139: CC                 int         3
  0041613A: CC                 int         3
  0041613B: CC                 int         3
  0041613C: CC                 int         3
  0041613D: CC                 int         3
  0041613E: CC                 int         3
  0041613F: CC                 int         3
  00416140: CC                 int         3
  00416141: CC                 int         3
  00416142: CC                 int         3
  00416143: CC                 int         3
  00416144: CC                 int         3
  00416145: CC                 int         3
  00416146: CC                 int         3
  00416147: CC                 int         3
  00416148: CC                 int         3
  00416149: CC                 int         3
  0041614A: CC                 int         3
  0041614B: CC                 int         3
  0041614C: CC                 int         3
  0041614D: CC                 int         3
  0041614E: CC                 int         3
  0041614F: CC                 int         3
  00416150: CC                 int         3
  00416151: CC                 int         3
  00416152: CC                 int         3
  00416153: CC                 int         3
  00416154: CC                 int         3
  00416155: CC                 int         3
  00416156: CC                 int         3
  00416157: CC                 int         3
  00416158: CC                 int         3
  00416159: CC                 int         3
  0041615A: CC                 int         3
  0041615B: CC                 int         3
  0041615C: CC                 int         3
  0041615D: CC                 int         3
  0041615E: CC                 int         3
  0041615F: CC                 int         3
  00416160: CC                 int         3
  00416161: CC                 int         3
  00416162: CC                 int         3
  00416163: CC                 int         3
  00416164: CC                 int         3
  00416165: CC                 int         3
  00416166: CC                 int         3
  00416167: CC                 int         3
  00416168: CC                 int         3
  00416169: CC                 int         3
  0041616A: CC                 int         3
  0041616B: CC                 int         3
  0041616C: CC                 int         3
  0041616D: CC                 int         3
  0041616E: CC                 int         3
  0041616F: CC                 int         3
  00416170: CC                 int         3
  00416171: CC                 int         3
  00416172: CC                 int         3
  00416173: CC                 int         3
  00416174: CC                 int         3
  00416175: CC                 int         3
  00416176: CC                 int         3
  00416177: CC                 int         3
  00416178: CC                 int         3
  00416179: CC                 int         3
  0041617A: CC                 int         3
  0041617B: CC                 int         3
  0041617C: CC                 int         3
  0041617D: CC                 int         3
  0041617E: CC                 int         3
  0041617F: CC                 int         3
  00416180: CC                 int         3
  00416181: CC                 int         3
  00416182: CC                 int         3
  00416183: CC                 int         3
  00416184: CC                 int         3
  00416185: CC                 int         3
  00416186: CC                 int         3
  00416187: CC                 int         3
  00416188: CC                 int         3
  00416189: CC                 int         3
  0041618A: CC                 int         3
  0041618B: CC                 int         3
  0041618C: CC                 int         3
  0041618D: CC                 int         3
  0041618E: CC                 int         3
  0041618F: CC                 int         3
  00416190: CC                 int         3
  00416191: CC                 int         3
  00416192: CC                 int         3
  00416193: CC                 int         3
  00416194: CC                 int         3
  00416195: CC                 int         3
  00416196: CC                 int         3
  00416197: CC                 int         3
  00416198: CC                 int         3
  00416199: CC                 int         3
  0041619A: CC                 int         3
  0041619B: CC                 int         3
  0041619C: CC                 int         3
  0041619D: CC                 int         3
  0041619E: CC                 int         3
  0041619F: CC                 int         3
  004161A0: CC                 int         3
  004161A1: CC                 int         3
  004161A2: CC                 int         3
  004161A3: CC                 int         3
  004161A4: CC                 int         3
  004161A5: CC                 int         3
  004161A6: CC                 int         3
  004161A7: CC                 int         3
  004161A8: CC                 int         3
  004161A9: CC                 int         3
  004161AA: CC                 int         3
  004161AB: CC                 int         3
  004161AC: CC                 int         3
  004161AD: CC                 int         3
  004161AE: CC                 int         3
  004161AF: CC                 int         3
  004161B0: CC                 int         3
  004161B1: CC                 int         3
  004161B2: CC                 int         3
  004161B3: CC                 int         3
  004161B4: CC                 int         3
  004161B5: CC                 int         3
  004161B6: CC                 int         3
  004161B7: CC                 int         3
  004161B8: CC                 int         3
  004161B9: CC                 int         3
  004161BA: CC                 int         3
  004161BB: CC                 int         3
  004161BC: CC                 int         3
  004161BD: CC                 int         3
  004161BE: CC                 int         3
  004161BF: CC                 int         3
  004161C0: CC                 int         3
  004161C1: CC                 int         3
  004161C2: CC                 int         3
  004161C3: CC                 int         3
  004161C4: CC                 int         3
  004161C5: CC                 int         3
  004161C6: CC                 int         3
  004161C7: CC                 int         3
  004161C8: CC                 int         3
  004161C9: CC                 int         3
  004161CA: CC                 int         3
  004161CB: CC                 int         3
  004161CC: CC                 int         3
  004161CD: CC                 int         3
  004161CE: CC                 int         3
  004161CF: CC                 int         3
  004161D0: CC                 int         3
  004161D1: CC                 int         3
  004161D2: CC                 int         3
  004161D3: CC                 int         3
  004161D4: CC                 int         3
  004161D5: CC                 int         3
  004161D6: CC                 int         3
  004161D7: CC                 int         3
  004161D8: CC                 int         3
  004161D9: CC                 int         3
  004161DA: CC                 int         3
  004161DB: CC                 int         3
  004161DC: CC                 int         3
  004161DD: CC                 int         3
  004161DE: CC                 int         3
  004161DF: CC                 int         3
  004161E0: CC                 int         3
  004161E1: CC                 int         3
  004161E2: CC                 int         3
  004161E3: CC                 int         3
  004161E4: CC                 int         3
  004161E5: CC                 int         3
  004161E6: CC                 int         3
  004161E7: CC                 int         3
  004161E8: CC                 int         3
  004161E9: CC                 int         3
  004161EA: CC                 int         3
  004161EB: CC                 int         3
  004161EC: CC                 int         3
  004161ED: CC                 int         3
  004161EE: CC                 int         3
  004161EF: CC                 int         3
  004161F0: CC                 int         3
  004161F1: CC                 int         3
  004161F2: CC                 int         3
  004161F3: CC                 int         3
  004161F4: CC                 int         3
  004161F5: CC                 int         3
  004161F6: CC                 int         3
  004161F7: CC                 int         3
  004161F8: CC                 int         3
  004161F9: CC                 int         3
  004161FA: CC                 int         3
  004161FB: CC                 int         3
  004161FC: CC                 int         3
  004161FD: CC                 int         3
  004161FE: CC                 int         3
  004161FF: CC                 int         3
  00416200: CC                 int         3
  00416201: CC                 int         3
  00416202: CC                 int         3
  00416203: CC                 int         3
  00416204: CC                 int         3
  00416205: CC                 int         3
  00416206: CC                 int         3
  00416207: CC                 int         3
  00416208: CC                 int         3
  00416209: CC                 int         3
  0041620A: CC                 int         3
  0041620B: CC                 int         3
  0041620C: CC                 int         3
  0041620D: CC                 int         3
  0041620E: CC                 int         3
  0041620F: CC                 int         3
  00416210: CC                 int         3
  00416211: CC                 int         3
  00416212: CC                 int         3
  00416213: CC                 int         3
  00416214: CC                 int         3
  00416215: CC                 int         3
  00416216: CC                 int         3
  00416217: CC                 int         3
  00416218: CC                 int         3
  00416219: CC                 int         3
  0041621A: CC                 int         3
  0041621B: CC                 int         3
  0041621C: CC                 int         3
  0041621D: CC                 int         3
  0041621E: CC                 int         3
  0041621F: CC                 int         3
  00416220: CC                 int         3
  00416221: CC                 int         3
  00416222: CC                 int         3
  00416223: CC                 int         3
  00416224: CC                 int         3
  00416225: CC                 int         3
  00416226: CC                 int         3
  00416227: CC                 int         3
  00416228: CC                 int         3
  00416229: CC                 int         3
  0041622A: CC                 int         3
  0041622B: CC                 int         3
  0041622C: CC                 int         3
  0041622D: CC                 int         3
  0041622E: CC                 int         3
  0041622F: CC                 int         3
  00416230: CC                 int         3
  00416231: CC                 int         3
  00416232: CC                 int         3
  00416233: CC                 int         3
  00416234: CC                 int         3
  00416235: CC                 int         3
  00416236: CC                 int         3
  00416237: CC                 int         3
  00416238: CC                 int         3
  00416239: CC                 int         3
  0041623A: CC                 int         3
  0041623B: CC                 int         3
  0041623C: CC                 int         3
  0041623D: CC                 int         3
  0041623E: CC                 int         3
  0041623F: CC                 int         3
  00416240: CC                 int         3
  00416241: CC                 int         3
  00416242: CC                 int         3
  00416243: CC                 int         3
  00416244: CC                 int         3
  00416245: CC                 int         3
  00416246: CC                 int         3
  00416247: CC                 int         3
  00416248: CC                 int         3
  00416249: CC                 int         3
  0041624A: CC                 int         3
  0041624B: CC                 int         3
  0041624C: CC                 int         3
  0041624D: CC                 int         3
  0041624E: CC                 int         3
  0041624F: CC                 int         3
  00416250: CC                 int         3
  00416251: CC                 int         3
  00416252: CC                 int         3
  00416253: CC                 int         3
  00416254: CC                 int         3
  00416255: CC                 int         3
  00416256: CC                 int         3
  00416257: CC                 int         3
  00416258: CC                 int         3
  00416259: CC                 int         3
  0041625A: CC                 int         3
  0041625B: CC                 int         3
  0041625C: CC                 int         3
  0041625D: CC                 int         3
  0041625E: CC                 int         3
  0041625F: CC                 int         3
  00416260: CC                 int         3
  00416261: CC                 int         3
  00416262: CC                 int         3
  00416263: CC                 int         3
  00416264: CC                 int         3
  00416265: CC                 int         3
  00416266: CC                 int         3
  00416267: CC                 int         3
  00416268: CC                 int         3
  00416269: CC                 int         3
  0041626A: CC                 int         3
  0041626B: CC                 int         3
  0041626C: CC                 int         3
  0041626D: CC                 int         3
  0041626E: CC                 int         3
  0041626F: CC                 int         3
  00416270: CC                 int         3
  00416271: CC                 int         3
  00416272: CC                 int         3
  00416273: CC                 int         3
  00416274: CC                 int         3
  00416275: CC                 int         3
  00416276: CC                 int         3
  00416277: CC                 int         3
  00416278: CC                 int         3
  00416279: CC                 int         3
  0041627A: CC                 int         3
  0041627B: CC                 int         3
  0041627C: CC                 int         3
  0041627D: CC                 int         3
  0041627E: CC                 int         3
  0041627F: CC                 int         3
  00416280: CC                 int         3
  00416281: CC                 int         3
  00416282: CC                 int         3
  00416283: CC                 int         3
  00416284: CC                 int         3
  00416285: CC                 int         3
  00416286: CC                 int         3
  00416287: CC                 int         3
  00416288: CC                 int         3
  00416289: CC                 int         3
  0041628A: CC                 int         3
  0041628B: CC                 int         3
  0041628C: CC                 int         3
  0041628D: CC                 int         3
  0041628E: CC                 int         3
  0041628F: CC                 int         3
  00416290: CC                 int         3
  00416291: CC                 int         3
  00416292: CC                 int         3
  00416293: CC                 int         3
  00416294: CC                 int         3
  00416295: CC                 int         3
  00416296: CC                 int         3
  00416297: CC                 int         3
  00416298: CC                 int         3
  00416299: CC                 int         3
  0041629A: CC                 int         3
  0041629B: CC                 int         3
  0041629C: CC                 int         3
  0041629D: CC                 int         3
  0041629E: CC                 int         3
  0041629F: CC                 int         3
  004162A0: CC                 int         3
  004162A1: CC                 int         3
  004162A2: CC                 int         3
  004162A3: CC                 int         3
  004162A4: CC                 int         3
  004162A5: CC                 int         3
  004162A6: CC                 int         3
  004162A7: CC                 int         3
  004162A8: CC                 int         3
  004162A9: CC                 int         3
  004162AA: CC                 int         3
  004162AB: CC                 int         3
  004162AC: CC                 int         3
  004162AD: CC                 int         3
  004162AE: CC                 int         3
  004162AF: CC                 int         3
  004162B0: CC                 int         3
  004162B1: CC                 int         3
  004162B2: CC                 int         3
  004162B3: CC                 int         3
  004162B4: CC                 int         3
  004162B5: CC                 int         3
  004162B6: CC                 int         3
  004162B7: CC                 int         3
  004162B8: CC                 int         3
  004162B9: CC                 int         3
  004162BA: CC                 int         3
  004162BB: CC                 int         3
  004162BC: CC                 int         3
  004162BD: CC                 int         3
  004162BE: CC                 int         3
  004162BF: CC                 int         3
  004162C0: CC                 int         3
  004162C1: CC                 int         3
  004162C2: CC                 int         3
  004162C3: CC                 int         3
  004162C4: CC                 int         3
  004162C5: CC                 int         3
  004162C6: CC                 int         3
  004162C7: CC                 int         3
  004162C8: CC                 int         3
  004162C9: CC                 int         3
  004162CA: CC                 int         3
  004162CB: CC                 int         3
  004162CC: CC                 int         3
  004162CD: CC                 int         3
  004162CE: CC                 int         3
  004162CF: CC                 int         3
  004162D0: CC                 int         3
  004162D1: CC                 int         3
  004162D2: CC                 int         3
  004162D3: CC                 int         3
  004162D4: CC                 int         3
  004162D5: CC                 int         3
  004162D6: CC                 int         3
  004162D7: CC                 int         3
  004162D8: CC                 int         3
  004162D9: CC                 int         3
  004162DA: CC                 int         3
  004162DB: CC                 int         3
  004162DC: CC                 int         3
  004162DD: CC                 int         3
  004162DE: CC                 int         3
  004162DF: CC                 int         3
  004162E0: CC                 int         3
  004162E1: CC                 int         3
  004162E2: CC                 int         3
  004162E3: CC                 int         3
  004162E4: CC                 int         3
  004162E5: CC                 int         3
  004162E6: CC                 int         3
  004162E7: CC                 int         3
  004162E8: CC                 int         3
  004162E9: CC                 int         3
  004162EA: CC                 int         3
  004162EB: CC                 int         3
  004162EC: CC                 int         3
  004162ED: CC                 int         3
  004162EE: CC                 int         3
  004162EF: CC                 int         3
  004162F0: CC                 int         3
  004162F1: CC                 int         3
  004162F2: CC                 int         3
  004162F3: CC                 int         3
  004162F4: CC                 int         3
  004162F5: CC                 int         3
  004162F6: CC                 int         3
  004162F7: CC                 int         3
  004162F8: CC                 int         3
  004162F9: CC                 int         3
  004162FA: CC                 int         3
  004162FB: CC                 int         3
  004162FC: CC                 int         3
  004162FD: CC                 int         3
  004162FE: CC                 int         3
  004162FF: CC                 int         3
  00416300: CC                 int         3
  00416301: CC                 int         3
  00416302: CC                 int         3
  00416303: CC                 int         3
  00416304: CC                 int         3
  00416305: CC                 int         3
  00416306: CC                 int         3
  00416307: CC                 int         3
  00416308: CC                 int         3
  00416309: CC                 int         3
  0041630A: CC                 int         3
  0041630B: CC                 int         3
  0041630C: CC                 int         3
  0041630D: CC                 int         3
  0041630E: CC                 int         3
  0041630F: CC                 int         3
  00416310: CC                 int         3
  00416311: CC                 int         3
  00416312: CC                 int         3
  00416313: CC                 int         3
  00416314: CC                 int         3
  00416315: CC                 int         3
  00416316: CC                 int         3
  00416317: CC                 int         3
  00416318: CC                 int         3
  00416319: CC                 int         3
  0041631A: CC                 int         3
  0041631B: CC                 int         3
  0041631C: CC                 int         3
  0041631D: CC                 int         3
  0041631E: CC                 int         3
  0041631F: CC                 int         3
  00416320: CC                 int         3
  00416321: CC                 int         3
  00416322: CC                 int         3
  00416323: CC                 int         3
  00416324: CC                 int         3
  00416325: CC                 int         3
  00416326: CC                 int         3
  00416327: CC                 int         3
  00416328: CC                 int         3
  00416329: CC                 int         3
  0041632A: CC                 int         3
  0041632B: CC                 int         3
  0041632C: CC                 int         3
  0041632D: CC                 int         3
  0041632E: CC                 int         3
  0041632F: CC                 int         3
  00416330: CC                 int         3
  00416331: CC                 int         3
  00416332: CC                 int         3
  00416333: CC                 int         3
  00416334: CC                 int         3
  00416335: CC                 int         3
  00416336: CC                 int         3
  00416337: CC                 int         3
  00416338: CC                 int         3
  00416339: CC                 int         3
  0041633A: CC                 int         3
  0041633B: CC                 int         3
  0041633C: CC                 int         3
  0041633D: CC                 int         3
  0041633E: CC                 int         3
  0041633F: CC                 int         3
  00416340: CC                 int         3
  00416341: CC                 int         3
  00416342: CC                 int         3
  00416343: CC                 int         3
  00416344: CC                 int         3
  00416345: CC                 int         3
  00416346: CC                 int         3
  00416347: CC                 int         3
  00416348: CC                 int         3
  00416349: CC                 int         3
  0041634A: CC                 int         3
  0041634B: CC                 int         3
  0041634C: CC                 int         3
  0041634D: CC                 int         3
  0041634E: CC                 int         3
  0041634F: CC                 int         3
  00416350: CC                 int         3
  00416351: CC                 int         3
  00416352: CC                 int         3
  00416353: CC                 int         3
  00416354: CC                 int         3
  00416355: CC                 int         3
  00416356: CC                 int         3
  00416357: CC                 int         3
  00416358: CC                 int         3
  00416359: CC                 int         3
  0041635A: CC                 int         3
  0041635B: CC                 int         3
  0041635C: CC                 int         3
  0041635D: CC                 int         3
  0041635E: CC                 int         3
  0041635F: CC                 int         3
  00416360: CC                 int         3
  00416361: CC                 int         3
  00416362: CC                 int         3
  00416363: CC                 int         3
  00416364: CC                 int         3
  00416365: CC                 int         3
  00416366: CC                 int         3
  00416367: CC                 int         3
  00416368: CC                 int         3
  00416369: CC                 int         3
  0041636A: CC                 int         3
  0041636B: CC                 int         3
  0041636C: CC                 int         3
  0041636D: CC                 int         3
  0041636E: CC                 int         3
  0041636F: CC                 int         3
  00416370: CC                 int         3
  00416371: CC                 int         3
  00416372: CC                 int         3
  00416373: CC                 int         3
  00416374: CC                 int         3
  00416375: CC                 int         3
  00416376: CC                 int         3
  00416377: CC                 int         3
  00416378: CC                 int         3
  00416379: CC                 int         3
  0041637A: CC                 int         3
  0041637B: CC                 int         3
  0041637C: CC                 int         3
  0041637D: CC                 int         3
  0041637E: CC                 int         3
  0041637F: CC                 int         3
  00416380: CC                 int         3
  00416381: CC                 int         3
  00416382: CC                 int         3
  00416383: CC                 int         3
  00416384: CC                 int         3
  00416385: CC                 int         3
  00416386: CC                 int         3
  00416387: CC                 int         3
  00416388: CC                 int         3
  00416389: CC                 int         3
  0041638A: CC                 int         3
  0041638B: CC                 int         3
  0041638C: CC                 int         3
  0041638D: CC                 int         3
  0041638E: CC                 int         3
  0041638F: CC                 int         3
  00416390: CC                 int         3
  00416391: CC                 int         3
  00416392: CC                 int         3
  00416393: CC                 int         3
  00416394: CC                 int         3
  00416395: CC                 int         3
  00416396: CC                 int         3
  00416397: CC                 int         3
  00416398: CC                 int         3
  00416399: CC                 int         3
  0041639A: CC                 int         3
  0041639B: CC                 int         3
  0041639C: CC                 int         3
  0041639D: CC                 int         3
  0041639E: CC                 int         3
  0041639F: CC                 int         3
  004163A0: CC                 int         3
  004163A1: CC                 int         3
  004163A2: CC                 int         3
  004163A3: CC                 int         3
  004163A4: CC                 int         3
  004163A5: CC                 int         3
  004163A6: CC                 int         3
  004163A7: CC                 int         3
  004163A8: CC                 int         3
  004163A9: CC                 int         3
  004163AA: CC                 int         3
  004163AB: CC                 int         3
  004163AC: CC                 int         3
  004163AD: CC                 int         3
  004163AE: CC                 int         3
  004163AF: CC                 int         3
  004163B0: CC                 int         3
  004163B1: CC                 int         3
  004163B2: CC                 int         3
  004163B3: CC                 int         3
  004163B4: CC                 int         3
  004163B5: CC                 int         3
  004163B6: CC                 int         3
  004163B7: CC                 int         3
  004163B8: CC                 int         3
  004163B9: CC                 int         3
  004163BA: CC                 int         3
  004163BB: CC                 int         3
  004163BC: CC                 int         3
  004163BD: CC                 int         3
  004163BE: CC                 int         3
  004163BF: CC                 int         3
  004163C0: CC                 int         3
  004163C1: CC                 int         3
  004163C2: CC                 int         3
  004163C3: CC                 int         3
  004163C4: CC                 int         3
  004163C5: CC                 int         3
  004163C6: CC                 int         3
  004163C7: CC                 int         3
  004163C8: CC                 int         3
  004163C9: CC                 int         3
  004163CA: CC                 int         3
  004163CB: CC                 int         3
  004163CC: CC                 int         3
  004163CD: CC                 int         3
  004163CE: CC                 int         3
  004163CF: CC                 int         3
  004163D0: CC                 int         3
  004163D1: CC                 int         3
  004163D2: CC                 int         3
  004163D3: CC                 int         3
  004163D4: CC                 int         3
  004163D5: CC                 int         3
  004163D6: CC                 int         3
  004163D7: CC                 int         3
  004163D8: CC                 int         3
  004163D9: CC                 int         3
  004163DA: CC                 int         3
  004163DB: CC                 int         3
  004163DC: CC                 int         3
  004163DD: CC                 int         3
  004163DE: CC                 int         3
  004163DF: CC                 int         3
  004163E0: CC                 int         3
  004163E1: CC                 int         3
  004163E2: CC                 int         3
  004163E3: CC                 int         3
  004163E4: CC                 int         3
  004163E5: CC                 int         3
  004163E6: CC                 int         3
  004163E7: CC                 int         3
  004163E8: CC                 int         3
  004163E9: CC                 int         3
  004163EA: CC                 int         3
  004163EB: CC                 int         3
  004163EC: CC                 int         3
  004163ED: CC                 int         3
  004163EE: CC                 int         3
  004163EF: CC                 int         3
  004163F0: CC                 int         3
  004163F1: CC                 int         3
  004163F2: CC                 int         3
  004163F3: CC                 int         3
  004163F4: CC                 int         3
  004163F5: CC                 int         3
  004163F6: CC                 int         3
  004163F7: CC                 int         3
  004163F8: CC                 int         3
  004163F9: CC                 int         3
  004163FA: CC                 int         3
  004163FB: CC                 int         3
  004163FC: CC                 int         3
  004163FD: CC                 int         3
  004163FE: CC                 int         3
  004163FF: CC                 int         3
  00416400: CC                 int         3
  00416401: CC                 int         3
  00416402: CC                 int         3
  00416403: CC                 int         3
  00416404: CC                 int         3
  00416405: CC                 int         3
  00416406: CC                 int         3
  00416407: CC                 int         3
  00416408: CC                 int         3
  00416409: CC                 int         3
  0041640A: CC                 int         3
  0041640B: CC                 int         3
  0041640C: CC                 int         3
  0041640D: CC                 int         3
  0041640E: CC                 int         3
  0041640F: CC                 int         3
  00416410: CC                 int         3
  00416411: CC                 int         3
  00416412: CC                 int         3
  00416413: CC                 int         3
  00416414: CC                 int         3
  00416415: CC                 int         3
  00416416: CC                 int         3
  00416417: CC                 int         3
  00416418: CC                 int         3
  00416419: CC                 int         3
  0041641A: CC                 int         3
  0041641B: CC                 int         3
  0041641C: CC                 int         3
  0041641D: CC                 int         3
  0041641E: CC                 int         3
  0041641F: CC                 int         3
  00416420: CC                 int         3
  00416421: CC                 int         3
  00416422: CC                 int         3
  00416423: CC                 int         3
  00416424: CC                 int         3
  00416425: CC                 int         3
  00416426: CC                 int         3
  00416427: CC                 int         3
  00416428: CC                 int         3
  00416429: CC                 int         3
  0041642A: CC                 int         3
  0041642B: CC                 int         3
  0041642C: CC                 int         3
  0041642D: CC                 int         3
  0041642E: CC                 int         3
  0041642F: CC                 int         3
  00416430: CC                 int         3
  00416431: CC                 int         3
  00416432: CC                 int         3
  00416433: CC                 int         3
  00416434: CC                 int         3
  00416435: CC                 int         3
  00416436: CC                 int         3
  00416437: CC                 int         3
  00416438: CC                 int         3
  00416439: CC                 int         3
  0041643A: CC                 int         3
  0041643B: CC                 int         3
  0041643C: CC                 int         3
  0041643D: CC                 int         3
  0041643E: CC                 int         3
  0041643F: CC                 int         3
  00416440: CC                 int         3
  00416441: CC                 int         3
  00416442: CC                 int         3
  00416443: CC                 int         3
  00416444: CC                 int         3
  00416445: CC                 int         3
  00416446: CC                 int         3
  00416447: CC                 int         3
  00416448: CC                 int         3
  00416449: CC                 int         3
  0041644A: CC                 int         3
  0041644B: CC                 int         3
  0041644C: CC                 int         3
  0041644D: CC                 int         3
  0041644E: CC                 int         3
  0041644F: CC                 int         3
  00416450: CC                 int         3
  00416451: CC                 int         3
  00416452: CC                 int         3
  00416453: CC                 int         3
  00416454: CC                 int         3
  00416455: CC                 int         3
  00416456: CC                 int         3
  00416457: CC                 int         3
  00416458: CC                 int         3
  00416459: CC                 int         3
  0041645A: CC                 int         3
  0041645B: CC                 int         3
  0041645C: CC                 int         3
  0041645D: CC                 int         3
  0041645E: CC                 int         3
  0041645F: CC                 int         3
  00416460: CC                 int         3
  00416461: CC                 int         3

RAW DATA #2
  00411000: CC CC CC CC CC E9 56 20 00 00 E9 EE 3F 00 00 E9  IIIIIeV ..ei?..e
  00411010: 19 40 00 00 E9 97 2A 00 00 E9 52 0C 00 00 E9 AD  .@..e.*..eR...e-
  00411020: 40 00 00 E9 E8 07 00 00 E9 73 40 00 00 E9 AE 40  @..ee...es@..eR@
  00411030: 00 00 E9 78 3F 00 00 E9 54 2F 00 00 E9 2C 3F 00  ..ex?..eT/..e,?.
  00411040: 00 E9 4A 13 00 00 E9 25 13 00 00 E9 2B 40 00 00  .eJ...e%...e+@..
  00411050: E9 3B 30 00 00 E9 F6 2A 00 00 E9 51 13 00 00 E9  e;0..eo*..eQ...e
  00411060: A5 3F 00 00 E9 D4 3E 00 00 E9 32 40 00 00 E9 4E  \?..eO>..e2@..eN
  00411070: 3F 00 00 E9 48 0E 00 00 E9 D3 2B 00 00 E9 5E 3E  ?..eH...eO+..e^>
  00411080: 00 00 E9 09 15 00 00 E9 34 22 00 00 E9 2F 2A 00  ..e....e4"..e/*.
  00411090: 00 E9 83 3E 00 00 E9 96 3E 00 00 E9 20 40 00 00  .e.>..e.>..e @..
  004110A0: E9 CB 13 00 00 E9 CF 3E 00 00 E9 81 2D 00 00 E9  eE...eI>..e.-..e
  004110B0: 5C 06 00 00 E9 17 40 00 00 E9 32 2A 00 00 E9 A0  \...e.@..e2*..e.
  004110C0: 3F 00 00 E9 D5 3E 00 00 E9 63 28 00 00 E9 5E 1F  ?..eO>..ec(..e^.
  004110D0: 00 00 E9 3C 3E 00 00 E9 75 3F 00 00 E9 8E 3F 00  ..e<>..eu?..e.?.
  004110E0: 00 E9 5A 2B 00 00 E9 C5 19 00 00 E9 C0 2E 00 00  .eZ+..eA...eA...
  004110F0: E9 0B 15 00 00 E9 39 3F 00 00 E9 A1 1C 00 00 E9  e....e9?..e!...e
  00411100: 09 3E 00 00 E9 82 3E 00 00 E9 A2 3F 00 00 E9 CD  .>..e.>..e?..eI
  00411110: 3F 00 00 E9 2B 3E 00 00 E9 28 3F 00 00 E9 99 3E  ?..e+>..e(?..e.>
  00411120: 00 00 E9 D9 2A 00 00 E9 24 3A 00 00 E9 5F 07 00  ..eU*..e$:..e_..
  00411130: 00 E9 1A 0D 00 00 E9 D5 0D 00 00 E9 00 2D 00 00  .e....eO...e.-..
  00411140: E9 8B 0D 00 00 E9 B6 1F 00 00 E9 81 27 00 00 E9  e....e...e.'..e
  00411150: 03 3F 00 00 E9 B7 2D 00 00 E9 32 1A 00 00 E9 2D  .?..eE-..e2...e-
  00411160: 1C 00 00 E9 58 3F 00 00 E9 FC 3E 00 00 E9 3E 06  ...eX?..eu>..e>.
  00411170: 00 00 E9 50 3E 00 00 E9 74 2D 00 00 E9 6F 26 00  ..eP>..et-..eo&.
  00411180: 00 E9 5A 3F 00 00 E9 60 3E 00 00 E9 A0 21 00 00  .eZ?..e`>..e.!..
  00411190: E9 5B 2E 00 00 E9 DB 3E 00 00 E9 E1 29 00 00 E9  e[...eU>..ea)..e
  004111A0: 7D 3E 00 00 E9 0C 3E 00 00 E9 89 3D 00 00 E9 ED  }>..e.>..e.=..ei
  004111B0: 28 00 00 E9 B8 07 00 00 E9 B3 1F 00 00 E9 EE 3E  (..eC...e3...ei>
  004111C0: 00 00 E9 19 29 00 00 E9 7F 3E 00 00 E9 D8 3D 00  ..e.)..e.>..eO=.
  004111D0: 00 E9 EA 3E 00 00 E9 AA 3D 00 00 E9 75 3D 00 00  .ee>..ea=..eu=..
  004111E0: E9 30 3E 00 00 E9 16 1A 00 00 E9 C1 1C 00 00 E9  e0>..e....eA...e
  004111F0: 9C 29 00 00 E9 DA 3D 00 00 E9 83 3E 00 00 E9 9D  .)..eU=..e.>..e.
  00411200: 1E 00 00 E9 A8 2E 00 00 E9 5A 3D 00 00 E9 8E 29  ...eN...eZ=..e.)
  00411210: 00 00 E9 E9 27 00 00 E9 B4 3E 00 00 E9 FA 3D 00  ..ee'..eL>..eu=.
  00411220: 00 E9 DA 28 00 00 E9 CC 3D 00 00 E9 40 1E 00 00  .eU(..eI=..e@...
  00411230: E9 EB 28 00 00 E9 66 3E 00 00 E9 E1 22 00 00 E9  ee(..ef>..ea"..e
  00411240: BC 21 00 00 E9 A8 3D 00 00 E9 62 0A 00 00 E9 5D  ?!..eN=..eb...e]
  00411250: 0C 00 00 E9 88 06 00 00 E9 CA 3D 00 00 E9 4E 29  ...e....eE=..eN)
  00411260: 00 00 E9 89 10 00 00 E9 D4 25 00 00 E9 DE 3C 00  ..e....eO%..eT<.
  00411270: 00 E9 57 3D 00 00 E9 E5 21 00 00 E9 50 0B 00 00  .eW=..ea!..eP...
  00411280: E9 C4 3C 00 00 E9 07 3D 00 00 E9 08 3D 00 00 E9  eA<..e.=..e.=..e
  00411290: FC 0B 00 00 E9 97 29 00 00 E9 3B 3D 00 00 E9 1D  u...e.)..e;=..e.
  004112A0: 22 00 00 E9 B8 2D 00 00 E9 33 2B 00 00 E9 5D 3D  "..eC-..e3+..e]=
  004112B0: 00 00 E9 F9 3D 00 00 E9 34 07 00 00 E9 42 3D 00  ..eu=..e4...eB=.
  004112C0: 00 E9 DA 20 00 00 E9 15 21 00 00 E9 C3 3D 00 00  .eU ..e.!..eA=..
  004112D0: E9 B8 3D 00 00 E9 F6 1D 00 00 E9 11 3E 00 00 E9  eC=..eo...e.>..e
  004112E0: 5C 19 00 00 E9 96 3C 00 00 E9 85 3C 00 00 E9 6E  \...e.<..e.<..en
  004112F0: 3C 00 00 E9 78 2D 00 00 E9 5E 3C 00 00 E9 1D 3C  <..ex-..e^<..e.<
  00411300: 00 00 E9 32 3D 00 00 E9 24 1E 00 00 E9 2E 3D 00  ..e2=..e$...e.=.
  00411310: 00 E9 FA 0F 00 00 E9 05 1D 00 00 E9 B0 18 00 00  .eu...e....e...
  00411320: E9 38 3D 00 00 E9 C6 3D 00 00 E9 91 24 00 00 E9  e8=..eA=..e.$..e
  00411330: 0C 1D 00 00 E9 97 1F 00 00 E9 A7 3C 00 00 E9 3D  ....e....e<..e=
  00411340: 33 00 00 E9 98 08 00 00 E9 23 20 00 00 E9 51 3C  3..e....e# ..eQ<
  00411350: 00 00 E9 30 3D 00 00 E9 D4 05 00 00 E9 7E 3C 00  ..e0=..eO...e~<.
  00411360: 00 E9 6A 27 00 00 E9 35 21 00 00 E9 BB 3B 00 00  .ej'..e5!..e;..
  00411370: E9 CB 22 00 00 E9 D6 0F 00 00 E9 C1 27 00 00 E9  eE"..eO...eA'..e
  00411380: A1 3B 00 00 CC CC CC CC CC CC CC CC CC CC CC CC  !;..IIIIIIIIIIII
  00411390: CC CC CC CC CC CC CC CC CC CC CC CC CC CC CC CC  IIIIIIIIIIIIIIII
  004113A0: CC CC CC CC CC CC CC CC CC CC CC CC CC CC CC CC  IIIIIIIIIIIIIIII
  004113B0: CC CC CC CC CC CC CC CC CC CC CC CC CC CC CC CC  IIIIIIIIIIIIIIII
  004113C0: CC CC CC CC CC CC CC CC CC CC CC CC CC CC CC CC  IIIIIIIIIIIIIIII
  004113D0: CC CC CC CC CC CC CC CC CC CC CC CC CC CC CC CC  IIIIIIIIIIIIIIII
  004113E0: CC CC CC CC CC CC CC CC CC CC CC CC CC CC CC CC  IIIIIIIIIIIIIIII
  004113F0: CC CC CC CC CC CC CC CC CC CC CC CC CC CC CC CC  IIIIIIIIIIIIIIII
  00411400: CC CC CC CC CC CC CC CC CC CC CC CC CC CC CC CC  IIIIIIIIIIIIIIII
  00411410: CC CC CC CC CC CC CC CC CC CC CC CC CC CC CC CC  IIIIIIIIIIIIIIII
  00411420: CC CC CC CC CC CC CC CC CC CC CC CC CC CC CC CC  IIIIIIIIIIIIIIII
  00411430: CC CC CC CC CC CC CC CC CC CC CC CC CC CC CC CC  IIIIIIIIIIIIIIII
  00411440: CC CC CC CC CC CC CC CC CC CC CC CC CC CC CC CC  IIIIIIIIIIIIIIII
  00411450: CC CC CC CC CC CC CC CC CC CC CC CC CC CC CC CC  IIIIIIIIIIIIIIII
  00411460: CC CC CC CC CC CC CC CC CC CC CC CC CC CC CC CC  IIIIIIIIIIIIIIII
  00411470: CC CC CC CC CC CC CC CC CC CC CC CC CC CC CC CC  IIIIIIIIIIIIIIII
  00411480: CC CC CC CC CC CC CC CC CC CC CC CC CC CC CC CC  IIIIIIIIIIIIIIII
  00411490: CC CC CC CC CC CC CC CC CC CC CC CC CC CC CC CC  IIIIIIIIIIIIIIII
  004114A0: CC CC CC CC CC CC CC CC CC CC CC CC CC CC CC CC  IIIIIIIIIIIIIIII
  004114B0: CC CC CC CC CC CC CC CC CC CC CC CC CC CC CC CC  IIIIIIIIIIIIIIII
  004114C0: CC CC CC CC CC CC CC CC CC CC CC CC CC CC CC CC  IIIIIIIIIIIIIIII
  004114D0: CC CC CC CC CC CC CC CC CC CC CC CC CC CC CC CC  IIIIIIIIIIIIIIII
  004114E0: CC CC CC CC CC CC CC CC CC CC CC CC CC CC CC CC  IIIIIIIIIIIIIIII
  004114F0: CC CC CC CC CC CC CC CC CC CC CC CC CC CC CC CC  IIIIIIIIIIIIIIII
  00411500: CC CC CC CC CC CC CC CC CC CC CC CC CC CC CC CC  IIIIIIIIIIIIIIII
  00411510: CC CC CC CC CC CC CC CC CC CC CC CC CC CC CC CC  IIIIIIIIIIIIIIII
  00411520: CC CC CC CC CC CC CC CC CC CC CC CC CC CC CC CC  IIIIIIIIIIIIIIII
  00411530: CC CC CC CC CC CC CC CC CC CC CC CC CC CC CC CC  IIIIIIIIIIIIIIII
  00411540: CC CC CC CC CC CC CC CC CC CC CC CC CC CC CC CC  IIIIIIIIIIIIIIII
  00411550: CC CC CC CC CC CC CC CC CC CC CC CC CC CC CC CC  IIIIIIIIIIIIIIII
  00411560: CC CC CC CC CC CC CC CC CC CC CC CC CC CC CC CC  IIIIIIIIIIIIIIII
  00411570: CC CC CC CC CC CC CC CC CC CC CC CC CC CC CC CC  IIIIIIIIIIIIIIII
  00411580: CC CC CC CC CC CC CC CC CC CC CC CC CC CC CC CC  IIIIIIIIIIIIIIII
  00411590: CC CC CC CC CC CC CC CC CC CC CC CC CC CC CC CC  IIIIIIIIIIIIIIII
  004115A0: CC CC CC CC CC CC CC CC CC CC CC CC CC CC CC CC  IIIIIIIIIIIIIIII
  004115B0: CC CC CC CC CC CC CC CC CC CC CC CC CC CC CC CC  IIIIIIIIIIIIIIII
  004115C0: CC CC CC CC CC CC CC CC CC CC CC CC CC CC CC CC  IIIIIIIIIIIIIIII
  004115D0: CC CC CC CC CC CC CC CC CC CC CC CC CC CC CC CC  IIIIIIIIIIIIIIII
  004115E0: CC CC CC CC CC CC CC CC CC CC CC CC CC CC CC CC  IIIIIIIIIIIIIIII
  004115F0: CC CC CC CC CC CC CC CC CC CC CC CC CC CC CC CC  IIIIIIIIIIIIIIII
  00411600: CC CC CC CC CC CC CC CC CC CC CC CC CC CC CC CC  IIIIIIIIIIIIIIII
  00411610: CC CC CC CC CC CC CC CC CC CC CC CC CC CC CC CC  IIIIIIIIIIIIIIII
  00411620: CC CC CC CC CC CC CC CC CC CC CC CC CC CC CC CC  IIIIIIIIIIIIIIII
  00411630: CC CC CC CC CC CC CC CC CC CC CC CC CC CC CC CC  IIIIIIIIIIIIIIII
  00411640: CC CC CC CC CC CC CC CC CC CC CC CC CC CC CC CC  IIIIIIIIIIIIIIII
  00411650: CC CC CC CC CC CC CC CC CC CC CC CC CC CC CC CC  IIIIIIIIIIIIIIII
  00411660: CC CC CC CC CC CC CC CC CC CC CC CC CC CC CC CC  IIIIIIIIIIIIIIII
  00411670: CC CC CC CC CC CC CC CC CC CC CC CC CC CC CC CC  IIIIIIIIIIIIIIII
  00411680: CC CC CC CC CC CC CC CC CC CC CC CC CC CC CC CC  IIIIIIIIIIIIIIII
  00411690: CC CC CC CC CC CC CC CC CC CC CC CC CC CC CC CC  IIIIIIIIIIIIIIII
  004116A0: CC CC CC CC CC CC CC CC CC CC CC CC CC CC CC CC  IIIIIIIIIIIIIIII
  004116B0: CC CC CC CC CC CC CC CC CC CC CC CC CC CC CC CC  IIIIIIIIIIIIIIII
  004116C0: CC CC CC CC CC CC CC CC CC CC CC CC CC CC CC CC  IIIIIIIIIIIIIIII
  004116D0: CC CC CC CC CC CC CC CC CC CC CC CC CC CC CC CC  IIIIIIIIIIIIIIII
  004116E0: CC CC CC CC CC CC CC CC CC CC CC CC CC CC CC CC  IIIIIIIIIIIIIIII
  004116F0: CC CC CC CC CC CC CC CC CC CC CC CC CC CC CC CC  IIIIIIIIIIIIIIII
  00411700: CC CC CC CC CC CC CC CC CC CC CC CC CC CC CC CC  IIIIIIIIIIIIIIII
  00411710: 55 8B EC 81 EC CC 00 00 00 53 56 57 51 8D BD 34  U.i.iI...SVWQ.?4
  00411720: FF FF FF B9 33 00 00 00 B8 CC CC CC CC F3 AB 59  yyy13...CIIIIoY
  00411730: 89 4D F8 8B 45 F8 8B 08 51 68 30 7B 41 00 E8 00  .Mo.Eo..Qh0{A.e.
  00411740: FC FF FF 83 C4 08 8B 45 F8 83 C0 04 50 68 40 7B  uyy.A..Eo.A.Ph@{
  00411750: 41 00 E8 EC FB FF FF 83 C4 08 8B 45 F8 8B 88 84  A.eiuyy.A..Eo...
  00411760: 00 00 00 51 68 4C 7B 41 00 E8 D5 FB FF FF 83 C4  ...QhL{A.eOuyy.A
  00411770: 08 5F 5E 5B 81 C4 CC 00 00 00 3B EC E8 B0 F9 FF  ._^[.AI...;ieuy
  00411780: FF 8B E5 5D C3 CC CC CC CC CC CC CC CC CC CC CC  y.a]AIIIIIIIIIII
  00411790: CC CC CC CC CC CC CC CC CC CC CC CC CC CC CC CC  IIIIIIIIIIIIIIII
  004117A0: CC CC CC CC CC CC CC CC CC CC CC CC CC CC CC CC  IIIIIIIIIIIIIIII
  004117B0: 55 8B EC 81 EC CC 00 00 00 53 56 57 51 8D BD 34  U.i.iI...SVWQ.?4
  004117C0: FF FF FF B9 33 00 00 00 B8 CC CC CC CC F3 AB 59  yyy13...CIIIIoY
  004117D0: 89 4D F8 68 58 7B 41 00 E8 66 FB FF FF 83 C4 04  .MohX{A.efuyy.A.
  004117E0: 5F 5E 5B 81 C4 CC 00 00 00 3B EC E8 41 F9 FF FF  _^[.AI...;ieAuyy
  004117F0: 8B E5 5D C3 CC CC CC CC CC CC CC CC CC CC CC CC  .a]AIIIIIIIIIIII
  00411800: CC CC CC CC CC CC CC CC CC CC CC CC CC CC CC CC  IIIIIIIIIIIIIIII
  00411810: 55 8B EC 81 EC CC 00 00 00 53 56 57 51 8D BD 34  U.i.iI...SVWQ.?4
  00411820: FF FF FF B9 33 00 00 00 B8 CC CC CC CC F3 AB 59  yyy13...CIIIIoY
  00411830: 89 4D F8 8B F4 8B 45 08 50 68 80 00 00 00 8B 4D  .Mo.o.E.Ph.....M
  00411840: F8 83 C1 04 51 FF 15 64 B1 41 00 83 C4 0C 3B F4  o.A.Qy.d}A..A.;o
  00411850: E8 DC F8 FF FF 5F 5E 5B 81 C4 CC 00 00 00 3B EC  eUoyy_^[.AI...;i
  00411860: E8 CC F8 FF FF 8B E5 5D C2 04 00 CC CC CC CC CC  eIoyy.a]A..IIIII
  00411870: CC CC CC CC CC CC CC CC CC CC CC CC CC CC CC CC  IIIIIIIIIIIIIIII
  00411880: CC CC CC CC CC CC CC CC CC CC CC CC CC CC CC CC  IIIIIIIIIIIIIIII
  00411890: 55 8B EC 81 EC CC 00 00 00 53 56 57 51 8D BD 34  U.i.iI...SVWQ.?4
  004118A0: FF FF FF B9 33 00 00 00 B8 CC CC CC CC F3 AB 59  yyy13...CIIIIoY
  004118B0: 89 4D F8 8B 45 F8 8B 4D 08 89 08 5F 5E 5B 8B E5  .Mo.Eo.M..._^[.a
  004118C0: 5D C2 04 00 CC CC CC CC CC CC CC CC CC CC CC CC  ]A..IIIIIIIIIIII
  004118D0: CC CC CC CC CC CC CC CC CC CC CC CC CC CC CC CC  IIIIIIIIIIIIIIII
  004118E0: 55 8B EC 81 EC CC 00 00 00 53 56 57 51 8D BD 34  U.i.iI...SVWQ.?4
  004118F0: FF FF FF B9 33 00 00 00 B8 CC CC CC CC F3 AB 59  yyy13...CIIIIoY
  00411900: 89 4D F8 8B 45 F8 8B 4D 08 89 88 84 00 00 00 5F  .Mo.Eo.M......._
  00411910: 5E 5B 8B E5 5D C2 04 00 CC CC CC CC CC CC CC CC  ^[.a]A..IIIIIIII
  00411920: CC CC CC CC CC CC CC CC CC CC CC CC CC CC CC CC  IIIIIIIIIIIIIIII
  00411930: 55 8B EC 81 EC C0 00 00 00 53 56 57 8D BD 40 FF  U.i.iA...SVW.?@y
  00411940: FF FF B9 30 00 00 00 B8 CC CC CC CC F3 AB B8 38  yy10...CIIIIoC8
  00411950: A1 41 00 5F 5E 5B 8B E5 5D C3 CC CC CC CC CC CC  !A._^[.a]AIIIIII
  00411960: CC CC CC CC CC CC CC CC CC CC CC CC CC CC CC CC  IIIIIIIIIIIIIIII
  00411970: 55 8B EC 81 EC C0 00 00 00 53 56 57 8D BD 40 FF  U.i.iA...SVW.?@y
  00411980: FF FF B9 30 00 00 00 B8 CC CC CC CC F3 AB 8B F4  yy10...CIIIIo.o
  00411990: 8B 45 14 50 8B 4D 10 51 8B 55 0C 52 8B 45 08 50  .E.P.M.Q.U.R.E.P
  004119A0: E8 B2 F9 FF FF 8B 48 04 51 8B 10 52 FF 15 68 B1  e2uyy.H.Q..Ry.h}
  004119B0: 41 00 83 C4 18 3B F4 E8 75 F7 FF FF 5F 5E 5B 81  A..A.;oeuyy_^[.
  004119C0: C4 C0 00 00 00 3B EC E8 65 F7 FF FF 8B E5 5D C3  AA...;ieeyy.a]A
  004119D0: CC CC CC CC CC CC CC CC CC CC CC CC CC CC CC CC  IIIIIIIIIIIIIIII
  004119E0: CC CC CC CC CC CC CC CC CC CC CC CC CC CC CC CC  IIIIIIIIIIIIIIII
  004119F0: 55 8B EC 81 EC B4 03 00 00 53 56 57 8D BD 4C FC  U.i.iL...SVW.?Lu
  00411A00: FF FF B9 ED 00 00 00 B8 CC CC CC CC F3 AB A1 00  yy1i...CIIIIo!.
  00411A10: A0 41 00 33 C5 89 45 FC 8B F4 68 6C 7B 41 00 68  .A.3A.Eu.ohl{A.h
  00411A20: 80 00 00 00 8D 85 58 FE FF FF 50 FF 15 64 B1 41  ......XtyyPy.d}A
  00411A30: 00 83 C4 0C 3B F4 E8 F6 F6 FF FF 8B F4 68 7C 7B  ..A.;oeooyy.oh|{
  00411A40: 41 00 68 80 00 00 00 8D 85 D0 FD FF FF 50 FF 15  A.h......DyyyPy.
  00411A50: 64 B1 41 00 83 C4 0C 3B F4 E8 D3 F6 FF FF 68 88  d}A..A.;oeOoyyh.
  00411A60: 00 00 00 68 8C 7B 41 00 E8 D6 F8 FF FF 83 C4 08  ...h.{A.eOoyy.A.
  00411A70: 68 11 11 00 00 8D 8D 70 FF FF FF E8 AC F6 FF FF  h......pyyyeoyy
  00411A80: 8D 85 58 FE FF FF 50 8D 8D 70 FF FF FF E8 91 F5  ..XtyyP..pyyye.o
  00411A90: FF FF 68 00 01 00 00 8D 8D 70 FF FF FF E8 B1 F7  yyh......pyyye}
  00411AA0: FF FF 68 12 11 00 00 8D 8D E0 FE FF FF E8 7A F6  yyh......atyyezo
  00411AB0: FF FF 8D 85 D0 FD FF FF 50 8D 8D E0 FE FF FF E8  yy..DyyyP..atyye
  00411AC0: 5F F5 FF FF 6A 50 8D 8D E0 FE FF FF E8 82 F7 FF  _oyyjP..atyye.y
  00411AD0: FF 8D 8D 70 FF FF FF E8 D3 F5 FF FF 8D 8D E0 FE  y..pyyyeOoyy..at
  00411AE0: FF FF E8 C8 F5 FF FF 33 C0 52 8B CD 50 8D 15 18  yyeEoyy3AR.IP...
  00411AF0: 1B 41 00 E8 83 F7 FF FF 58 5A 5F 5E 5B 8B 4D FC  .A.e.yyXZ_^[.Mu
  00411B00: 33 CD E8 88 F7 FF FF 81 C4 B4 03 00 00 3B EC E8  3Ie.yy.AL...;ie
  00411B10: 1D F6 FF FF 8B E5 5D C3 04 00 00 00 20 1B 41 00  .oyy.a]A.... .A.
  00411B20: 70 FF FF FF 88 00 00 00 69 1B 41 00 E0 FE FF FF  pyyy....i.A.atyy
  00411B30: 88 00 00 00 61 1B 41 00 58 FE FF FF 80 00 00 00  ....a.A.Xtyy....
  00411B40: 58 1B 41 00 D0 FD FF FF 80 00 00 00 50 1B 41 00  X.A.Dyyy....P.A.
  00411B50: 6D 6F 6D 6F 63 68 69 00 69 63 68 69 6E 6F 73 65  momochi.ichinose
  00411B60: 00 4D 6F 6D 6F 63 68 69 00 49 63 68 69 6E 6F 73  .Momochi.Ichinos
  00411B70: 65 00 CC CC CC CC CC CC CC CC CC CC CC CC CC CC  e.IIIIIIIIIIIIII
  00411B80: CC CC CC CC CC CC CC CC CC CC CC CC CC CC CC CC  IIIIIIIIIIIIIIII
  00411B90: CC CC CC CC CC CC CC CC CC CC CC CC CC CC CC CC  IIIIIIIIIIIIIIII
  00411BA0: CC CC CC CC CC CC CC CC CC CC CC CC CC CC CC CC  IIIIIIIIIIIIIIII
  00411BB0: CC CC CC CC CC CC CC CC CC CC CC CC CC CC CC CC  IIIIIIIIIIIIIIII
  00411BC0: CC CC CC CC CC CC CC CC CC CC CC CC CC CC CC CC  IIIIIIIIIIIIIIII
  00411BD0: CC CC CC CC CC CC CC CC CC CC CC CC CC CC CC CC  IIIIIIIIIIIIIIII
  00411BE0: 55 8B EC 81 EC E4 00 00 00 53 56 57 8D BD 1C FF  U.i.ia...SVW.?.y
  00411BF0: FF FF B9 39 00 00 00 B8 CC CC CC CC F3 AB 8D 45  yy19...CIIIIo.E
  00411C00: 0C 89 45 EC 8B 45 EC 50 6A 00 8B 4D 08 51 8B F4  ..Ei.EiPj..M.Q.o
  00411C10: 6A 01 FF 15 6C B1 41 00 83 C4 04 3B F4 E8 0F F5  j.y.l}A..A.;oe.o
  00411C20: FF FF 50 E8 8B F5 FF FF 83 C4 10 89 45 F8 C7 45  yyPe.oyy.A..EoCE
  00411C30: EC 00 00 00 00 8B 45 F8 5F 5E 5B 81 C4 E4 00 00  i.....Eo_^[.Aa..
  00411C40: 00 3B EC E8 E9 F4 FF FF 8B E5 5D C3 CC CC CC CC  .;ieeoyy.a]AIIII
  00411C50: CC CC CC CC CC CC CC CC CC CC CC CC CC CC CC CC  IIIIIIIIIIIIIIII
  00411C60: CC CC CC CC CC CC CC CC CC CC CC CC CC CC CC CC  IIIIIIIIIIIIIIII
  00411C70: 55 8B EC 53 56 8B F1 8B DA 85 F6 74 1F 85 DB 74  U.iSV.n.U.ot..Ut
  00411C80: 1B 8B 55 08 85 D2 74 14 57 B0 CC 8B FE 8B CB F3  ..U..Ot.WI.t.Eo
  00411C90: AA 8B 02 89 46 04 89 5E 0C 89 32 5F 5E 5B 5D C2  a...F..^..2_^[]A
  00411CA0: 04 00 CC CC CC CC CC CC CC CC CC CC CC CC CC CC  ..IIIIIIIIIIIIII
  00411CB0: 55 8B EC 83 EC 08 53 8B DA 8B C1 89 45 F8 56 57  U.i.i.S.U.A.EoVW
  00411CC0: 85 DB 74 4A 33 F6 39 33 7E 44 83 C0 FC 33 FF 89  .UtJ3o93~D.Au3y.
  00411CD0: 45 FC 8B 4B 04 8B 45 FC 8B 14 39 81 3C 02 CC CC  Eu.K..Eu..9.<.II
  00411CE0: CC CC 75 12 8B 44 39 04 03 C2 8B 55 F8 81 3C 10  IIu..D9..A.Uo.<.
  00411CF0: CC CC CC CC 74 10 FF 74 39 08 8B 45 04 50 E8 ED  IIIIt.yt9..E.Pei
  00411D00: F3 FF FF 83 C4 08 46 83 C7 0C 3B 33 7C C4 8B 75  oyy.A.F.C.;3|A.u
  00411D10: 08 33 FF 8B C6 85 F6 74 6B 8D A4 24 00 00 00 00  .3y.A.otk.?$....
  00411D20: 8B 40 04 47 85 C0 75 F8 85 F6 74 58 8D 64 24 00  .@.G.Auo.otX.d$.
  00411D30: 81 3E CC CC CC CC 75 1B 81 7E 14 CC CC CC CC 75  .>IIIIu..~.IIIIu
  00411D40: 12 81 7E 18 CC CC CC CC 75 09 81 7E 1C CC CC CC  ..~.IIIIu..~.III
  00411D50: CC 74 0E 8B 45 04 57 56 50 E8 42 F3 FF FF 83 C4  It..E.WVPeBoyy.A
  00411D60: 0C 8B 46 0C 81 7C 30 FC CC CC CC CC 74 0E 8B 45  ..F..|0uIIIIt..E
  00411D70: 04 57 56 50 E8 27 F3 FF FF 83 C4 0C 8B 76 04 4F  .WVPe'oyy.A..v.O
  00411D80: 85 F6 75 AC 5F 5E 5B 8B E5 5D C2 04 00 CC CC CC  .ou_^[.a]A..III
  00411D90: CC CC CC CC CC CC CC CC CC CC CC CC CC CC CC CC  IIIIIIIIIIIIIIII
  00411DA0: CC CC CC CC CC CC CC CC CC CC CC CC CC CC CC CC  IIIIIIIIIIIIIIII
  00411DB0: CC CC CC CC CC CC CC CC CC CC CC CC CC CC CC CC  IIIIIIIIIIIIIIII
  00411DC0: CC CC CC CC CC CC CC CC CC CC CC CC CC CC CC CC  IIIIIIIIIIIIIIII
  00411DD0: 55 8B EC 83 EC 08 53 8B DA 8B C1 56 33 F6 89 45  U.i.i.S.U.AV3o.E
  00411DE0: F8 39 33 7E 48 83 C0 FC 57 89 45 FC 33 FF 8B FF  o93~H.AuW.Eu3y.y
  00411DF0: 8B 4B 04 8B 45 FC 8B 14 39 81 3C 02 CC CC CC CC  .K..Eu..9.<.IIII
  00411E00: 75 12 8B 44 39 04 03 C2 8B 55 F8 81 3C 10 CC CC  u..D9..A.Uo.<.II
  00411E10: CC CC 74 10 FF 74 39 08 8B 45 04 50 E8 CF F2 FF  IIt.yt9..E.PeIoy
  00411E20: FF 83 C4 08 46 83 C7 0C 3B 33 7C C4 5F 5E 5B 8B  y.A.F.C.;3|A_^[.
  00411E30: E5 5D C3 CC CC CC CC CC CC CC CC CC CC CC CC CC  a]AIIIIIIIIIIIII
  00411E40: CC CC CC CC CC CC CC CC CC CC CC CC CC CC CC CC  IIIIIIIIIIIIIIII
  00411E50: F2 75 02 F2 C3 55 8B EC 83 EC 00 50 0F 1B 04 04  ou.oAU.i.i.P....
  00411E60: 52 53 56 57 8B 45 04 6A 00 50 E8 13 F2 FF FF 83  RSVW.E.j.Pe.oyy.
  00411E70: C4 08 5F 5E 5B 5A 58 0F 1A 44 04 FC 8B E5 5D F2  A._^[ZX..D.u.a]o
  00411E80: C3 CC CC CC CC CC CC CC CC CC CC CC CC CC CC CC  AIIIIIIIIIIIIIII
  00411E90: 3B 0D 00 A0 41 00 F2 75 02 F2 C3 F2 E9 3E F4 FF  ;...A.ou.oAoe>oy
  00411EA0: FF CC CC CC CC CC CC CC CC CC CC CC CC CC CC CC  yIIIIIIIIIIIIIII
  00411EB0: B8 13 11 41 00 C3 CC CC CC CC CC CC CC CC CC CC  C..A.AIIIIIIIIII
  00411EC0: B8 80 12 41 00 C3 CC CC CC CC CC CC CC CC CC CC  C..A.AIIIIIIIIII
  00411ED0: 80 3D 48 A1 41 00 00 75 1F 6A 00 6A 01 6A 00 6A  .=H!A..u.j.j.j.j
  00411EE0: 00 6A 00 C6 05 48 A1 41 00 01 E8 84 F1 FF FF 50  .j.A.H!A..e.nyyP
  00411EF0: E8 09 F3 FF FF 83 C4 18 C3 CC CC CC CC CC CC CC  e.oyy.A.AIIIIIII
  00411F00: CC CC CC CC CC CC CC CC CC CC CC CC CC CC CC CC  IIIIIIIIIIIIIIII
  00411F10: 6A 01 6A 01 6A 00 6A 00 6A 00 E8 54 F1 FF FF 83  j.j.j.j.j.eTnyy.
  00411F20: C4 14 C3 CC CC CC CC CC CC CC CC CC CC CC CC CC  A.AIIIIIIIIIIIII
  00411F30: 55 8B EC E8 3D F4 FF FF E8 04 F1 FF FF E8 04 F1  U.ie=oyye.nyye.n
  00411F40: FF FF 6A 01 E8 F1 F2 FF FF 83 C4 04 0F B6 C0 85  yyj.enoyy.A..A.
  00411F50: C0 75 07 6A 07 E8 1E F1 FF FF DB E2 E8 8A F1 FF  Au.j.e.nyyUae.ny
  00411F60: FF 68 90 11 41 00 E8 5D F1 FF FF 83 C4 04 E8 EF  yh..A.e]nyy.A.ei
  00411F70: F2 FF FF 85 C0 74 07 6A 07 E8 FA F0 FF FF E8 9E  oyy.At.j.eudyye.
  00411F80: F2 FF FF E8 9A F1 FF FF 85 C0 74 0D 68 AE 11 41  oyye.nyy.At.hR.A
  00411F90: 00 E8 62 F3 FF FF 83 C4 04 E8 FC F1 FF FF E8 4C  .eboyy.A.eunyyeL
  00411FA0: F2 FF FF E8 AD F0 FF FF E8 0C F1 FF FF 50 E8 7F  oyye-dyye.nyyPe.
  00411FB0: F0 FF FF 83 C4 04 E8 BF F3 FF FF 0F B6 C8 85 C9  dyy.A.e?oyy.E.E
  00411FC0: 74 05 E8 4A F3 FF FF E8 DE F0 FF FF 33 C0 5D C3  t.eJoyyeTdyy3A]A
  00411FD0: CC CC CC CC CC CC CC CC CC CC CC CC CC CC CC CC  IIIIIIIIIIIIIIII
  00411FE0: CC CC CC CC CC CC CC CC CC CC CC CC CC CC CC CC  IIIIIIIIIIIIIIII
  00411FF0: CC CC CC CC CC CC CC CC CC CC CC CC CC CC CC CC  IIIIIIIIIIIIIIII
  00412000: 55 8B EC E8 55 F2 FF FF 33 C0 5D C3 CC CC CC CC  U.ieUoyy3A]AIIII
  00412010: 55 8B EC E8 5F F1 FF FF E8 A5 F1 FF FF 50 E8 81  U.ie_nyye\nyyPe.
  00412020: F1 FF FF 83 C4 04 5D C3 CC CC CC CC CC CC CC CC  nyy.A.]AIIIIIIII
  00412030: 55 8B EC E8 DA F1 FF FF E8 13 00 00 00 5D C3 CC  U.ieUnyye....]AI
  00412040: CC CC CC CC CC CC CC CC CC CC CC CC CC CC CC CC  IIIIIIIIIIIIIIII
  00412050: 55 8B EC 6A FE 68 60 8F 41 00 68 30 40 41 00 64  U.ijth`.A.h0@A.d
  00412060: A1 00 00 00 00 50 83 C4 D0 53 56 57 A1 00 A0 41  !....P.ADSVW!..A
  00412070: 00 31 45 F8 33 C5 50 8D 45 F0 64 A3 00 00 00 00  .1Eo3AP.Edd....
  00412080: 89 65 E8 6A 01 E8 14 F2 FF FF 83 C4 04 0F B6 C0  .eej.e.oyy.A..A
  00412090: 85 C0 75 07 6A 07 E8 DD EF FF FF C6 45 E7 00 C7  .Au.j.eYiyyAEc.C
  004120A0: 45 FC 00 00 00 00 E8 89 F2 FF FF 88 45 E6 83 3D  Eu....e.oyy.Ea.=
  004120B0: 18 A5 41 00 01 75 09 6A 07 E8 BA EF FF FF EB 61  .\A..u.j.eoiyyea
  004120C0: 83 3D 18 A5 41 00 00 75 54 C7 05 18 A5 41 00 01  .=.\A..uTC..\A..
  004120D0: 00 00 00 68 18 76 41 00 68 0C 73 41 00 E8 C3 EF  ...h.vA.h.sA.eAi
  004120E0: FF FF 83 C4 08 85 C0 74 16 C7 45 C8 FF 00 00 00  yy.A..At.CEEy...
  004120F0: C7 45 FC FE FF FF FF 8B 45 C8 E9 4D 01 00 00 68  CEutyyy.EEeM...h
  00412100: 08 72 41 00 68 00 70 41 00 E8 DB F1 FF FF 83 C4  .rA.h.pA.eUnyy.A
  00412110: 08 C7 05 18 A5 41 00 02 00 00 00 EB 04 C6 45 E7  .C..\A.....e.AEc
  00412120: 01 0F B6 4D E6 51 E8 FF F1 FF FF 83 C4 04 E8 61  ..MaQeynyy.A.ea
  00412130: F1 FF FF 89 45 E0 8B 55 E0 83 3A 00 74 2D 8B 45  nyy.Ea.Ua.:.t-.E
  00412140: E0 50 E8 29 F2 FF FF 83 C4 04 0F B6 C8 85 C9 74  aPe)oyy.A..E.Et
  00412150: 1A 6A 00 6A 02 6A 00 8B 55 E0 8B 02 89 45 D8 8B  .j.j.j..Ua...EO.
  00412160: 4D D8 FF 15 00 C0 41 00 FF 55 D8 E8 71 EF FF FF  MOy..AA.yUOeqiyy
  00412170: 89 45 DC 8B 4D DC 83 39 00 74 21 8B 55 DC 52 E8  .EU.MU.9.t!.UURe
  00412180: EC F1 FF FF 83 C4 04 0F B6 C0 85 C0 74 0E 8B 4D  inyy.A..A.At..M
  00412190: DC 8B 11 52 E8 33 F0 FF FF 83 C4 04 E8 7F 01 00  U..Re3dyy.A.e...
  004121A0: 00 89 45 D4 E8 92 EF FF FF 0F B6 C0 85 C0 75 09  ..EOe.iyy.A.Au.
  004121B0: 8B 4D D4 51 E8 2B F1 FF FF 0F B6 55 E7 85 D2 75  .MOQe+nyy.Uc.Ou
  004121C0: 05 E8 FD EE FF FF 6A 00 6A 01 E8 AD EF FF FF 83  .eyiyyj.j.e-iyy.
  004121D0: C4 08 8B 45 D4 89 45 C4 C7 45 FC FE FF FF FF 8B  A..EO.EACEutyyy.
  004121E0: 45 C4 EB 68 C7 45 FC FE FF FF FF EB 5F 8B 4D EC  EAehCEutyyye_.Mi
  004121F0: 8B 11 8B 02 89 45 D0 8B 4D EC 51 8B 55 D0 52 E8  .....ED.MiQ.UDRe
  00412200: 68 F0 FF FF 83 C4 08 C3 8B 65 E8 8B 45 D0 89 45  hdyy.A.A.ee.ED.E
  00412210: CC E8 25 EF FF FF 0F B6 C8 85 C9 75 09 8B 55 CC  Ie%iyy.E.Eu..UI
  00412220: 52 E8 B0 EF FF FF 0F B6 45 E7 85 C0 75 05 E8 1A  Reiyy.Ec.Au.e.
  00412230: F1 FF FF 8B 4D CC 89 4D C0 C7 45 FC FE FF FF FF  nyy.MI.MACEutyyy
  00412240: 8B 45 C0 EB 07 C7 45 FC FE FF FF FF 8B 4D F0 64  .EAe.CEutyyy.Mdd
  00412250: 89 0D 00 00 00 00 59 5F 5E 5B 8B E5 5D C3 CC CC  ......Y_^[.a]AII
  00412260: CC CC CC CC CC CC CC CC CC CC CC CC CC CC CC CC  IIIIIIIIIIIIIIII
  00412270: CC CC CC CC CC CC CC CC CC CC CC CC CC CC CC CC  IIIIIIIIIIIIIIII
  00412280: CC CC CC CC CC CC CC CC CC CC CC CC CC CC CC CC  IIIIIIIIIIIIIIII
  00412290: CC CC CC CC CC CC CC CC CC CC CC CC CC CC CC CC  IIIIIIIIIIIIIIII
  004122A0: CC CC CC CC CC CC CC CC CC CC CC CC CC CC CC CC  IIIIIIIIIIIIIIII
  004122B0: CC CC CC CC CC CC CC CC CC CC CC CC CC CC CC CC  IIIIIIIIIIIIIIII
  004122C0: CC CC CC CC CC CC CC CC CC CC CC CC CC CC CC CC  IIIIIIIIIIIIIIII
  004122D0: CC CC CC CC CC CC CC CC CC CC CC CC CC CC CC CC  IIIIIIIIIIIIIIII
  004122E0: CC CC CC CC CC CC CC CC CC CC CC CC CC CC CC CC  IIIIIIIIIIIIIIII
  004122F0: 55 8B EC E8 1C ED FF FF 50 E8 F0 EF FF FF 83 C4  U.ie.iyyPediyy.A
  00412300: 04 5D C3 CC CC CC CC CC CC CC CC CC CC CC CC CC  .]AIIIIIIIIIIIII
  00412310: 55 8B EC E8 F0 EE FF FF 5D C3 CC CC CC CC CC CC  U.iediyy]AIIIIII
  00412320: 55 8B EC E8 14 ED FF FF 50 E8 5C EF FF FF 8B 00  U.ie.iyyPe\iyy..
  00412330: 50 E8 4F EF FF FF 8B 08 51 E8 79 EF FF FF 83 C4  PeOiyy..Qeyiyy.A
  00412340: 0C 5D C3 CC CC CC CC CC CC CC CC CC CC CC CC CC  .]AIIIIIIIIIIIII
  00412350: 55 8B EC 6A 01 E8 81 EE FF FF 83 C4 04 5D C3 CC  U.ij.e.iyy.A.]AI
  00412360: CC CC CC CC CC CC CC CC CC CC CC CC CC CC CC CC  IIIIIIIIIIIIIIII
  00412370: 55 8B EC 56 E8 13 ED FF FF 8B F0 E8 9D ED FF FF  U.iVe.iyy.de.iyy
  00412380: 89 30 5E 5D C3 CC CC CC CC CC CC CC CC CC CC CC  .0^]AIIIIIIIIIII
  00412390: 55 8B EC E8 C9 EF FF FF 50 E8 66 ED FF FF 83 C4  U.ieEiyyPefiyy.A
  004123A0: 04 5D C3 CC CC CC CC CC CC CC CC CC CC CC CC CC  .]AIIIIIIIIIIIII
  004123B0: 55 8B EC E8 78 FC FF FF 5D C3 CC CC CC CC CC CC  U.iexuyy]AIIIIII
  004123C0: 55 8B EC 83 EC 1C 8B 45 08 89 45 E8 8D 45 FF 89  U.i.i..E..Ee.Ey.
  004123D0: 45 EC 8D 45 E4 50 C6 45 FF 00 C7 45 E4 01 10 00  Ei.EaPAEy.CEa...
  004123E0: 00 E8 2A 06 00 00 83 C4 04 80 7D FF 00 0F 95 C0  .e*....A..}y...A
  004123F0: 8B E5 5D C3 CC CC CC CC CC CC CC CC CC CC CC CC  .a]AIIIIIIIIIIII
  00412400: CC CC CC CC CC CC CC CC CC CC CC CC CC CC CC CC  IIIIIIIIIIIIIIII
  00412410: 55 8B EC 83 EC 1C 8B 45 08 89 45 E8 8B 45 0C 89  U.i.i..E..Ee.E..
  00412420: 45 EC 8B 45 10 89 45 F0 8D 45 FF 89 45 F4 8B 45  Ei.E..Ed.Ey.Eo.E
  00412430: 14 89 45 F8 8D 45 E4 50 C6 45 FF 00 C7 45 E4 02  ..Eo.EaPAEy.CEa.
  00412440: 10 00 00 E8 C8 05 00 00 83 C4 04 80 7D FF 00 0F  ...eE....A..}y..
  00412450: 95 C0 8B E5 5D C3 CC CC CC CC CC CC CC CC CC CC  .A.a]AIIIIIIIIII
  00412460: CC CC CC CC CC CC CC CC CC CC CC CC CC CC CC CC  IIIIIIIIIIIIIIII
  00412470: 55 8B EC 81 EC 44 01 00 00 A1 00 A0 41 00 33 C5  U.i.iD...!..A.3A
  00412480: 89 45 FC 8B 45 08 53 8B 5D 0C 57 8B 3D 1C A0 41  .Eu.E.S.].W.=..A
  00412490: 00 89 85 BC FE FF FF 83 FF FF 0F 84 A6 00 00 00  ...?tyy.yy..|...
  004124A0: 85 DB 75 21 68 E8 80 41 00 6A 04 57 50 E8 DE 02  .Uu!he.A.j.WPeT.
  004124B0: 00 00 83 C4 10 5F 5B 8B 4D FC 33 CD E8 CE ED FF  ...A._[.Mu3IeIiy
  004124C0: FF 8B E5 5D C3 8B 43 0C 56 83 E8 24 8D 73 20 50  y.a]A.C.V.e$.s P
  004124D0: 56 8D 45 B4 50 8D 45 E8 50 E8 02 02 00 00 68 40  V.ELP.EePe....h@
  004124E0: 81 41 00 8D 45 B4 50 68 44 81 41 00 8D 45 E8 50  .A..ELPhD.A..EeP
  004124F0: 8B 43 0C 68 48 81 41 00 FF 75 10 83 E8 24 68 54  .C.hH.A.yu..e$hT
  00412500: 81 41 00 50 68 88 81 41 00 56 68 94 81 41 00 68  .A.Ph..A.Vh..A.h
  00412510: A8 81 41 00 68 00 82 41 00 8D 85 C0 FE FF FF 68  N.A.h..A...Atyyh
  00412520: F4 00 00 00 50 E8 F1 ED FF FF 83 C4 4C 8D 85 C0  o...Peniyy.AL..A
  00412530: FE FF FF 50 6A 04 57 FF B5 BC FE FF FF E8 4E 02  tyyPj.Wy?tyyeN.
  00412540: 00 00 83 C4 10 5E 8B 4D FC 5F 33 CD 5B E8 3D ED  ...A.^.Mu_3I[e=i
  00412550: FF FF 8B E5 5D C3 CC CC CC CC CC CC CC CC CC CC  yy.a]AIIIIIIIIII
  00412560: CC CC CC CC CC CC CC CC CC CC CC CC CC CC CC CC  IIIIIIIIIIIIIIII
  00412570: CC CC CC CC CC CC CC CC CC CC CC CC CC CC CC CC  IIIIIIIIIIIIIIII
  00412580: CC CC CC CC CC CC CC CC CC CC CC CC CC CC CC CC  IIIIIIIIIIIIIIII
  00412590: 55 8B EC 8B 45 0C 83 F8 04 77 23 8B 0C 85 0C A0  U.i.E..o.w#.....
  004125A0: 41 00 8B 14 85 A4 7B 41 00 83 F9 FF 74 2E 52 50  A....?{A..uyt.RP
  004125B0: 51 FF 75 08 E8 D7 01 00 00 83 C4 10 5D C3 8B 15  Qyu.e~....A.]A..
  004125C0: B8 7B 41 00 B8 05 00 00 00 52 50 B9 01 00 00 00  C{A.C....RP1....
  004125D0: 51 FF 75 08 E8 B7 01 00 00 83 C4 10 5D C3 CC CC  Qyu.eE....A.]AII
  004125E0: CC CC CC CC CC CC CC CC CC CC CC CC CC CC CC CC  IIIIIIIIIIIIIIII
  004125F0: CC CC CC CC CC CC CC CC CC CC CC CC CC CC CC CC  IIIIIIIIIIIIIIII
  00412600: 55 8B EC 81 EC 04 04 00 00 A1 00 A0 41 00 33 C5  U.i.i....!..A.3A
  00412610: 89 45 FC 53 8B 5D 08 56 8B 75 0C 57 8B 3D 14 A0  .EuS.].V.u.W.=..
  00412620: 41 00 83 FF FF 74 73 80 3E 00 74 5C 56 E8 3E 01  A..yyts.>.t\Ve>.
  00412630: 00 00 83 C0 2D 83 C4 04 3D 00 04 00 00 77 49 68  ...A-.A.=....wIh
  00412640: D4 7B 41 00 8D 85 FC FB FF FF 68 00 04 00 00 50  O{A...uuyyh....P
  00412650: E8 0F EA FF FF 56 8D 85 FC FB FF FF 68 00 04 00  e.eyyV..uuyyh...
  00412660: 00 50 E8 07 EA FF FF 68 F0 7B 41 00 8D 85 FC FB  .Pe.eyyhd{A...uu
  00412670: FF FF 68 00 04 00 00 50 E8 F1 E9 FF FF 83 C4 24  yyh....Peneyy.A$
  00412680: 8D 85 FC FB FF FF EB 05 B8 B0 80 41 00 50 6A 02  ..uuyye.C.A.Pj.
  00412690: 57 53 E8 F9 00 00 00 83 C4 10 8B 4D FC 5F 5E 33  WSeu....A..Mu_^3
  004126A0: CD 5B E8 E8 EB FF FF 8B E5 5D C3 CC CC CC CC CC  I[eeeyy.a]AIIIII
  004126B0: CC CC CC CC CC CC CC CC CC CC CC CC CC CC CC CC  IIIIIIIIIIIIIIII
  004126C0: CC CC CC CC CC CC CC CC CC CC CC CC CC CC CC CC  IIIIIIIIIIIIIIII
  004126D0: CC CC CC CC CC CC CC CC CC CC CC CC CC CC CC CC  IIIIIIIIIIIIIIII
  004126E0: 55 8B EC 83 EC 08 33 C9 53 8B 5D 10 8D 51 31 56  U.i.i.3ES.]..Q1V
  004126F0: 8B 75 08 2B DE 57 8B 7D 0C 89 5D 10 8B 45 14 89  .u.+TW.}..]..E..
  00412700: 55 F8 89 4D FC 83 F8 10 72 05 B8 10 00 00 00 3B  Uo.Mu.o.r.C....;
  00412710: C8 73 2B 8A 1C 33 0F B6 C3 50 68 E0 80 41 00 52  Es+..3.APha.A.R
  00412720: 57 E8 F5 EB FF FF 8B 4D FC 83 C4 10 8B 55 F8 41  Weoeyy.Mu.A..UoA
  00412730: 88 1E 83 C7 03 8B 5D 10 46 83 EA 03 EB BE C6 06  ...C..].F.e.e?A.
  00412740: 00 C6 07 00 5F 5E 5B 8B E5 5D C3 CC CC CC CC CC  .A.._^[.a]AIIIII
  00412750: CC CC CC CC CC CC CC CC CC CC CC CC CC CC CC CC  IIIIIIIIIIIIIIII
  00412760: CC CC CC CC CC CC CC CC CC CC CC CC CC CC CC CC  IIIIIIIIIIIIIIII
  00412770: 55 8B EC 8B 55 08 8B C2 8A 08 40 84 C9 75 F9 2B  U.i.U..A..@.Euu+
  00412780: C2 48 5D C3 CC CC CC CC CC CC CC CC CC CC CC CC  AH]AIIIIIIIIIIII
  00412790: 55 8B EC 81 EC 3C 0E 00 00 A1 00 A0 41 00 33 C5  U.i.i<...!..A.3A
  004127A0: 89 45 FC 8B 45 10 53 8B 5D 14 56 8B 75 08 57 56  .Eu.E.S.].V.u.WV
  004127B0: 89 85 D0 F1 FF FF 89 9D C4 F1 FF FF C7 85 CC F1  ..Dnyy..AnyyC.In
  004127C0: FF FF 00 00 00 00 E8 02 E9 FF FF 8B F8 83 C4 04  yy....e.eyy.o.A.
  004127D0: 85 FF 75 0F 56 E8 3C EB FF FF 83 C4 04 89 85 CC  .yu.Ve<eyy.A...I
  004127E0: F1 FF FF 6A 00 6A 00 6A FF 53 6A 00 68 E9 FD 00  nyyj.j.jySj.hey.
  004127F0: 00 FF 15 08 B0 41 00 3D 00 02 00 00 73 22 50 8D  .y..A.=....s"P.
  00412800: 85 D4 F1 FF FF 50 6A FF 53 6A 00 68 E9 FD 00 00  .OnyyPjySj.hey..
  00412810: FF 15 08 B0 41 00 8D 9D D4 F1 FF FF 85 C0 75 05  y..A...Onyy.Au.
  00412820: BB 88 7F 41 00 68 02 10 00 00 E8 91 FB FF FF 83  ..A.h....e.uyy.
  00412830: C4 04 84 C0 74 22 8B 85 D0 F1 FF FF 53 56 FF 34  A..At"..DnyySVy4
  00412840: 85 BC 7B 41 00 50 E8 C5 FB FF FF 83 C4 10 84 C0  .?{A.PeAuyy.A..A
  00412850: 0F 85 27 01 00 00 EB 02 B0 01 83 BD CC F1 FF FF  ..'...e...?Inyy
  00412860: 00 75 08 85 FF 0F 84 11 01 00 00 84 C0 74 0E FF  .u..y.......At.y
  00412870: 15 38 B0 41 00 85 C0 0F 85 FF 00 00 00 68 04 01  .8A..A..y...h..
  00412880: 00 00 8D 85 EC FB FF FF 50 8D 85 C8 F1 FF FF 50  ....iuyyP..EnyyP
  00412890: 68 04 01 00 00 8D 85 F4 FD FF FF 50 8D 46 FB 50  h......oyyyP.FuP
  004128A0: E8 99 EA FF FF 83 C4 18 85 FF 74 32 53 FF B5 D0  e.eyy.A..yt2SyD
  004128B0: F1 FF FF 8D 85 EC FB FF FF 8B CF 68 10 80 41 00  nyy..iuyy.Ih..A.
  004128C0: 50 FF B5 C8 F1 FF FF 8D 85 F4 FD FF FF 50 FF 75  PyEnyy..oyyyPyu
  004128D0: 0C FF 15 00 C0 41 00 FF D7 E9 96 00 00 00 6A 00  .y..AA.y~e....j.
  004128E0: 6A 00 68 0A 03 00 00 8D 85 E0 F8 FF FF BE 5C 80  j.h......aoyy?\.
  004128F0: 41 00 50 6A FF 8D 85 F4 FD FF FF 50 6A 00 68 E9  A.Pjy..oyyyPj.he
  00412900: FD 00 00 FF 15 0C B0 41 00 85 C0 74 06 8D B5 E0  y..y..A..At..a
  00412910: F8 FF FF 6A 00 6A 00 68 0A 03 00 00 8D 85 D4 F5  oyyj.j.h......Oo
  00412920: FF FF BF 70 80 41 00 50 6A FF 8D 85 EC FB FF FF  yy?p.A.Pjy..iuyy
  00412930: 50 6A 00 68 E9 FD 00 00 FF 15 0C B0 41 00 85 C0  Pj.hey..y..A..A
  00412940: 74 06 8D BD D4 F5 FF FF FF B5 C4 F1 FF FF 8B 9D  t..?OoyyyAnyy..
  00412950: CC F1 FF FF 8B CB FF B5 D0 F1 FF FF 68 88 80 41  Inyy.EyDnyyh..A
  00412960: 00 57 FF B5 C8 F1 FF FF 56 FF 75 0C FF 15 00 C0  .WyEnyyVyu.y..A
  00412970: 41 00 FF D3 83 C4 1C 83 F8 01 75 01 CC 8B 4D FC  A.yO.A..o.u.I.Mu
  00412980: 5F 5E 33 CD 5B E8 05 E9 FF FF 8B E5 5D C3 CC CC  _^3I[e.eyy.a]AII
  00412990: CC CC CC CC CC CC CC CC CC CC CC CC CC CC CC CC  IIIIIIIIIIIIIIII
  004129A0: CC CC CC CC CC CC CC CC CC CC CC CC CC CC CC CC  IIIIIIIIIIIIIIII
  004129B0: CC CC CC CC CC CC CC CC CC CC CC CC CC CC CC CC  IIIIIIIIIIIIIIII
  004129C0: CC CC CC CC CC CC CC CC CC CC CC CC CC CC CC CC  IIIIIIIIIIIIIIII
  004129D0: CC CC CC CC CC CC CC CC CC CC CC CC CC CC CC CC  IIIIIIIIIIIIIIII
  004129E0: CC CC CC CC CC CC CC CC CC CC CC CC CC CC CC CC  IIIIIIIIIIIIIIII
  004129F0: CC CC CC CC CC CC CC CC CC CC CC CC CC CC CC CC  IIIIIIIIIIIIIIII
  00412A00: CC CC CC CC CC CC CC CC CC CC CC CC CC CC CC CC  IIIIIIIIIIIIIIII
  00412A10: 55 8B EC 6A FE 68 80 8F 41 00 68 F0 4A 41 00 64  U.ijth..A.hdJA.d
  00412A20: A1 00 00 00 00 50 83 EC 08 53 56 57 A1 00 A0 41  !....P.i.SVW!..A
  00412A30: 00 31 45 F8 33 C5 50 8D 45 F0 64 A3 00 00 00 00  .1Eo3AP.Edd....
  00412A40: 89 65 E8 C7 45 FC 00 00 00 00 FF 75 08 6A 06 6A  .eeCEu....yu.j.j
  00412A50: 00 68 88 13 6D 40 FF 15 04 B0 41 00 EB 16 8B 45  .h..m@y..A.e..E
  00412A60: EC 8B 00 33 C9 81 38 88 13 6D 40 0F 94 C1 8B C1  i..3E.8..m@..A.A
  00412A70: C3 8B 65 E8 C7 45 FC FE FF FF FF 8B 4D F0 64 89  A.eeCEutyyy.Mdd.
  00412A80: 0D 00 00 00 00 59 5F 5E 5B 8B E5 5D C3 CC CC CC  .....Y_^[.a]AIII
  00412A90: CC CC CC CC CC CC CC CC CC CC CC CC CC CC CC CC  IIIIIIIIIIIIIIII
  00412AA0: CC CC CC CC CC CC CC CC CC CC CC CC CC CC CC CC  IIIIIIIIIIIIIIII
  00412AB0: 55 8B EC 81 EC 04 04 00 00 A1 00 A0 41 00 33 C5  U.i.i....!..A.3A
  00412AC0: 89 45 FC 56 8B 75 08 57 8B 3D 18 A0 41 00 83 FF  .EuV.u.W.=..A..y
  00412AD0: FF 74 75 85 F6 74 5C 56 E8 93 FC FF FF 83 C0 3A  ytu.ot\Ve.uyy.A:
  00412AE0: 83 C4 04 3D 00 04 00 00 77 49 68 04 7C 41 00 8D  .A.=....wIh.|A..
  00412AF0: 85 FC FB FF FF 68 00 04 00 00 50 E8 64 E5 FF FF  .uuyyh....Pedayy
  00412B00: 56 8D 85 FC FB FF FF 68 00 04 00 00 50 E8 5C E5  V..uuyyh....Pe\a
  00412B10: FF FF 68 14 7C 41 00 8D 85 FC FB FF FF 68 00 04  yyh.|A...uuyyh..
  00412B20: 00 00 50 E8 46 E5 FF FF 83 C4 24 8D 85 FC FB FF  ..PeFayy.A$..uuy
  00412B30: FF EB 05 B8 20 82 41 00 50 8B 45 04 6A 03 57 50  ye.C .A.P.E.j.WP
  00412B40: E8 4B FC FF FF 83 C4 10 8B 4D FC 5F 33 CD 5E E8  eKuyy.A..Mu_3I^e
  00412B50: 3B E7 FF FF 8B E5 5D C3 CC CC CC CC CC CC CC CC  ;cyy.a]AIIIIIIII
  00412B60: CC CC CC CC CC CC CC CC CC CC CC CC CC CC CC CC  IIIIIIIIIIIIIIII
  00412B70: CC CC CC CC CC CC CC CC CC CC CC CC CC CC CC CC  IIIIIIIIIIIIIIII
  00412B80: CC CC CC CC CC CC CC CC CC CC CC CC CC CC CC CC  IIIIIIIIIIIIIIII
  00412B90: 55 8B EC E8 BF E7 FF FF FF 75 18 FF 75 14 FF 75  U.ie?cyyyu.yu.yu
  00412BA0: 10 FF 75 0C FF 75 08 FF 70 04 FF 30 E8 C1 E5 FF  .yu.yu.yp.y0eAay
  00412BB0: FF 83 C4 1C 85 C0 79 03 83 C8 FF 5D C3 CC CC CC  y.A..Ay..Ey]AIII
  00412BC0: CC CC CC CC CC CC CC CC CC CC CC CC CC CC CC CC  IIIIIIIIIIIIIIII
  00412BD0: 55 8B EC 8D 45 14 50 6A 00 FF 75 10 FF 75 0C FF  U.i.E.Pj.yu.yu.y
  00412BE0: 75 08 E8 72 E5 FF FF 83 C4 14 5D C3 CC CC CC CC  u.erayy.A.]AIIII
  00412BF0: CC CC CC CC CC CC CC CC CC CC CC CC CC CC CC CC  IIIIIIIIIIIIIIII
  00412C00: 55 8B EC 6A 00 FF 15 14 B0 41 00 8B 45 08 50 FF  U.ij.y..A..E.Py
  00412C10: 15 10 B0 41 00 68 09 04 00 C0 FF 15 58 B0 41 00  ..A.h...Ay.XA.
  00412C20: 50 FF 15 54 B0 41 00 5D C3 CC CC CC CC CC CC CC  Py.TA.]AIIIIIII
  00412C30: CC CC CC CC CC CC CC CC CC CC CC CC CC CC CC CC  IIIIIIIIIIIIIIII
  00412C40: 55 8B EC 81 EC 24 03 00 00 6A 17 E8 BC E6 FF FF  U.i.i$...j.e?ayy
  00412C50: 85 C0 74 07 B9 02 00 00 00 CD 29 A3 50 A2 41 00  .At.1....I)PA.
  00412C60: 89 0D 4C A2 41 00 89 15 48 A2 41 00 89 1D 44 A2  ..LA...HA...D
  00412C70: 41 00 89 35 40 A2 41 00 89 3D 3C A2 41 00 66 8C  A..5@A..=<A.f.
  00412C80: 15 68 A2 41 00 66 8C 0D 5C A2 41 00 66 8C 1D 38  .hA.f..\A.f..8
  00412C90: A2 41 00 66 8C 05 34 A2 41 00 66 8C 25 30 A2 41  A.f..4A.f.%0A
  00412CA0: 00 66 8C 2D 2C A2 41 00 9C 8F 05 60 A2 41 00 8B  .f.-,A....`A..
  00412CB0: 45 00 A3 54 A2 41 00 8B 45 04 A3 58 A2 41 00 8D  E.TA..E.XA..
  00412CC0: 45 08 A3 64 A2 41 00 8B 85 DC FC FF FF C7 05 A0  E.dA...UuyyC..
  00412CD0: A1 41 00 01 00 01 00 A1 58 A2 41 00 A3 5C A1 41  !A.....!XA.\!A
  00412CE0: 00 C7 05 50 A1 41 00 09 04 00 C0 C7 05 54 A1 41  .C.P!A....AC.T!A
  00412CF0: 00 01 00 00 00 C7 05 60 A1 41 00 01 00 00 00 B9  .....C.`!A.....1
  00412D00: 04 00 00 00 6B D1 00 C7 82 64 A1 41 00 02 00 00  ....kN.C.d!A....
  00412D10: 00 B8 04 00 00 00 6B C8 00 8B 15 00 A0 41 00 89  .C....kE.....A..
  00412D20: 54 0D F8 B8 04 00 00 00 C1 E0 00 8B 0D 04 A0 41  T.oC....Aa.....A
  00412D30: 00 89 4C 05 F8 68 60 82 41 00 E8 A6 E4 FF FF 8B  ..L.oh`.A.e|ayy.
  00412D40: E5 5D C3 CC CC CC CC CC CC CC CC CC CC CC CC CC  a]AIIIIIIIIIIIII
  00412D50: CC CC CC CC CC CC CC CC CC CC CC CC CC CC CC CC  IIIIIIIIIIIIIIII
  00412D60: CC CC CC CC CC CC CC CC CC CC CC CC CC CC CC CC  IIIIIIIIIIIIIIII
  00412D70: CC CC CC CC CC CC CC CC CC CC CC CC CC CC CC CC  IIIIIIIIIIIIIIII
  00412D80: CC CC CC CC CC CC CC CC CC CC CC CC CC CC CC CC  IIIIIIIIIIIIIIII
  00412D90: 55 8B EC 6A 08 E8 60 E3 FF FF 5D C3 CC CC CC CC  U.ij.e`ayy]AIIII
  00412DA0: 55 8B EC 81 EC 1C 03 00 00 6A 17 E8 5C E5 FF FF  U.i.i....j.e\ayy
  00412DB0: 85 C0 74 05 8B 4D 08 CD 29 A3 50 A2 41 00 89 0D  .At..M.I)PA...
  00412DC0: 4C A2 41 00 89 15 48 A2 41 00 89 1D 44 A2 41 00  LA...HA...DA.
  00412DD0: 89 35 40 A2 41 00 89 3D 3C A2 41 00 66 8C 15 68  .5@A..=<A.f..h
  00412DE0: A2 41 00 66 8C 0D 5C A2 41 00 66 8C 1D 38 A2 41  A.f..\A.f..8A
  00412DF0: 00 66 8C 05 34 A2 41 00 66 8C 25 30 A2 41 00 66  .f..4A.f.%0A.f
  00412E00: 8C 2D 2C A2 41 00 9C 8F 05 60 A2 41 00 8B 45 00  .-,A....`A..E.
  00412E10: A3 54 A2 41 00 8B 45 04 A3 58 A2 41 00 8D 45 08  TA..E.XA..E.
  00412E20: A3 64 A2 41 00 8B 85 E4 FC FF FF A1 58 A2 41 00  dA...auyy!XA.
  00412E30: A3 5C A1 41 00 C7 05 50 A1 41 00 09 04 00 C0 C7  \!A.C.P!A....AC
  00412E40: 05 54 A1 41 00 01 00 00 00 C7 05 60 A1 41 00 01  .T!A.....C.`!A..
  00412E50: 00 00 00 B9 04 00 00 00 6B D1 00 8B 45 08 89 82  ...1....kN..E...
  00412E60: 64 A1 41 00 68 60 82 41 00 E8 77 E3 FF FF 8B E5  d!A.h`.A.ewayy.a
  00412E70: 5D C3 CC CC CC CC CC CC CC CC CC CC CC CC CC CC  ]AIIIIIIIIIIIIII
  00412E80: CC CC CC CC CC CC CC CC CC CC CC CC CC CC CC CC  IIIIIIIIIIIIIIII
  00412E90: CC CC CC CC CC CC CC CC CC CC CC CC CC CC CC CC  IIIIIIIIIIIIIIII
  00412EA0: CC CC CC CC CC CC CC CC CC CC CC CC CC CC CC CC  IIIIIIIIIIIIIIII
  00412EB0: 55 8B EC 81 EC 20 03 00 00 6A 17 E8 4C E4 FF FF  U.i.i ...j.eLayy
  00412EC0: 85 C0 74 05 8B 4D 08 CD 29 A3 50 A2 41 00 89 0D  .At..M.I)PA...
  00412ED0: 4C A2 41 00 89 15 48 A2 41 00 89 1D 44 A2 41 00  LA...HA...DA.
  00412EE0: 89 35 40 A2 41 00 89 3D 3C A2 41 00 66 8C 15 68  .5@A..=<A.f..h
  00412EF0: A2 41 00 66 8C 0D 5C A2 41 00 66 8C 1D 38 A2 41  A.f..\A.f..8A
  00412F00: 00 66 8C 05 34 A2 41 00 66 8C 25 30 A2 41 00 66  .f..4A.f.%0A.f
  00412F10: 8C 2D 2C A2 41 00 9C 8F 05 60 A2 41 00 8B 45 00  .-,A....`A..E.
  00412F20: A3 54 A2 41 00 8B 45 04 A3 58 A2 41 00 8D 45 08  TA..E.XA..E.
  00412F30: A3 64 A2 41 00 8B 85 E0 FC FF FF A1 58 A2 41 00  dA...auyy!XA.
  00412F40: A3 5C A1 41 00 C7 05 50 A1 41 00 09 04 00 C0 C7  \!A.C.P!A....AC
  00412F50: 05 54 A1 41 00 01 00 00 00 83 7D 0C 00 76 0D 83  .T!A......}..v..
  00412F60: 7D 10 00 75 07 C7 45 0C 00 00 00 00 83 7D 0C 0E  }..u.CE......}..
  00412F70: 76 09 8B 4D 0C 83 E9 01 89 4D 0C 8B 55 0C 83 C2  v..M..e..M..U..A
  00412F80: 01 89 15 60 A1 41 00 B8 04 00 00 00 6B C8 00 8B  ...`!A.C....kE..
  00412F90: 55 08 89 91 64 A1 41 00 C7 45 FC 00 00 00 00 EB  U...d!A.CEu....e
  00412FA0: 09 8B 45 FC 83 C0 01 89 45 FC 8B 4D FC 3B 4D 0C  ..Eu.A..Eu.Mu;M.
  00412FB0: 73 15 8B 55 FC 8B 45 FC 8B 4D 10 8B 04 81 89 04  s..Uu.Eu.M......
  00412FC0: 95 68 A1 41 00 EB DA 68 60 82 41 00 E8 14 E2 FF  .h!A.eUh`.A.e.ay
  00412FD0: FF 8B E5 5D C3 CC CC CC CC CC CC CC CC CC CC CC  y.a]AIIIIIIIIIII
  00412FE0: CC CC CC CC CC CC CC CC CC CC CC CC CC CC CC CC  IIIIIIIIIIIIIIII
  00412FF0: CC CC CC CC CC CC CC CC CC CC CC CC CC CC CC CC  IIIIIIIIIIIIIIII
  00413000: CC CC CC CC CC CC CC CC CC CC CC CC CC CC CC CC  IIIIIIIIIIIIIIII
  00413010: CC CC CC CC CC CC CC CC CC CC CC CC CC CC CC CC  IIIIIIIIIIIIIIII
  00413020: A1 0C A5 41 00 C3 CC CC CC CC CC CC CC CC CC CC  !.\A.AIIIIIIIIII
  00413030: A1 10 A5 41 00 C3 CC CC CC CC CC CC CC CC CC CC  !.\A.AIIIIIIIIII
  00413040: 55 8B EC 8B 45 08 83 F8 04 77 09 8B 04 85 6C 82  U.i.E..o.w....l.
  00413050: 41 00 5D C3 33 C0 5D C3 CC CC CC CC CC CC CC CC  A.]A3A]AIIIIIIII
  00413060: B8 05 00 00 00 C3 CC CC CC CC CC CC CC CC CC CC  C....AIIIIIIIIII
  00413070: 55 8B EC A1 0C A5 41 00 8B 4D 08 89 0D 0C A5 41  U.i!.\A..M....\A
  00413080: 00 C7 05 10 A5 41 00 00 00 00 00 5D C3 CC CC CC  .C..\A.....]AIII
  00413090: CC CC CC CC CC CC CC CC CC CC CC CC CC CC CC CC  IIIIIIIIIIIIIIII
  004130A0: 55 8B EC A1 10 A5 41 00 8B 4D 08 89 0D 10 A5 41  U.i!.\A..M....\A
  004130B0: 00 C7 05 0C A5 41 00 00 00 00 00 5D C3 CC CC CC  .C..\A.....]AIII
  004130C0: CC CC CC CC CC CC CC CC CC CC CC CC CC CC CC CC  IIIIIIIIIIIIIIII
  004130D0: 55 8B EC 8B 55 08 83 FA 04 77 13 8B 04 95 0C A0  U.i.U..u.w......
  004130E0: 41 00 8B 4D 0C 89 0C 95 0C A0 41 00 5D C3 83 C8  A..M......A.]A.E
  004130F0: FF 5D C3 CC CC CC CC CC CC CC CC CC CC CC CC CC  y]AIIIIIIIIIIIII
  00413100: 55 8B EC A1 00 A0 41 00 33 D2 B9 20 00 00 00 F7  U.i!..A.3O1 ...
  00413110: F1 52 8B 55 08 33 15 00 A0 41 00 52 E8 97 E0 FF  nR.U.3...A.Re.ay
  00413120: FF 83 C4 08 5D C3 CC CC CC CC CC CC CC CC CC CC  y.A.]AIIIIIIIIII
  00413130: 55 8B EC A1 00 A0 41 00 33 D2 B9 20 00 00 00 F7  U.i!..A.3O1 ...
  00413140: F1 B8 20 00 00 00 2B C2 50 8B 4D 08 51 E8 66 E0  nC ...+AP.M.Qefa
  00413150: FF FF 83 C4 08 33 05 00 A0 41 00 5D C3 CC CC CC  yy.A.3...A.]AIII
  00413160: CC CC CC CC CC CC CC CC CC CC CC CC CC CC CC CC  IIIIIIIIIIIIIIII
  00413170: 55 8B EC 8B 45 08 8B 4D 0C D3 C8 5D C3 CC CC CC  U.i.E..M.OE]AIII
  00413180: 55 8B EC 83 EC 18 8B 45 08 89 45 F4 8B 4D F4 8B  U.i.i..E..Eo.Mo.
  00413190: 55 F4 03 51 3C 89 55 EC 8B 45 EC 89 45 F8 8B 4D  Uo.Q<.Ui.Ei.Eo.M
  004131A0: F8 0F B7 51 14 8B 45 F8 8D 4C 10 18 89 4D F0 8B  o.EQ..Eo.L...Md.
  004131B0: 55 F8 0F B7 42 06 6B C8 28 03 4D F0 89 4D E8 8B  Uo.EB.kE(.Md.Me.
  004131C0: 55 F0 89 55 FC EB 09 8B 45 FC 83 C0 28 89 45 FC  Ud.Uue..Eu.A(.Eu
  004131D0: 8B 4D FC 3B 4D E8 74 23 8B 55 FC 8B 45 0C 3B 42  .Mu;Met#.Uu.E.;B
  004131E0: 0C 72 16 8B 4D FC 8B 51 0C 8B 45 FC 03 50 08 39  .r..Mu.Q..Eu.P.9
  004131F0: 55 0C 73 05 8B 45 FC EB 04 EB CC 33 C0 8B E5 5D  U.s..Eue.eI3A.a]
  00413200: C3 CC CC CC CC CC CC CC CC CC CC CC CC CC CC CC  AIIIIIIIIIIIIIII
  00413210: CC CC CC CC CC CC CC CC CC CC CC CC CC CC CC CC  IIIIIIIIIIIIIIII
  00413220: CC CC CC CC CC CC CC CC CC CC CC CC CC CC CC CC  IIIIIIIIIIIIIIII
  00413230: 55 8B EC 83 EC 10 83 7D 08 00 75 04 32 C0 EB 55  U.i.i..}..u.2AeU
  00413240: 8B 45 08 89 45 FC 8B 4D FC 0F B7 11 81 FA 4D 5A  .E..Eu.Mu.E..uMZ
  00413250: 00 00 74 04 32 C0 EB 3D 8B 45 FC 8B 4D FC 03 48  ..t.2Ae=.Eu.Mu.H
  00413260: 3C 89 4D F4 8B 55 F4 89 55 F8 8B 45 F8 81 38 50  <.Mo.Uo.Uo.Eo.8P
  00413270: 45 00 00 74 04 32 C0 EB 1C 8B 4D F8 83 C1 18 89  E..t.2Ae..Mo.A..
  00413280: 4D F0 8B 55 F0 0F B7 02 3D 0B 01 00 00 74 04 32  Md.Ud.E.=....t.2
  00413290: C0 EB 02 B0 01 8B E5 5D C3 CC CC CC CC CC CC CC  Ae...a]AIIIIIII
  004132A0: CC CC CC CC CC CC CC CC CC CC CC CC CC CC CC CC  IIIIIIIIIIIIIIII
  004132B0: CC CC CC CC CC CC CC CC CC CC CC CC CC CC CC CC  IIIIIIIIIIIIIIII
  004132C0: 55 8B EC 64 A1 18 00 00 00 5D C3 CC CC CC CC CC  U.id!....]AIIIII
  004132D0: 55 8B EC 83 EC 08 E8 A2 DD FF FF 85 C0 75 04 32  U.i.i.eYyy.Au.2
  004132E0: C0 EB 32 E8 9F DD FF FF 8B 40 04 89 45 FC 8B 4D  Ae2e.Yyy.@..Eu.M
  004132F0: FC BA 1C A5 41 00 33 C0 F0 0F B1 0A 89 45 F8 83  uo.\A.3Ad.}..Eo.
  00413300: 7D F8 00 74 0E 8B 45 FC 3B 45 F8 75 04 B0 01 EB  }o.t..Eu;Eou..e
  00413310: 04 EB DB 32 C0 8B E5 5D C3 CC CC CC CC CC CC CC  .eU2A.a]AIIIIIII
  00413320: CC CC CC CC CC CC CC CC CC CC CC CC CC CC CC CC  IIIIIIIIIIIIIIII
  00413330: 55 8B EC E8 45 DD FF FF 85 C0 74 07 E8 E6 DD FF  U.ieEYyy.At.eaYy
  00413340: FF EB 12 E8 1A DF FF FF 85 C0 74 04 32 C0 EB 07  ye.e.syy.At.2Ae.
  00413350: E8 BC DF FF FF B0 01 5D C3 CC CC CC CC CC CC CC  e?syy.]AIIIIIII
  00413360: CC CC CC CC CC CC CC CC CC CC CC CC CC CC CC CC  IIIIIIIIIIIIIIII
  00413370: 55 8B EC 6A 00 E8 C0 DE FF FF 83 C4 04 0F B6 C0  U.ij.eATyy.A..A
  00413380: 85 C0 75 04 32 C0 EB 02 B0 01 5D C3 CC CC CC CC  .Au.2Ae..]AIIII
  00413390: CC CC CC CC CC CC CC CC CC CC CC CC CC CC CC CC  IIIIIIIIIIIIIIII
  004133A0: 55 8B EC E8 0A DF FF FF 0F B6 C0 85 C0 75 04 32  U.ie.syy.A.Au.2
  004133B0: C0 EB 17 E8 51 DD FF FF 0F B6 C8 85 C9 75 09 E8  Ae.eQYyy.E.Eu.e
  004133C0: D7 DC FF FF 32 C0 EB 02 B0 01 5D C3 CC CC CC CC  ~Uyy2Ae..]AIIII
  004133D0: CC CC CC CC CC CC CC CC CC CC CC CC CC CC CC CC  IIIIIIIIIIIIIIII
  004133E0: 55 8B EC E8 7B DD FF FF E8 AE DC FF FF B0 01 5D  U.ie{YyyeRUyy.]
  004133F0: C3 CC CC CC CC CC CC CC CC CC CC CC CC CC CC CC  AIIIIIIIIIIIIIII
  00413400: 55 8B EC 51 E8 74 DC FF FF 85 C0 75 22 83 7D 0C  U.iQetUyy.Au".}.
  00413410: 01 75 1C 8B 45 10 50 6A 00 8B 4D 08 51 8B 55 14  .u..E.Pj..M.Q.U.
  00413420: 89 55 FC 8B 4D FC FF 15 00 C0 41 00 FF 55 FC 8B  .Uu.Muy..AA.yUu.
  00413430: 45 1C 50 8B 4D 18 51 E8 35 DE FF FF 83 C4 08 8B  E.P.M.Qe5Tyy.A..
  00413440: E5 5D C3 CC CC CC CC CC CC CC CC CC CC CC CC CC  a]AIIIIIIIIIIIII
  00413450: CC CC CC CC CC CC CC CC CC CC CC CC CC CC CC CC  IIIIIIIIIIIIIIII
  00413460: 55 8B EC E8 15 DC FF FF 85 C0 74 0F 68 20 A5 41  U.ie.Uyy.At.h \A
  00413470: 00 E8 E6 DE FF FF 83 C4 04 EB 0E E8 5A DE FF FF  .eaTyy.A.e.eZTyy
  00413480: 85 C0 75 05 E8 3A DC FF FF 5D C3 CC CC CC CC CC  .Au.e:Uyy]AIIIII
  00413490: CC CC CC CC CC CC CC CC CC CC CC CC CC CC CC CC  IIIIIIIIIIIIIIII
  004134A0: 55 8B EC 6A 00 E8 64 DC FF FF 83 C4 04 E8 CF DC  U.ij.edUyy.A.eIU
  004134B0: FF FF 5D C3 CC CC CC CC CC CC CC CC CC CC CC CC  yy]AIIIIIIIIIIII
  004134C0: 55 8B EC 83 7D 08 00 75 07 C6 05 39 A5 41 00 01  U.i.}..u.A.9\A..
  004134D0: E8 52 DC FF FF E8 5B DD FF FF 0F B6 C0 85 C0 75  eRUyye[Yyy.A.Au
  004134E0: 04 32 C0 EB 1C E8 3E DB FF FF 0F B6 C8 85 C9 75  .2Ae.e>Uyy.E.Eu
  004134F0: 0E 6A 00 E8 1F DD FF FF 83 C4 04 32 C0 EB 02 B0  .j.e.Yyy.A.2Ae.
  00413500: 01 5D C3 CC CC CC CC CC CC CC CC CC CC CC CC CC  .]AIIIIIIIIIIIII
  00413510: CC CC CC CC CC CC CC CC CC CC CC CC CC CC CC CC  IIIIIIIIIIIIIIII
  00413520: 55 8B EC 83 EC 1C 0F B6 05 38 A5 41 00 85 C0 74  U.i.i...8\A..At
  00413530: 07 B0 01 E9 BF 00 00 00 83 7D 08 00 74 0D 83 7D  ..e?....}..t..}
  00413540: 08 01 74 07 6A 05 E8 2D DB FF FF E8 2D DB FF FF  ..t.j.e-Uyye-Uyy
  00413550: 85 C0 74 35 83 7D 08 00 75 2F 68 20 A5 41 00 E8  .At5.}..u/h \A.e
  00413560: 90 DC FF FF 83 C4 04 85 C0 74 07 32 C0 E9 85 00  .Uyy.A..At.2Ae..
  00413570: 00 00 68 2C A5 41 00 E8 78 DC FF FF 83 C4 04 85  ..h,\A.exUyy.A..
  00413580: C0 74 04 32 C0 EB 70 EB 65 6A FF E8 77 DD FF FF  At.2AepeejyewYyy
  00413590: 83 C4 04 89 45 FC 8B 4D FC 89 4D F0 8B 55 FC 89  .A..Eu.Mu.Md.Uu.
  004135A0: 55 F4 8B 45 FC 89 45 F8 8B 4D F0 89 0D 20 A5 41  Uo.Eu.Eo.Md.. \A
  004135B0: 00 8B 55 F4 89 15 24 A5 41 00 8B 45 F8 A3 28 A5  ..Uo..$\A..Eo(\
  004135C0: 41 00 8B 4D FC 89 4D E4 8B 55 FC 89 55 E8 8B 45  A..Mu.Ma.Uu.Ue.E
  004135D0: FC 89 45 EC 8B 4D E4 89 0D 2C A5 41 00 8B 55 E8  u.Ei.Ma..,\A..Ue
  004135E0: 89 15 30 A5 41 00 8B 45 EC A3 34 A5 41 00 C6 05  ..0\A..Ei4\A.A.
  004135F0: 38 A5 41 00 01 B0 01 8B E5 5D C3 CC CC CC CC CC  8\A....a]AIIIII
  00413600: CC CC CC CC CC CC CC CC CC CC CC CC CC CC CC CC  IIIIIIIIIIIIIIII
  00413610: CC CC CC CC CC CC CC CC CC CC CC CC CC CC CC CC  IIIIIIIIIIIIIIII
  00413620: CC CC CC CC CC CC CC CC CC CC CC CC CC CC CC CC  IIIIIIIIIIIIIIII
  00413630: CC CC CC CC CC CC CC CC CC CC CC CC CC CC CC CC  IIIIIIIIIIIIIIII
  00413640: 55 8B EC 6A FE 68 A0 8F 41 00 68 30 40 41 00 64  U.ijth..A.h0@A.d
  00413650: A1 00 00 00 00 50 83 C4 D8 53 56 57 A1 00 A0 41  !....P.AOSVW!..A
  00413660: 00 31 45 F8 33 C5 50 8D 45 F0 64 A3 00 00 00 00  .1Eo3AP.Edd....
  00413670: 89 65 E8 8B 45 08 89 45 D0 C7 45 DC 00 00 40 00  .ee.E..EDCEU..@.
  00413680: C7 45 FC 00 00 00 00 8B 4D DC 51 E8 A0 FB FF FF  CEu.....MUQe.uyy
  00413690: 83 C4 04 0F B6 D0 85 D2 75 13 C6 45 E7 00 C7 45  .A..D.Ou.AEc.CE
  004136A0: FC FE FF FF FF 8A 45 E7 E9 AA 00 00 00 8B 45 D0  utyyy.Ecea....ED
  004136B0: 2B 45 DC 89 45 CC 8B 4D CC 51 8B 55 DC 52 E8 BD  +EU.EI.MIQ.UURe?
  004136C0: FA FF FF 83 C4 08 89 45 D8 83 7D D8 00 75 10 C6  uyy.A..EO.}O.u.A
  004136D0: 45 E6 00 C7 45 FC FE FF FF FF 8A 45 E6 EB 78 8B  Ea.CEutyyy.Eaex.
  004136E0: 45 D8 8B 48 24 81 E1 00 00 00 80 74 10 C6 45 E5  EO.H$.a....t.AEa
  004136F0: 00 C7 45 FC FE FF FF FF 8A 45 E5 EB 5A C6 45 E4  .CEutyyy.EaeZAEa
  00413700: 01 C7 45 FC FE FF FF FF 8A 45 E4 EB 4A C7 45 FC  .CEutyyy.EaeJCEu
  00413710: FE FF FF FF EB 41 8B 55 EC 8B 02 8B 08 89 4D C8  tyyyeA.Ui.....ME
  00413720: 81 7D C8 05 00 00 C0 75 09 C7 45 D4 01 00 00 00  .}E...Au.CEO....
  00413730: EB 07 C7 45 D4 00 00 00 00 8B 45 D4 C3 8B 65 E8  e.CEO.....EOA.ee
  00413740: C6 45 E3 00 C7 45 FC FE FF FF FF 8A 45 E3 EB 07  AEa.CEutyyy.Eae.
  00413750: C7 45 FC FE FF FF FF 8B 4D F0 64 89 0D 00 00 00  CEutyyy.Mdd.....
  00413760: 00 59 5F 5E 5B 8B E5 5D C3 CC CC CC CC CC CC CC  .Y_^[.a]AIIIIIII
  00413770: CC CC CC CC CC CC CC CC CC CC CC CC CC CC CC CC  IIIIIIIIIIIIIIII
  00413780: CC CC CC CC CC CC CC CC CC CC CC CC CC CC CC CC  IIIIIIIIIIIIIIII
  00413790: CC CC CC CC CC CC CC CC CC CC CC CC CC CC CC CC  IIIIIIIIIIIIIIII
  004137A0: CC CC CC CC CC CC CC CC CC CC CC CC CC CC CC CC  IIIIIIIIIIIIIIII
  004137B0: CC CC CC CC CC CC CC CC CC CC CC CC CC CC CC CC  IIIIIIIIIIIIIIII
  004137C0: 55 8B EC E8 B5 D8 FF FF 85 C0 75 02 EB 13 0F B6  U.ieOyy.Au.e..
  004137D0: 45 08 85 C0 74 02 EB 09 33 C9 BA 1C A5 41 00 87  E..At.e.3Eo.\A..
  004137E0: 0A 5D C3 CC CC CC CC CC CC CC CC CC CC CC CC CC  .]AIIIIIIIIIIIII
  004137F0: 55 8B EC 0F B6 05 39 A5 41 00 85 C0 74 0C 0F B6  U.i..9\A..At..
  00413800: 4D 0C 85 C9 74 04 B0 01 EB 1C 0F B6 55 08 52 E8  M..Et..e..U.Re
  00413810: 0A D8 FF FF 83 C4 04 0F B6 45 08 50 E8 F6 D9 FF  .Oyy.A..E.PeoUy
  00413820: FF 83 C4 04 B0 01 5D C3 CC CC CC CC CC CC CC CC  y.A..]AIIIIIIII
  00413830: CC CC CC CC CC CC CC CC CC CC CC CC CC CC CC CC  IIIIIIIIIIIIIIII
  00413840: 55 8B EC 83 EC 0C A1 20 A5 41 00 50 E8 F4 D8 FF  U.i.i.! \A.PeoOy
  00413850: FF 83 C4 04 89 45 F4 83 7D F4 FF 75 26 8B 4D 08  y.A..Eo.}oyu&.M.
  00413860: 51 E8 D3 DA FF FF 83 C4 04 85 C0 75 08 8B 55 08  QeOUyy.A..Au..U.
  00413870: 89 55 FC EB 07 C7 45 FC 00 00 00 00 8B 45 FC EB  .Uue.CEu.....Eue
  00413880: 29 EB 27 8B 45 08 50 68 20 A5 41 00 E8 08 DA FF  )e'.E.Ph \A.e.Uy
  00413890: FF 83 C4 08 85 C0 75 08 8B 4D 08 89 4D F8 EB 07  y.A..Au..M..Moe.
  004138A0: C7 45 F8 00 00 00 00 8B 45 F8 8B E5 5D C3 CC CC  CEo.....Eo.a]AII
  004138B0: CC CC CC CC CC CC CC CC CC CC CC CC CC CC CC CC  IIIIIIIIIIIIIIII
  004138C0: CC CC CC CC CC CC CC CC CC CC CC CC CC CC CC CC  IIIIIIIIIIIIIIII
  004138D0: 55 8B EC 83 EC 08 A1 2C A5 41 00 50 E8 64 D8 FF  U.i.i.!,\A.PedOy
  004138E0: FF 83 C4 04 89 45 FC 83 7D FC FF 75 10 8B 4D 08  y.A..Eu.}uyu..M.
  004138F0: 51 E8 90 D8 FF FF 83 C4 04 EB 19 EB 17 8B 55 08  Qe.Oyy.A.e.e..U.
  00413900: 89 55 F8 8B 45 F8 50 68 2C A5 41 00 E8 88 D9 FF  .Uo.EoPh,\A.e.Uy
  00413910: FF 83 C4 08 8B E5 5D C3 CC CC CC CC CC CC CC CC  y.A..a]AIIIIIIII
  00413920: CC CC CC CC CC CC CC CC CC CC CC CC CC CC CC CC  IIIIIIIIIIIIIIII
  00413930: 55 8B EC 51 8B 45 08 50 E8 2A D9 FF FF 83 C4 04  U.iQ.E.Pe*Uyy.A.
  00413940: 85 C0 74 09 C7 45 FC 00 00 00 00 EB 07 C7 45 FC  .At.CEu....e.CEu
  00413950: FF FF FF FF 8B 45 FC 8B E5 5D C3 CC CC CC CC CC  yyyy.Eu.a]AIIIII
  00413960: CC CC CC CC CC CC CC CC CC CC CC CC CC CC CC CC  IIIIIIIIIIIIIIII
  00413970: 55 8B EC 83 EC 14 33 C0 89 45 F4 89 45 F8 8D 4D  U.i.i.3A.Eo.Eo.M
  00413980: F4 51 FF 15 40 B0 41 00 8B 55 F4 89 55 FC 8B 45  oQy.@A..Uo.Uu.E
  00413990: FC 33 45 F8 89 45 FC FF 15 44 B0 41 00 33 45 FC  u3Eo.Euy.DA.3Eu
  004139A0: 89 45 FC FF 15 48 B0 41 00 33 45 FC 89 45 FC 8D  .Euy.HA.3Eu.Eu.
  004139B0: 4D EC 51 FF 15 4C B0 41 00 8B 55 FC 33 55 EC 89  MiQy.LA..Uu3Ui.
  004139C0: 55 FC 8B 45 FC 33 45 F0 89 45 FC 8B 4D FC 8D 55  Uu.Eu3Ed.Eu.Mu.U
  004139D0: FC 33 CA 89 4D FC 8B 45 FC 8B E5 5D C3 CC CC CC  u3E.Mu.Eu.a]AIII
  004139E0: CC CC CC CC CC CC CC CC CC CC CC CC CC CC CC CC  IIIIIIIIIIIIIIII
  004139F0: CC CC CC CC CC CC CC CC CC CC CC CC CC CC CC CC  IIIIIIIIIIIIIIII
  00413A00: 55 8B EC 51 81 3D 00 A0 41 00 4E E6 40 BB 74 1C  U.iQ.=..A.Na@t.
  00413A10: A1 00 A0 41 00 25 00 00 FF FF 74 10 8B 0D 00 A0  !..A.%..yyt.....
  00413A20: 41 00 F7 D1 89 0D 04 A0 41 00 EB 4A E8 3F FF FF  A.N....A.eJe?yy
  00413A30: FF 89 45 FC 81 7D FC 4E E6 40 BB 75 09 C7 45 FC  y.Eu.}uNa@u.CEu
  00413A40: 4F E6 40 BB EB 1C 8B 55 FC 81 E2 00 00 FF FF 75  Oa@e..Uu.a..yyu
  00413A50: 11 8B 45 FC 0D 11 47 00 00 C1 E0 10 0B 45 FC 89  ..Eu..G..Aa..Eu.
  00413A60: 45 FC 8B 4D FC 89 0D 00 A0 41 00 8B 55 FC F7 D2  Eu.Mu....A..UuO
  00413A70: 89 15 04 A0 41 00 8B E5 5D C3 CC CC CC CC CC CC  ....A..a]AIIIIII
  00413A80: CC CC CC CC CC CC CC CC CC CC CC CC CC CC CC CC  IIIIIIIIIIIIIIII
  00413A90: CC CC CC CC CC CC CC CC CC CC CC CC CC CC CC CC  IIIIIIIIIIIIIIII
  00413AA0: 55 8B EC 33 C0 5D C3 CC CC CC CC CC CC CC CC CC  U.i3A]AIIIIIIIII
  00413AB0: 55 8B EC B8 01 00 00 00 5D C3 CC CC CC CC CC CC  U.iC....]AIIIIII
  00413AC0: 55 8B EC 33 C0 5D C3 CC CC CC CC CC CC CC CC CC  U.i3A]AIIIIIIIII
  00413AD0: 55 8B EC B8 00 40 00 00 5D C3 CC CC CC CC CC CC  U.iC.@..]AIIIIII
  00413AE0: 55 8B EC 33 C0 5D C3 CC CC CC CC CC CC CC CC CC  U.i3A]AIIIIIIIII
  00413AF0: 55 8B EC 33 C0 5D C3 CC CC CC CC CC CC CC CC CC  U.i3A]AIIIIIIIII
  00413B00: 55 8B EC 68 40 A5 41 00 FF 15 3C B0 41 00 5D C3  U.ih@\A.y.<A.]A
  00413B10: CC CC CC CC CC CC CC CC CC CC CC CC CC CC CC CC  IIIIIIIIIIIIIIII
  00413B20: 55 8B EC 68 40 A5 41 00 E8 D2 D5 FF FF 83 C4 04  U.ih@\A.eOOyy.A.
  00413B30: 5D C3 CC CC CC CC CC CC CC CC CC CC CC CC CC CC  ]AIIIIIIIIIIIIII
  00413B40: 55 8B EC B0 01 5D C3 CC CC CC CC CC CC CC CC CC  U.i.]AIIIIIIIII
  00413B50: 55 8B EC 68 00 00 03 00 68 00 00 01 00 6A 00 E8  U.ih....h....j.e
  00413B60: E0 D6 FF FF 83 C4 0C 85 C0 74 07 6A 07 E8 06 D5  aOyy.A..At.j.e.O
  00413B70: FF FF 5D C3 CC CC CC CC CC CC CC CC CC CC CC CC  yy]AIIIIIIIIIIII
  00413B80: 55 8B EC 5D C3 CC CC CC CC CC CC CC CC CC CC CC  U.i]AIIIIIIIIIII
  00413B90: 55 8B EC 5D C3 CC CC CC CC CC CC CC CC CC CC CC  U.i]AIIIIIIIIIII
  00413BA0: 55 8B EC B8 50 A5 41 00 5D C3 CC CC CC CC CC CC  U.iCP\A.]AIIIIII
  00413BB0: 55 8B EC 83 EC 08 E8 9C D7 FF FF 89 45 FC 8B 45  U.i.i.e.~yy.Eu.E
  00413BC0: FC 8B 08 83 C9 04 8B 50 04 8B 45 FC 89 08 89 50  u...E..P..Eu...P
  00413BD0: 04 E8 37 D6 FF FF 89 45 F8 8B 4D F8 8B 11 83 CA  .e7Oyy.Eo.Mo...E
  00413BE0: 02 8B 41 04 8B 4D F8 89 11 89 41 04 8B E5 5D C3  ..A..Mo...A..a]A
  00413BF0: CC CC CC CC CC CC CC CC CC CC CC CC CC CC CC CC  IIIIIIIIIIIIIIII
  00413C00: 55 8B EC 51 83 3D 28 A0 41 00 00 75 09 C7 45 FC  U.iQ.=(.A..u.CEu
  00413C10: 01 00 00 00 EB 07 C7 45 FC 00 00 00 00 8B 45 FC  ....e.CEu.....Eu
  00413C20: 8B E5 5D C3 CC CC CC CC CC CC CC CC CC CC CC CC  .a]AIIIIIIIIIIII
  00413C30: 55 8B EC B8 80 A5 41 00 5D C3 CC CC CC CC CC CC  U.iC.\A.]AIIIIII
  00413C40: 55 8B EC B8 74 A5 41 00 5D C3 CC CC CC CC CC CC  U.iCt\A.]AIIIIII
  00413C50: 55 8B EC 81 EC 2C 03 00 00 6A 17 E8 AC D6 FF FF  U.i.i,...j.eOyy
  00413C60: 85 C0 74 05 8B 4D 08 CD 29 6A 03 E8 C7 D3 FF FF  .At..M.I)j.eCOyy
  00413C70: 83 C4 04 68 CC 02 00 00 6A 00 8D 85 D4 FC FF FF  .A.hI...j...Ouyy
  00413C80: 50 E8 4C D4 FF FF 83 C4 0C 89 85 84 FD FF FF 89  PeLOyy.A....yyy.
  00413C90: 8D 80 FD FF FF 89 95 7C FD FF FF 89 9D 78 FD FF  ..yyy..|yyy..xyy
  00413CA0: FF 89 B5 74 FD FF FF 89 BD 70 FD FF FF 66 8C 95  y.tyyy.?pyyyf..
  00413CB0: 9C FD FF FF 66 8C 8D 90 FD FF FF 66 8C 9D 6C FD  .yyyf...yyyf..ly
  00413CC0: FF FF 66 8C 85 68 FD FF FF 66 8C A5 64 FD FF FF  yyf..hyyyf.\dyyy
  00413CD0: 66 8C AD 60 FD FF FF 9C 8F 85 94 FD FF FF C7 85  f.-`yyy....yyyC.
  00413CE0: D4 FC FF FF 01 00 01 00 8B 4D 04 89 8D 8C FD FF  Ouyy.....M....yy
  00413CF0: FF 8D 55 04 89 95 98 FD FF FF 8D 45 04 8B 48 FC  y.U....yyy.E..Hu
  00413D00: 89 8D 88 FD FF FF 6A 50 6A 00 8D 55 A0 52 E8 BF  ...yyyjPj..U.Re?
  00413D10: D3 FF FF 83 C4 0C C7 45 A0 15 00 00 40 C7 45 A4  Oyy.A.CE....@CE?
  00413D20: 01 00 00 00 8B 45 04 89 45 AC FF 15 38 B0 41 00  .....E..Ey.8A.
  00413D30: 83 F8 01 75 06 C6 45 FF 01 EB 04 C6 45 FF 00 8A  .o.u.AEy.e.AEy..
  00413D40: 4D FF 88 4D FE 8D 55 A0 89 55 F0 8D 85 D4 FC FF  My.Mt.U..Ud..Ouy
  00413D50: FF 89 45 F4 6A 00 FF 15 14 B0 41 00 8D 4D F0 51  y.Eoj.y..A..MdQ
  00413D60: FF 15 10 B0 41 00 89 45 F8 83 7D F8 00 75 12 0F  y..A..Eo.}o.u..
  00413D70: B6 55 FE 85 D2 75 0A 6A 03 E8 B9 D2 FF FF 83 C4  Ut.Ou.j.e1Oyy.A
  00413D80: 04 8B E5 5D C3 CC CC CC CC CC CC CC CC CC CC CC  ..a]AIIIIIIIIIII
  00413D90: CC CC CC CC CC CC CC CC CC CC CC CC CC CC CC CC  IIIIIIIIIIIIIIII
  00413DA0: CC CC CC CC CC CC CC CC CC CC CC CC CC CC CC CC  IIIIIIIIIIIIIIII
  00413DB0: CC CC CC CC CC CC CC CC CC CC CC CC CC CC CC CC  IIIIIIIIIIIIIIII
  00413DC0: CC CC CC CC CC CC CC CC CC CC CC CC CC CC CC CC  IIIIIIIIIIIIIIII
  00413DD0: CC CC CC CC CC CC CC CC CC CC CC CC CC CC CC CC  IIIIIIIIIIIIIIII
  00413DE0: 55 8B EC 83 EC 48 6A 44 6A 00 8D 45 B8 50 E8 DF  U.i.iHjDj..ECPes
  00413DF0: D2 FF FF 83 C4 0C 8D 4D B8 51 FF 15 00 B0 41 00  Oyy.A..MCQy..A.
  00413E00: 8B 55 E4 83 E2 01 74 09 0F B7 45 E8 89 45 FC EB  .Ua.a.t..EEe.Eue
  00413E10: 07 C7 45 FC 0A 00 00 00 66 8B 45 FC 8B E5 5D C3  .CEu....f.Eu.a]A
  00413E20: CC CC CC CC CC CC CC CC CC CC CC CC CC CC CC CC  IIIIIIIIIIIIIIII
  00413E30: 55 8B EC 33 C0 5D C3 CC CC CC CC CC CC CC CC CC  U.i3A]AIIIIIIIII
  00413E40: 55 8B EC 83 EC 08 6A 00 FF 15 34 B0 41 00 89 45  U.i.i.j.y.4A..E
  00413E50: FC 83 7D FC 00 75 04 32 C0 EB 64 8B 45 FC 0F B7  u.}u.u.2Aed.Eu.E
  00413E60: 08 81 F9 4D 5A 00 00 74 04 32 C0 EB 52 8B 55 FC  ..uMZ..t.2AeR.Uu
  00413E70: 8B 45 FC 03 42 3C 89 45 F8 8B 4D F8 81 39 50 45  .Eu.B<.Eo.Mo.9PE
  00413E80: 00 00 74 04 32 C0 EB 37 8B 55 F8 0F B7 42 18 3D  ..t.2Ae7.Uo.EB.=
  00413E90: 0B 01 00 00 74 04 32 C0 EB 25 8B 4D F8 83 79 74  ....t.2Ae%.Mo.yt
  00413EA0: 0E 77 04 32 C0 EB 18 BA 08 00 00 00 6B C2 0E 8B  .w.2Ae.o....kA..
  00413EB0: 4D F8 83 7C 01 78 00 75 04 32 C0 EB 02 B0 01 8B  Mo.|.x.u.2Ae...
  00413EC0: E5 5D C3 CC CC CC CC CC CC CC CC CC CC CC CC CC  a]AIIIIIIIIIIIII
  00413ED0: CC CC CC CC CC CC CC CC CC CC CC CC CC CC CC CC  IIIIIIIIIIIIIIII
  00413EE0: CC CC CC CC CC CC CC CC CC CC CC CC CC CC CC CC  IIIIIIIIIIIIIIII
  00413EF0: 55 8B EC 68 54 11 41 00 FF 15 14 B0 41 00 5D C3  U.ihT.A.y..A.]A
  00413F00: CC CC CC CC CC CC CC CC CC CC CC CC CC CC CC CC  IIIIIIIIIIIIIIII
  00413F10: 55 8B EC 51 8B 45 08 8B 08 89 4D FC 8B 55 FC 81  U.iQ.E....Mu.Uu.
  00413F20: 3A 63 73 6D E0 75 3E 8B 45 FC 83 78 10 03 75 35  :csmau>.Eu.x..u5
  00413F30: 8B 4D FC 81 79 14 20 05 93 19 74 24 8B 55 FC 81  .Mu.y. ...t$.Uu.
  00413F40: 7A 14 21 05 93 19 74 18 8B 45 FC 81 78 14 22 05  z.!...t..Eu.x.".
  00413F50: 93 19 74 0C 8B 4D FC 81 79 14 00 40 99 01 75 05  ..t..Mu.y..@..u.
  00413F60: E8 C1 D2 FF FF 33 C0 8B E5 5D C2 04 00 CC CC CC  eAOyy3A.a]A..III
  00413F70: CC CC CC CC CC CC CC CC CC CC CC CC CC CC CC CC  IIIIIIIIIIIIIIII
  00413F80: CC CC CC CC CC CC CC CC CC CC CC CC CC CC CC CC  IIIIIIIIIIIIIIII
  00413F90: 55 8B EC C7 05 5C A5 41 00 00 00 00 00 5D C3 CC  U.iC.\\A.....]AI
  00413FA0: CC CC CC CC CC CC CC CC CC CC CC CC CC CC CC CC  IIIIIIIIIIIIIIII
  00413FB0: 56 BE 4C 89 41 00 8B C6 3D 50 8B 41 00 73 1D 57  V?L.A..A=P.A.s.W
  00413FC0: 8B 3E 85 FF 74 0A 8B CF FF 15 00 C0 41 00 FF D7  .>.yt..Iy..AA.y~
  00413FD0: 83 C6 04 81 FE 50 8B 41 00 72 E5 5F 5E C3 CC CC  .A..tP.A.ra_^AII
  00413FE0: CC CC CC CC CC CC CC CC CC CC CC CC CC CC CC CC  IIIIIIIIIIIIIIII
  00413FF0: 56 BE 58 8C 41 00 8B C6 3D 5C 8E 41 00 73 1D 57  V?X.A..A=\.A.s.W
  00414000: 8B 3E 85 FF 74 0A 8B CF FF 15 00 C0 41 00 FF D7  .>.yt..Iy..AA.y~
  00414010: 83 C6 04 81 FE 5C 8E 41 00 72 E5 5F 5E C3 CC CC  .A..t\.A.ra_^AII
  00414020: CC CC CC CC CC CC CC CC CC CC CC CC CC CC CC CC  IIIIIIIIIIIIIIII
  00414030: 55 8B EC 8B 45 14 50 8B 4D 10 51 8B 55 0C 52 8B  U.i.E.P.M.Q.U.R.
  00414040: 45 08 50 68 8F 12 41 00 68 00 A0 41 00 E8 3F D0  E.Ph..A.h..A.e?D
  00414050: FF FF 83 C4 18 5D C3 CC CC CC CC CC CC CC CC CC  yy.A.]AIIIIIIIII
  00414060: 55 8B EC 51 89 4D FC 8B E5 5D C3 CC CC CC CC CC  U.iQ.Mu.a]AIIIII
  00414070: 55 8B EC 51 8B 45 08 8B 08 89 4D FC 8B 45 FC 8B  U.iQ.E....Mu.Eu.
  00414080: E5 5D C3 CC CC CC CC CC CC CC CC CC CC CC CC CC  a]AIIIIIIIIIIIII
  00414090: 55 8B EC 8B 45 08 50 E8 57 D2 FF FF 83 C4 04 5D  U.i.E.PeWOyy.A.]
  004140A0: C3 CC CC CC CC CC CC CC CC CC CC CC CC CC CC CC  AIIIIIIIIIIIIIII
  004140B0: 55 8B EC 51 68 00 C0 41 00 E8 92 CF FF FF 83 C4  U.iQh.AA.e.Iyy.A
  004140C0: 04 3D A3 12 41 00 74 09 C7 45 FC 01 00 00 00 EB  .=.A.t.CEu....e
  004140D0: 07 C7 45 FC 00 00 00 00 8B 45 FC 8B E5 5D C3 CC  .CEu.....Eu.a]AI
  004140E0: CC CC CC CC CC CC CC CC CC CC CC CC CC CC CC CC  IIIIIIIIIIIIIIII
  004140F0: 55 8B EC 81 EC 14 04 00 00 A1 00 A0 41 00 33 C5  U.i.i....!..A.3A
  00414100: 89 45 FC 80 3D 64 A5 41 00 00 0F 85 10 01 00 00  .Eu.=d\A........
  00414110: C6 05 64 A5 41 00 01 E8 64 01 00 00 85 C0 0F 85  A.d\A..ed....A..
  00414120: FE 00 00 00 68 74 83 41 00 E8 51 D2 FF FF 83 C4  t...ht.A.eQOyy.A
  00414130: 04 85 C0 74 78 68 04 01 00 00 8D 8D EC FB FF FF  ..Atxh......iuyy
  00414140: 51 50 E8 B6 D1 FF FF 83 C4 0C 85 C0 74 5F 68 04  QPeNyy.A..At_h.
  00414150: 01 00 00 8D 85 F4 FD FF FF 50 8D 85 EC FB FF FF  .....oyyyP..iuyy
  00414160: 50 E8 0A 04 00 00 83 C4 0C 85 C0 74 40 68 00 09  Pe.....A..At@h..
  00414170: 00 00 8D 85 F4 FD FF FF 6A 00 50 E8 EB D1 FF FF  ....oyyyj.PeeNyy
  00414180: 83 C4 0C 85 C0 0F 85 97 00 00 00 FF 15 30 B0 41  .A..A......y.0A
  00414190: 00 83 F8 57 75 17 6A 08 8D 85 F4 FD FF FF 6A 00  ..oWu.j...oyyyj.
  004141A0: 50 E8 C5 D1 FF FF 83 C4 0C 85 C0 75 75 68 00 0A  PeANyy.A..Auuh..
  004141B0: 00 00 6A 00 68 24 85 41 00 E8 AD D1 FF FF 83 C4  ..j.h$.A.e-Nyy.A
  004141C0: 0C 85 C0 75 5D FF 15 30 B0 41 00 83 F8 57 75 50  ..Au]y.0A..oWuP
  004141D0: 68 04 01 00 00 8D 85 EC FB FF FF 50 6A 00 E8 1A  h......iuyyPj.e.
  004141E0: D1 FF FF 83 C4 0C 85 C0 74 36 68 04 01 00 00 8D  Nyy.A..At6h.....
  004141F0: 85 F4 FD FF FF 50 8D 85 EC FB FF FF 50 E8 6E 03  .oyyyP..iuyyPen.
  00414200: 00 00 83 C4 0C 85 C0 74 17 6A 08 8D 85 F4 FD FF  ...A..At.j...oyy
  00414210: FF 6A 00 50 E8 52 D1 FF FF 83 C4 0C 85 C0 75 02  yj.PeRNyy.A..Au.
  00414220: 33 C0 8B 4D FC 33 CD E8 63 D0 FF FF 8B E5 5D C3  3A.Mu3IecDyy.a]A
  00414230: CC CC CC CC CC CC CC CC CC CC CC CC CC CC CC CC  IIIIIIIIIIIIIIII
  00414240: CC CC CC CC CC CC CC CC CC CC CC CC CC CC CC CC  IIIIIIIIIIIIIIII
  00414250: CC CC CC CC CC CC CC CC CC CC CC CC CC CC CC CC  IIIIIIIIIIIIIIII
  00414260: CC CC CC CC CC CC CC CC CC CC CC CC CC CC CC CC  IIIIIIIIIIIIIIII
  00414270: CC CC CC CC CC CC CC CC CC CC CC CC CC CC CC CC  IIIIIIIIIIIIIIII
  00414280: 55 8B EC 81 EC 1C 02 00 00 A1 00 A0 41 00 33 C5  U.i.i....!..A.3A
  00414290: 89 45 FC 53 56 57 68 00 08 00 00 6A 00 68 A8 83  .EuSVWh....j.hN.
  004142A0: 41 00 E8 C4 D0 FF FF 8B F8 83 C4 0C 85 FF 75 39  A.eADyy.o.A..yu9
  004142B0: 68 00 08 00 00 50 68 00 84 41 00 E8 AB D0 FF FF  h....Ph..A.eDyy
  004142C0: 8B F8 83 C4 0C 85 FF 75 20 FF 15 30 B0 41 00 83  .o.A..yu y.0A..
  004142D0: F8 57 75 79 57 57 68 00 84 41 00 E8 8B D0 FF FF  oWuyWWh..A.e.Dyy
  004142E0: 8B F8 83 C4 0C 85 FF 74 64 68 20 84 41 00 57 FF  .o.A..ytdh .A.Wy
  004142F0: 15 18 B0 41 00 8B F0 85 F6 74 52 68 30 84 41 00  ..A..d.otRh0.A.
  00414300: 57 FF 15 18 B0 41 00 8B D8 85 DB 74 40 68 44 84  Wy..A..O.Ut@hD.
  00414310: 41 00 57 FF 15 18 B0 41 00 89 85 E8 FD FF FF 85  A.Wy..A...eyyy.
  00414320: C0 74 2A 8D 85 F0 FD FF FF 8B CE 50 6A 01 6A 00  At*..dyyy.IPj.j.
  00414330: 68 58 84 41 00 68 02 00 00 80 FF 15 00 C0 41 00  hX.A.h....y..AA.
  00414340: FF D6 85 C0 74 1A 57 FF 15 1C B0 41 00 5F 5E 33  yO.At.Wy..A._^3
  00414350: C0 5B 8B 4D FC 33 CD E8 33 CF FF FF 8B E5 5D C3  A[.Mu3Ie3Iyy.a]A
  00414360: 8D 85 EC FD FF FF C7 85 EC FD FF FF 08 02 00 00  ..iyyyC.iyyy....
  00414370: 50 8D 85 F4 FD FF FF 8B CB 50 8D 85 E4 FD FF FF  P..oyyy.EP..ayyy
  00414380: 50 6A 00 68 E4 84 41 00 FF B5 F0 FD FF FF FF 15  Pj.ha.A.ydyyyy.
  00414390: 00 C0 41 00 FF D3 FF B5 F0 FD FF FF 8B 9D E8 FD  .AA.yOydyyy..ey
  004143A0: FF FF 8B F0 8B CB FF 15 00 C0 41 00 FF D3 57 FF  yy.d.Ey..AA.yOWy
  004143B0: 15 1C B0 41 00 85 F6 75 94 83 BD E4 FD FF FF 01  ..A..ou..?ayyy.
  004143C0: 75 8B 8B 8D EC FD FF FF F6 C1 01 75 80 D1 E9 8B  u...iyyyoA.u.Ne.
  004143D0: D1 83 F9 02 0F 82 73 FF FF FF 49 8D 85 F4 FD FF  N.u...syyyI..oyy
  004143E0: FF 66 39 34 48 8D 04 48 0F 85 5F FF FF FF 66 83  yf94H..H.._yyyf.
  004143F0: 78 FE 5C 74 0A B9 5C 00 00 00 66 89 08 8B CA 8B  xt\t.1\...f...E.
  00414400: C1 F7 D0 83 F8 12 0F 82 41 FF FF FF 8D 41 11 3D  AD.o...Ayyy.A.=
  00414410: 04 01 00 00 0F 87 33 FF FF FF A1 50 83 41 00 89  ......3yyy!P.A..
  00414420: 84 4D F4 FD FF FF A1 54 83 41 00 89 84 4D F8 FD  .Moyyy!T.A...Moy
  00414430: FF FF A1 58 83 41 00 89 84 4D FC FD FF FF A1 5C  yy!X.A...Muyyy!\
  00414440: 83 41 00 89 84 4D 00 FE FF FF A1 60 83 41 00 89  .A...M.tyy!`.A..
  00414450: 84 4D 04 FE FF FF A1 64 83 41 00 89 84 4D 08 FE  .M.tyy!d.A...M.t
  00414460: FF FF A1 68 83 41 00 89 84 4D 0C FE FF FF A1 6C  yy!h.A...M.tyy!l
  00414470: 83 41 00 89 84 4D 10 FE FF FF 66 A1 70 83 41 00  .A...M.tyyf!p.A.
  00414480: 68 00 09 00 00 66 89 84 4D 14 FE FF FF 8D 85 F4  h....f..M.tyy..o
  00414490: FD FF FF 6A 00 50 E8 D0 CE FF FF 8B F0 83 C4 0C  yyyj.PeDIyy.d.A.
  004144A0: 85 F6 75 1F FF 15 30 B0 41 00 83 F8 57 75 14 6A  .ou.y.0A..oWu.j
  004144B0: 08 8D 85 F4 FD FF FF 56 50 E8 AD CE FF FF 83 C4  ...oyyyVPe-Iyy.A
  004144C0: 0C 8B F0 8B 4D FC 8B C6 5F 5E 33 CD 5B E8 BD CD  ..d.Mu.A_^3I[e?I
  004144D0: FF FF 8B E5 5D C3 CC CC CC CC CC CC CC CC CC CC  yy.a]AIIIIIIIIII
  004144E0: CC CC CC CC CC CC CC CC CC CC CC CC CC CC CC CC  IIIIIIIIIIIIIIII
  004144F0: CC CC CC CC CC CC CC CC CC CC CC CC CC CC CC CC  IIIIIIIIIIIIIIII
  00414500: CC CC CC CC CC CC CC CC CC CC CC CC CC CC CC CC  IIIIIIIIIIIIIIII
  00414510: CC CC CC CC CC CC CC CC CC CC CC CC CC CC CC CC  IIIIIIIIIIIIIIII
  00414520: CC CC CC CC CC CC CC CC CC CC CC CC CC CC CC CC  IIIIIIIIIIIIIIII
  00414530: CC CC CC CC CC CC CC CC CC CC CC CC CC CC CC CC  IIIIIIIIIIIIIIII
  00414540: CC CC CC CC CC CC CC CC CC CC CC CC CC CC CC CC  IIIIIIIIIIIIIIII
  00414550: CC CC CC CC CC CC CC CC CC CC CC CC CC CC CC CC  IIIIIIIIIIIIIIII
  00414560: CC CC CC CC CC CC CC CC CC CC CC CC CC CC CC CC  IIIIIIIIIIIIIIII
  00414570: 55 8B EC 81 EC 0C 06 00 00 A1 00 A0 41 00 33 C5  U.i.i....!..A.3A
  00414580: 89 45 FC 8B 45 08 8D 8D F4 FD FF FF 56 8B 75 0C  .Eu.E...oyyyV.u.
  00414590: 68 00 01 00 00 51 68 00 01 00 00 8D 8D F4 FB FF  h....Qh......ouy
  004145A0: FF 51 68 00 01 00 00 8D 8D F4 F9 FF FF 51 6A 03  yQh......ouyyQj.
  004145B0: 8D 4D F4 51 50 E8 02 CD FF FF 83 C4 24 85 C0 75  .MoQPe.Iyy.A$.Au
  004145C0: 71 68 0C 85 41 00 8D 85 F4 FB FF FF 6A 09 50 E8  qh..A...ouyyj.Pe
  004145D0: 8B CA FF FF 83 C4 0C 85 C0 75 57 68 00 85 41 00  .Eyy.A..AuWh..A.
  004145E0: 8D 85 F4 FD FF FF 6A 04 50 E8 71 CA FF FF 83 C4  ..oyyyj.PeqEyy.A
  004145F0: 0C 85 C0 75 3D 8D 85 F4 FD FF FF 50 8D 85 F4 FB  ..Au=..oyyyP..ou
  00414600: FF FF 50 8D 85 F4 F9 FF FF 50 8D 45 F4 50 FF 75  yyP..ouyyP.EoPyu
  00414610: 10 56 E8 F3 C9 FF FF 83 C4 18 85 C0 75 14 B8 01  .VeoEyy.A..Au.C.
  00414620: 00 00 00 5E 8B 4D FC 33 CD E8 61 CC FF FF 8B E5  ...^.Mu3IeaIyy.a
  00414630: 5D C3 8B 4D FC 33 C0 33 CD 5E E8 50 CC FF FF 8B  ]A.Mu3A3I^ePIyy.
  00414640: E5 5D C3 CC CC CC CC CC CC CC CC CC CC CC CC CC  a]AIIIIIIIIIIIII
  00414650: CC CC CC CC CC CC CC CC CC CC CC CC CC CC CC CC  IIIIIIIIIIIIIIII
  00414660: CC CC CC CC CC CC CC CC CC CC CC CC CC CC CC CC  IIIIIIIIIIIIIIII
  00414670: CC CC CC CC CC CC CC CC CC CC CC CC CC CC CC CC  IIIIIIIIIIIIIIII
  00414680: 55 8B EC 8B 45 14 83 EC 4C 33 C9 53 56 8B 75 08  U.i.E..iL3ESV.u.
  00414690: C7 00 00 00 00 00 4E 8B 45 0C 57 6A 1C 66 89 08  C.....N.E.Wj.f..
  004146A0: 8D 45 B4 50 56 FF 15 20 B0 41 00 85 C0 0F 84 50  .ELPVy. A..A..P
  004146B0: 03 00 00 FF 75 1C FF 75 18 FF 75 B8 E8 3C CC FF  ...yu.yu.yuCe<Iy
  004146C0: FF 83 C4 0C 85 C0 0F 84 37 03 00 00 8B 45 B8 B9  y.A..A..7....EC1
  004146D0: 4D 5A 00 00 66 39 08 0F 85 26 03 00 00 8B 48 3C  MZ..f9...&....H<
  004146E0: 85 C9 0F 8E 1B 03 00 00 03 C8 81 39 50 45 00 00  .E.......E.9PE..
  004146F0: 0F 85 0D 03 00 00 0F B7 51 14 2B F0 0F B7 79 06  .......EQ.+d.Ey.
  00414700: 83 C2 20 33 DB 33 C0 85 FF 74 1C 03 CA 8D 49 00  .A 3U3A.yt..E.I.
  00414710: 8B 51 04 3B F2 72 08 8B DE 2B DA 3B 31 72 08 40  .Q.;or..T+U;1r.@
  00414720: 83 C1 28 3B C7 72 E9 3B C7 0F 84 D4 02 00 00 40  .A(;Cre;C..O...@
  00414730: 80 3D 65 A5 41 00 00 89 45 F4 75 28 83 3D 60 A5  .=e\A...Eou(.=`\
  00414740: 41 00 00 0F 85 BA 02 00 00 E8 A2 F9 FF FF A3 60  A....o...euyy`
  00414750: A5 41 00 85 C0 0F 84 A8 02 00 00 C6 05 65 A5 41  \A..A..N...A.e\A
  00414760: 00 01 EB 05 A1 60 A5 41 00 68 3C 85 41 00 50 FF  ..e.!`\A.h<.A.Py
  00414770: 15 18 B0 41 00 8B F0 85 F6 0F 84 84 02 00 00 8D  ..A..d.o.......
  00414780: 45 E8 8B CE 50 6A 00 6A 00 8D 45 D0 50 6A 00 6A  Ee.IPj.j..EDPj.j
  00414790: 00 6A 00 FF 75 18 FF 15 00 C0 41 00 FF D6 83 C4  .j.yu.y..AA.yO.A
  004147A0: 20 85 C0 0F 84 5A 02 00 00 8B 7D E8 C7 45 DC 00   .A..Z....}eCEU.
  004147B0: 00 00 00 8B 07 8B 30 8B CE FF 15 00 C0 41 00 8B  ......0.Iy..AA..
  004147C0: CF FF D6 3D 41 91 32 01 0F 85 50 01 00 00 8B 7D  IyO=A.2...P....}
  004147D0: E8 8D 4D E0 51 68 50 85 41 00 6A 00 8B 07 8B 70  e.MaQhP.A.j....p
  004147E0: 1C 8B CE FF 15 00 C0 41 00 8B CF FF D6 85 C0 0F  ..Iy..AA..IyO.A.
  004147F0: 84 29 01 00 00 8B 7D E0 8D 45 EC 6A 00 6A 00 6A  .)....}a.Eij.j.j
  00414800: 00 8B 37 50 53 FF 75 F4 8B 76 20 8B CE FF 15 00  ..7PSyuo.v .Iy..
  00414810: C0 41 00 8B CF FF D6 85 C0 0F 84 EB 00 00 00 8B  AA..IyO.A..e....
  00414820: 7D EC 8D 4D F8 C7 45 F8 00 00 00 00 51 8B 07 8B  }i.MoCEo....Q...
  00414830: 70 68 8B CE FF 15 00 C0 41 00 8B CF FF D6 84 C0  ph.Iy..AA..IyO.A
  00414840: 0F 84 B0 00 00 00 8B 45 F8 85 C0 0F 84 A5 00 00  ......Eo.A..\..
  00414850: 00 8B 00 33 FF 8B 70 08 8B CE FF 15 00 C0 41 00  ...3y.p..Iy..AA.
  00414860: 8B 4D F8 FF D6 85 C0 74 6A 8D A4 24 00 00 00 00  .MoyO.Atj.?$....
  00414870: 8B 7D F8 8D 45 F0 6A 00 50 8D 45 D8 8B 37 50 8D  .}o.Edj.P.EO.7P.
  00414880: 45 FC 50 8B 76 0C 8D 45 E4 50 6A 00 8B CE FF 15  EuP.v..EaPj..Iy.
  00414890: 00 C0 41 00 8B CF FF D6 84 C0 74 47 0F B7 45 FC  .AA..IyO.AtG.EEu
  004148A0: 3B 45 F4 75 14 8B 4D E4 3B CB 77 0D 8B 45 D8 03  ;Eou..Ma;Ew..EO.
  004148B0: C1 3B D8 0F 82 83 00 00 00 8B 7D F8 8B 07 8B 70  A;O.......}o...p
  004148C0: 08 8B CE FF 15 00 C0 41 00 8B CF FF D6 85 C0 75  ..Iy..AA..IyO.Au
  004148D0: 9F 33 FF 57 6A 00 FF 15 24 B0 41 00 50 FF 15 28  .3yWj.y.$A.Py.(
  004148E0: B0 41 00 8B 7D F8 8B 07 8B 30 8B CE FF 15 00 C0  A..}o...0.Iy..A
  004148F0: 41 00 8B CF FF D6 8B 7D EC 8B 07 8B 70 40 8B CE  A..IyO.}i...p@.I
  00414900: FF 15 00 C0 41 00 8B CF FF D6 8B 7D E0 8B 07 8B  y..AA..IyO.}a...
  00414910: 70 38 8B CE FF 15 00 C0 41 00 8B CF FF D6 8B 7D  p8.Iy..AA..IyO.}
  00414920: E8 8B 17 8B 72 2C 8B CE FF 15 00 C0 41 00 8B CF  e...r,.Iy..AA..I
  00414930: FF D6 8B 45 DC 5F 5E 5B 8B E5 5D C3 8B 45 F0 85  yO.EU_^[.a]A.Ed.
  00414940: C0 74 A0 3D FF FF FF 1F 73 99 C1 E0 03 50 6A 00  At.=yyy.s.Aa.Pj.
  00414950: FF 15 24 B0 41 00 50 FF 15 2C B0 41 00 89 45 F4  y.$A.Py.,A..Eo
  00414960: 85 C0 0F 84 7B FF FF FF 8B 7D F8 50 8D 45 F0 50  .A..{yyy.}oP.EdP
  00414970: 8B 37 8D 45 D4 6A 00 6A 00 6A 00 8B 76 0C 8B CE  .7.EOj.j.j..v..I
  00414980: 50 FF 15 00 C0 41 00 8B CF FF D6 8B 7D F4 84 C0  Py..AA..IyO.}o.A
  00414990: 0F 84 3D FF FF FF 2B 5D E4 3B 1F 0F 82 32 FF FF  ..=yyy+]a;...2yy
  004149A0: FF 8B 4D F0 B8 01 00 00 00 3B C8 76 0D 8D 49 00  y.MdC....;Ev..I.
  004149B0: 3B 1C C7 72 05 40 3B C1 72 F6 8B 44 C7 FC 8B 4D  ;.Cr.@;Aro.DCu.M
  004149C0: 14 25 FF FF FF 00 8B 7D EC 6A 00 6A 00 89 01 8D  .%yyy..}ij.j....
  004149D0: 45 10 8B 37 6A 00 50 FF 75 0C 8B 76 70 8B CE FF  E..7j.Pyu..vp.Iy
  004149E0: 75 D4 FF 15 00 C0 41 00 8B CF FF D6 8B 7D F4 84  uOy..AA..IyO.}o.
  004149F0: C0 0F 84 DC FE FF FF C7 45 DC 01 00 00 00 E9 D0  A..UtyyCEU....eD
  00414A00: FE FF FF 5F 5E 33 C0 5B 8B E5 5D C3 CC CC CC CC  tyy_^3A[.a]AIIII
  00414A10: CC CC CC CC CC CC CC CC CC CC CC CC CC CC CC CC  IIIIIIIIIIIIIIII
  00414A20: CC CC CC CC CC CC CC CC CC CC CC CC CC CC CC CC  IIIIIIIIIIIIIIII
  00414A30: CC CC CC CC CC CC CC CC CC CC CC CC CC CC CC CC  IIIIIIIIIIIIIIII
  00414A40: CC CC CC CC CC CC CC CC CC CC CC CC CC CC CC CC  IIIIIIIIIIIIIIII
  00414A50: CC CC CC CC CC CC CC CC CC CC CC CC CC CC CC CC  IIIIIIIIIIIIIIII
  00414A60: CC CC CC CC CC CC CC CC CC CC CC CC CC CC CC CC  IIIIIIIIIIIIIIII
  00414A70: CC CC CC CC CC CC CC CC CC CC CC CC CC CC CC CC  IIIIIIIIIIIIIIII
  00414A80: CC CC CC CC CC CC CC CC CC CC CC CC CC CC CC CC  IIIIIIIIIIIIIIII
  00414A90: CC CC CC CC CC CC CC CC CC CC CC CC CC CC CC CC  IIIIIIIIIIIIIIII
  00414AA0: CC CC CC CC CC CC CC CC CC CC CC CC CC CC CC CC  IIIIIIIIIIIIIIII
  00414AB0: CC CC CC CC CC CC CC CC CC CC CC CC CC CC CC CC  IIIIIIIIIIIIIIII
  00414AC0: CC CC CC CC CC CC CC CC CC CC CC CC CC CC CC CC  IIIIIIIIIIIIIIII
  00414AD0: CC CC CC CC CC CC CC CC CC CC CC CC CC CC CC CC  IIIIIIIIIIIIIIII
  00414AE0: CC CC CC CC CC CC CC CC CC CC CC CC CC CC CC CC  IIIIIIIIIIIIIIII
  00414AF0: 55 8B EC 51 8B 45 14 50 8B 4D 10 51 8B 55 0C 52  U.iQ.E.P.M.Q.U.R
  00414B00: 8B 45 08 50 E8 27 F5 FF FF 83 C4 10 89 45 FC 8B  .E.Pe'oyy.A..Eu.
  00414B10: 4D 08 8B 51 04 83 E2 66 75 16 8B 45 08 81 38 63  M..Q..afu..E..8c
  00414B20: 73 6D E0 75 0B 83 7D FC 01 75 05 E8 F6 C6 FF FF  smau..}u.u.eoAyy
  00414B30: 8B 45 FC 8B E5 5D C3 CC CC CC CC CC CC CC CC CC  .Eu.a]AIIIIIIIII
  00414B40: CC CC CC CC CC CC CC CC CC CC CC CC CC CC CC CC  IIIIIIIIIIIIIIII
  00414B50: 55 8B EC 83 EC 40 A1 00 A0 41 00 33 C5 89 45 FC  U.i.i@!..A.3A.Eu
  00414B60: 53 56 C7 05 68 A5 41 00 00 00 00 00 A1 2C A0 41  SVC.h\A.....!,.A
  00414B70: 00 83 C8 01 A3 2C A0 41 00 6A 0A E8 8C C7 FF FF  ..E.,.A.j.e.Cyy
  00414B80: 85 C0 75 07 33 C0 E9 88 02 00 00 C7 45 F0 00 00  .Au.3Ae....CEd..
  00414B90: 00 00 C7 45 F4 00 00 00 00 C7 45 F8 00 00 00 00  ..CEo....CEo....
  00414BA0: C7 05 68 A5 41 00 01 00 00 00 8B 0D 2C A0 41 00  C.h\A.......,.A.
  00414BB0: 83 C9 02 89 0D 2C A0 41 00 8D 75 E0 33 C0 33 C9  .E...,.A..ua3A3E
  00414BC0: 0F A2 89 06 89 5E 04 89 4E 08 89 56 0C BA 04 00  ....^..N..V.o..
  00414BD0: 00 00 6B C2 00 8B 4C 05 E0 89 4D D0 BA 04 00 00  ..kA..L.a.MDo...
  00414BE0: 00 C1 E2 00 8B 44 15 E0 35 47 65 6E 75 B9 04 00  .Aa..D.a5Genu1..
  00414BF0: 00 00 6B D1 03 8B 4C 15 E0 81 F1 69 6E 65 49 0B  ..kN..L.a.nineI.
  00414C00: C1 BA 04 00 00 00 D1 E2 8B 4C 15 E0 81 F1 6E 74  Ao....Na.L.a.nnt
  00414C10: 65 6C 0B C1 75 09 C7 45 D4 01 00 00 00 EB 07 C7  el.Au.CEO....e.C
  00414C20: 45 D4 00 00 00 00 8A 55 D4 88 55 DF 8D 75 E0 B8  EO.....UO.Us.uaC
  00414C30: 01 00 00 00 33 C9 0F A2 89 06 89 5E 04 89 4E 08  ....3E....^..N.
  00414C40: 89 56 0C B8 04 00 00 00 6B C8 00 8B 54 0D E0 89  .V.C....kE..T.a.
  00414C50: 55 D8 0F B6 45 DF 85 C0 74 71 8B 4D D8 81 E1 F0  UO.Es.Atq.MO.ad
  00414C60: 3F FF 0F 81 F9 C0 06 01 00 74 51 8B 55 D8 81 E2  ?y..uA...tQ.UO.a
  00414C70: F0 3F FF 0F 81 FA 60 06 02 00 74 40 8B 45 D8 25  d?y..u`...t@.EO%
  00414C80: F0 3F FF 0F 3D 70 06 02 00 74 31 8B 4D D8 81 E1  d?y.=p...t1.MO.a
  00414C90: F0 3F FF 0F 81 F9 50 06 03 00 74 20 8B 55 D8 81  d?y..uP...t .UO.
  00414CA0: E2 F0 3F FF 0F 81 FA 60 06 03 00 74 0F 8B 45 D8  ad?y..u`...t..EO
  00414CB0: 25 F0 3F FF 0F 3D 70 06 03 00 75 0F 8B 0D 6C A5  %d?y.=p...u...l\
  00414CC0: 41 00 83 C9 01 89 0D 6C A5 41 00 BA 04 00 00 00  A..E...l\A.o....
  00414CD0: 6B C2 03 B9 04 00 00 00 6B D1 00 8B 44 05 E0 89  kA.1....kN..D.a.
  00414CE0: 44 15 F0 B9 04 00 00 00 D1 E1 BA 04 00 00 00 C1  D.d1....Nao....A
  00414CF0: E2 00 8B 44 0D E0 89 44 15 F0 83 7D D0 07 7C 4F  a..D.a.D.d.}D.|O
  00414D00: 8D 75 E0 B8 07 00 00 00 33 C9 0F A2 89 06 89 5E  .uaC....3E....^
  00414D10: 04 89 4E 08 89 56 0C B9 04 00 00 00 C1 E1 00 BA  ..N..V.1....Aa.o
  00414D20: 04 00 00 00 D1 E2 8B 44 0D E0 89 44 15 F0 B9 04  ....Na.D.a.D.d1.
  00414D30: 00 00 00 C1 E1 00 8B 54 0D E0 81 E2 00 02 00 00  ...Aa..T.a.a....
  00414D40: 74 0D A1 6C A5 41 00 83 C8 02 A3 6C A5 41 00 B9  t.!l\A..E.l\A.1
  00414D50: 04 00 00 00 C1 E1 00 8B 54 0D F0 81 E2 00 00 10  ....Aa..T.d.a...
  00414D60: 00 0F 84 AA 00 00 00 C7 05 68 A5 41 00 02 00 00  ...a...C.h\A....
  00414D70: 00 A1 2C A0 41 00 83 C8 04 A3 2C A0 41 00 B9 04  .!,.A..E.,.A.1.
  00414D80: 00 00 00 C1 E1 00 8B 54 0D F0 81 E2 00 00 00 08  ...Aa..T.d.a....
  00414D90: 74 7F B8 04 00 00 00 C1 E0 00 8B 4C 05 F0 81 E1  t.C....Aa..L.d.a
  00414DA0: 00 00 00 10 74 6B 33 C9 0F 01 D0 89 45 C8 89 55  ....tk3E..D.EE.U
  00414DB0: CC 8B 55 C8 8B 45 CC 83 E2 06 83 E0 00 89 55 C0  I.UE.EI.a..a..UA
  00414DC0: 89 45 C4 83 7D C0 06 75 48 83 7D C4 00 75 42 C7  .EA.}A.uH.}A.uBC
  00414DD0: 05 68 A5 41 00 03 00 00 00 8B 0D 2C A0 41 00 83  .h\A.......,.A..
  00414DE0: C9 08 89 0D 2C A0 41 00 BA 04 00 00 00 D1 E2 8B  E...,.A.o....Na.
  00414DF0: 44 15 F0 83 E0 20 74 19 C7 05 68 A5 41 00 05 00  D.d.a t.C.h\A...
  00414E00: 00 00 8B 0D 2C A0 41 00 83 C9 20 89 0D 2C A0 41  ....,.A..E ..,.A
  00414E10: 00 33 C0 5E 5B 8B 4D FC 33 CD E8 70 C4 FF FF 8B  .3A^[.Mu3IepAyy.
  00414E20: E5 5D C3 CC CC CC CC CC CC CC CC CC CC CC CC CC  a]AIIIIIIIIIIIII
  00414E30: CC CC CC CC CC CC CC CC CC CC CC CC CC CC CC CC  IIIIIIIIIIIIIIII
  00414E40: CC CC CC CC CC CC CC CC CC CC CC CC CC CC CC CC  IIIIIIIIIIIIIIII
  00414E50: CC CC CC CC CC CC CC CC CC CC CC CC CC CC CC CC  IIIIIIIIIIIIIIII
  00414E60: CC CC CC CC CC CC CC CC CC CC CC CC CC CC CC CC  IIIIIIIIIIIIIIII
  00414E70: CC CC CC CC CC CC CC CC CC CC CC CC CC CC CC CC  IIIIIIIIIIIIIIII
  00414E80: CC CC CC CC CC CC CC CC CC CC CC CC CC CC CC CC  IIIIIIIIIIIIIIII
  00414E90: CC CC CC CC CC CC CC CC CC CC CC CC CC CC CC CC  IIIIIIIIIIIIIIII
  00414EA0: CC CC CC CC CC CC CC CC CC CC CC CC CC CC CC CC  IIIIIIIIIIIIIIII
  00414EB0: CC CC CC CC CC CC CC CC CC CC CC CC CC CC CC CC  IIIIIIIIIIIIIIII
  00414EC0: CC CC CC CC CC CC CC CC CC CC CC CC CC CC CC CC  IIIIIIIIIIIIIIII
  00414ED0: CC CC CC CC CC CC CC CC CC CC CC CC CC CC CC CC  IIIIIIIIIIIIIIII
  00414EE0: 55 8B EC 51 83 3D 30 A0 41 00 00 74 09 C7 45 FC  U.iQ.=0.A..t.CEu
  00414EF0: 01 00 00 00 EB 07 C7 45 FC 00 00 00 00 8B 45 FC  ....e.CEu.....Eu
  00414F00: 8B E5 5D C3 CC CC CC CC CC CC CC CC CC FF 25 AC  .a]AIIIIIIIIIy%
  00414F10: B0 41 00 FF 25 A0 B0 41 00 FF 25 9C B0 41 00 FF  A.y%.A.y%.A.y
  00414F20: 25 98 B0 41 00 FF 25 A4 B0 41 00 FF 25 A8 B0 41  %.A.y%?A.y%NA
  00414F30: 00 FF 25 6C B1 41 00 FF 25 68 B1 41 00 FF 25 64  .y%l}A.y%h}A.y%d
  00414F40: B1 41 00 FF 25 60 B1 41 00 FF 25 5C B1 41 00 FF  }A.y%`}A.y%\}A.y
  00414F50: 25 58 B1 41 00 FF 25 54 B1 41 00 FF 25 50 B1 41  %X}A.y%T}A.y%P}A
  00414F60: 00 FF 25 4C B1 41 00 FF 25 48 B1 41 00 FF 25 44  .y%L}A.y%H}A.y%D
  00414F70: B1 41 00 FF 25 40 B1 41 00 FF 25 3C B1 41 00 FF  }A.y%@}A.y%<}A.y
  00414F80: 25 38 B1 41 00 FF 25 34 B1 41 00 FF 25 30 B1 41  %8}A.y%4}A.y%0}A
  00414F90: 00 FF 25 2C B1 41 00 FF 25 28 B1 41 00 FF 25 24  .y%,}A.y%(}A.y%$
  00414FA0: B1 41 00 FF 25 20 B1 41 00 FF 25 1C B1 41 00 FF  }A.y% }A.y%.}A.y
  00414FB0: 25 18 B1 41 00 FF 25 EC B0 41 00 FF 25 14 B1 41  %.}A.y%iA.y%.}A
  00414FC0: 00 FF 25 E0 B0 41 00 FF 25 E4 B0 41 00 FF 25 E8  .y%aA.y%aA.y%e
  00414FD0: B0 41 00 FF 25 70 B1 41 00 FF 25 F0 B0 41 00 FF  A.y%p}A.y%dA.y
  00414FE0: 25 F4 B0 41 00 FF 25 F8 B0 41 00 FF 25 FC B0 41  %oA.y%oA.y%uA
  00414FF0: 00 FF 25 00 B1 41 00 FF 25 04 B1 41 00 FF 25 08  .y%.}A.y%.}A.y%.
  00415000: B1 41 00 FF 25 0C B1 41 00 FF 25 10 B1 41 00 FF  }A.y%.}A.y%.}A.y
  00415010: 25 38 B0 41 00 FF 25 04 B0 41 00 FF 25 08 B0 41  %8A.y%.A.y%.A
  00415020: 00 FF 25 0C B0 41 00 FF 25 10 B0 41 00 FF 25 14  .y%.A.y%.A.y%.
  00415030: B0 41 00 FF 25 58 B0 41 00 FF 25 54 B0 41 00 FF  A.y%XA.y%TA.y
  00415040: 25 50 B0 41 00 FF 25 4C B0 41 00 FF 25 48 B0 41  %PA.y%LA.y%HA
  00415050: 00 FF 25 44 B0 41 00 FF 25 40 B0 41 00 FF 25 3C  .y%DA.y%@A.y%<
  00415060: B0 41 00 FF 25 00 B0 41 00 FF 25 34 B0 41 00 FF  A.y%.A.y%4A.y
  00415070: 25 30 B0 41 00 FF 25 2C B0 41 00 FF 25 28 B0 41  %0A.y%,A.y%(A
  00415080: 00 FF 25 24 B0 41 00 FF 25 20 B0 41 00 FF 25 1C  .y%$A.y% A.y%.
  00415090: B0 41 00 FF 25 18 B0 41 00 CC CC CC CC CC CC CC  A.y%.A.IIIIIII
  004150A0: 55 8B EC B0 01 5D C3 CC CC CC CC CC CC CC CC CC  U.i.]AIIIIIIIII
  004150B0: 55 8B EC B0 01 5D C3 CC CC CC CC CC CC CC CC CC  U.i.]AIIIIIIIII
  004150C0: 55 8B EC B0 01 5D C3 CC CC CC CC CC CC CC CC CC  U.i.]AIIIIIIIII
  004150D0: 55 8B EC B0 01 5D C3 CC CC CC CC CC CC CC CC CC  U.i.]AIIIIIIIII
  004150E0: 55 8B EC B0 01 5D C3 CC CC CC CC CC CC CC CC CC  U.i.]AIIIIIIIII
  004150F0: 55 8B EC 33 C0 5D C3 CC CC CC CC CC CC CC CC CC  U.i3A]AIIIIIIIII
  00415100: CC CC CC CC CC CC CC CC CC CC CC CC CC CC CC CC  IIIIIIIIIIIIIIII
  00415110: CC CC CC CC CC CC CC CC CC CC CC CC CC CC CC CC  IIIIIIIIIIIIIIII
  00415120: CC CC CC CC CC CC CC CC CC CC CC CC CC CC CC CC  IIIIIIIIIIIIIIII
  00415130: CC CC CC CC CC CC CC CC CC CC CC CC CC CC CC CC  IIIIIIIIIIIIIIII
  00415140: CC CC CC CC CC CC CC CC CC CC CC CC CC CC CC CC  IIIIIIIIIIIIIIII
  00415150: CC CC CC CC CC CC CC CC CC CC CC CC CC CC CC CC  IIIIIIIIIIIIIIII
  00415160: CC CC CC CC CC CC CC CC CC CC CC CC CC CC CC CC  IIIIIIIIIIIIIIII
  00415170: CC CC CC CC CC CC CC CC CC CC CC CC CC CC CC CC  IIIIIIIIIIIIIIII
  00415180: CC CC CC CC CC CC CC CC CC CC CC CC CC CC CC CC  IIIIIIIIIIIIIIII
  00415190: CC CC CC CC CC CC CC CC CC CC CC CC CC CC CC CC  IIIIIIIIIIIIIIII
  004151A0: CC CC CC CC CC CC CC CC CC CC CC CC CC CC CC CC  IIIIIIIIIIIIIIII
  004151B0: CC CC CC CC CC CC CC CC CC CC CC CC CC CC CC CC  IIIIIIIIIIIIIIII
  004151C0: CC CC CC CC CC CC CC CC CC CC CC CC CC CC CC CC  IIIIIIIIIIIIIIII
  004151D0: CC CC CC CC CC CC CC CC CC CC CC CC CC CC CC CC  IIIIIIIIIIIIIIII
  004151E0: CC CC CC CC CC CC CC CC CC CC CC CC CC CC CC CC  IIIIIIIIIIIIIIII
  004151F0: CC CC CC CC CC CC CC CC CC CC CC CC CC CC CC CC  IIIIIIIIIIIIIIII
  00415200: CC CC CC CC CC CC CC CC CC CC CC CC CC CC CC CC  IIIIIIIIIIIIIIII
  00415210: CC CC CC CC CC CC CC CC CC CC CC CC CC CC CC CC  IIIIIIIIIIIIIIII
  00415220: CC CC CC CC CC CC CC CC CC CC CC CC CC CC CC CC  IIIIIIIIIIIIIIII
  00415230: CC CC CC CC CC CC CC CC CC CC CC CC CC CC CC CC  IIIIIIIIIIIIIIII
  00415240: CC CC CC CC CC CC CC CC CC CC CC CC CC CC CC CC  IIIIIIIIIIIIIIII
  00415250: CC CC CC CC CC CC CC CC CC CC CC CC CC CC CC CC  IIIIIIIIIIIIIIII
  00415260: CC CC CC CC CC CC CC CC CC CC CC CC CC CC CC CC  IIIIIIIIIIIIIIII
  00415270: CC CC CC CC CC CC CC CC CC CC CC CC CC CC CC CC  IIIIIIIIIIIIIIII
  00415280: CC CC CC CC CC CC CC CC CC CC CC CC CC CC CC CC  IIIIIIIIIIIIIIII
  00415290: CC CC CC CC CC CC CC CC CC CC CC CC CC CC CC CC  IIIIIIIIIIIIIIII
  004152A0: CC CC CC CC CC CC CC CC CC CC CC CC CC CC CC CC  IIIIIIIIIIIIIIII
  004152B0: CC CC CC CC CC CC CC CC CC CC CC CC CC CC CC CC  IIIIIIIIIIIIIIII
  004152C0: CC CC CC CC CC CC CC CC CC CC CC CC CC CC CC CC  IIIIIIIIIIIIIIII
  004152D0: CC CC CC CC CC CC CC CC CC CC CC CC CC CC CC CC  IIIIIIIIIIIIIIII
  004152E0: CC CC CC CC CC CC CC CC CC CC CC CC CC CC CC CC  IIIIIIIIIIIIIIII
  004152F0: CC CC CC CC CC CC CC CC CC CC CC CC CC CC CC CC  IIIIIIIIIIIIIIII
  00415300: CC CC CC CC CC CC CC CC CC CC CC CC CC CC CC CC  IIIIIIIIIIIIIIII
  00415310: CC CC CC CC CC CC CC CC CC CC CC CC CC CC CC CC  IIIIIIIIIIIIIIII
  00415320: CC CC CC CC CC CC CC CC CC CC CC CC CC CC CC CC  IIIIIIIIIIIIIIII
  00415330: CC CC CC CC CC CC CC CC CC CC CC CC CC CC CC CC  IIIIIIIIIIIIIIII
  00415340: CC CC CC CC CC CC CC CC CC CC CC CC CC CC CC CC  IIIIIIIIIIIIIIII
  00415350: CC CC CC CC CC CC CC CC CC CC CC CC CC CC CC CC  IIIIIIIIIIIIIIII
  00415360: CC CC CC CC CC CC CC CC CC CC CC CC CC CC CC CC  IIIIIIIIIIIIIIII
  00415370: CC CC CC CC CC CC CC CC CC CC CC CC CC CC CC CC  IIIIIIIIIIIIIIII
  00415380: CC CC CC CC CC CC CC CC CC CC CC CC CC CC CC CC  IIIIIIIIIIIIIIII
  00415390: CC CC CC CC CC CC CC CC CC CC CC CC CC CC CC CC  IIIIIIIIIIIIIIII
  004153A0: CC CC CC CC CC CC CC CC CC CC CC CC CC CC CC CC  IIIIIIIIIIIIIIII
  004153B0: CC CC CC CC CC CC CC CC CC CC CC CC CC CC CC CC  IIIIIIIIIIIIIIII
  004153C0: CC CC CC CC CC CC CC CC CC CC CC CC CC CC CC CC  IIIIIIIIIIIIIIII
  004153D0: CC CC CC CC CC CC CC CC CC CC CC CC CC CC CC CC  IIIIIIIIIIIIIIII
  004153E0: CC CC CC CC CC CC CC CC CC CC CC CC CC CC CC CC  IIIIIIIIIIIIIIII
  004153F0: CC CC CC CC CC CC CC CC CC CC CC CC CC CC CC CC  IIIIIIIIIIIIIIII
  00415400: CC CC CC CC CC CC CC CC CC CC CC CC CC CC CC CC  IIIIIIIIIIIIIIII
  00415410: CC CC CC CC CC CC CC CC CC CC CC CC CC CC CC CC  IIIIIIIIIIIIIIII
  00415420: CC CC CC CC CC CC CC CC CC CC CC CC CC CC CC CC  IIIIIIIIIIIIIIII
  00415430: CC CC CC CC CC CC CC CC CC CC CC CC CC CC CC CC  IIIIIIIIIIIIIIII
  00415440: CC CC CC CC CC CC CC CC CC CC CC CC CC CC CC CC  IIIIIIIIIIIIIIII
  00415450: CC CC CC CC CC CC CC CC CC CC CC CC CC CC CC CC  IIIIIIIIIIIIIIII
  00415460: CC CC CC CC CC CC CC CC CC CC CC CC CC CC CC CC  IIIIIIIIIIIIIIII
  00415470: CC CC CC CC CC CC CC CC CC CC CC CC CC CC CC CC  IIIIIIIIIIIIIIII
  00415480: CC CC CC CC CC CC CC CC CC CC CC CC CC CC CC CC  IIIIIIIIIIIIIIII
  00415490: CC CC CC CC CC CC CC CC CC CC CC CC CC CC CC CC  IIIIIIIIIIIIIIII
  004154A0: CC CC CC CC CC CC CC CC CC CC CC CC CC CC CC CC  IIIIIIIIIIIIIIII
  004154B0: CC CC CC CC CC CC CC CC CC CC CC CC CC CC CC CC  IIIIIIIIIIIIIIII
  004154C0: CC CC CC CC CC CC CC CC CC CC CC CC CC CC CC CC  IIIIIIIIIIIIIIII
  004154D0: CC CC CC CC CC CC CC CC CC CC CC CC CC CC CC CC  IIIIIIIIIIIIIIII
  004154E0: CC CC CC CC CC CC CC CC CC CC CC CC CC CC CC CC  IIIIIIIIIIIIIIII
  004154F0: CC CC CC CC CC CC CC CC CC CC CC CC CC CC CC CC  IIIIIIIIIIIIIIII
  00415500: CC CC CC CC CC CC CC CC CC CC CC CC CC CC CC CC  IIIIIIIIIIIIIIII
  00415510: CC CC CC CC CC CC CC CC CC CC CC CC CC CC CC CC  IIIIIIIIIIIIIIII
  00415520: CC CC CC CC CC CC CC CC CC CC CC CC CC CC CC CC  IIIIIIIIIIIIIIII
  00415530: CC CC CC CC CC CC CC CC CC CC CC CC CC CC CC CC  IIIIIIIIIIIIIIII
  00415540: CC CC CC CC CC CC CC CC CC CC CC CC CC CC CC CC  IIIIIIIIIIIIIIII
  00415550: CC CC CC CC CC CC CC CC CC CC CC CC CC CC CC CC  IIIIIIIIIIIIIIII
  00415560: CC CC CC CC CC CC CC CC CC CC CC CC CC CC CC CC  IIIIIIIIIIIIIIII
  00415570: CC CC CC CC CC CC CC CC CC CC CC CC CC CC CC CC  IIIIIIIIIIIIIIII
  00415580: CC CC CC CC CC CC CC CC CC CC CC CC CC CC CC CC  IIIIIIIIIIIIIIII
  00415590: CC CC CC CC CC CC CC CC CC CC CC CC CC CC CC CC  IIIIIIIIIIIIIIII
  004155A0: CC CC CC CC CC CC CC CC CC CC CC CC CC CC CC CC  IIIIIIIIIIIIIIII
  004155B0: CC CC CC CC CC CC CC CC CC CC CC CC CC CC CC CC  IIIIIIIIIIIIIIII
  004155C0: CC CC CC CC CC CC CC CC CC CC CC CC CC CC CC CC  IIIIIIIIIIIIIIII
  004155D0: CC CC CC CC CC CC CC CC CC CC CC CC CC CC CC CC  IIIIIIIIIIIIIIII
  004155E0: CC CC CC CC CC CC CC CC CC CC CC CC CC CC CC CC  IIIIIIIIIIIIIIII
  004155F0: CC CC CC CC CC CC CC CC CC CC CC CC CC CC CC CC  IIIIIIIIIIIIIIII
  00415600: CC CC CC CC CC CC CC CC CC CC CC CC CC CC CC CC  IIIIIIIIIIIIIIII
  00415610: CC CC CC CC CC CC CC CC CC CC CC CC CC CC CC CC  IIIIIIIIIIIIIIII
  00415620: CC CC CC CC CC CC CC CC CC CC CC CC CC CC CC CC  IIIIIIIIIIIIIIII
  00415630: CC CC CC CC CC CC CC CC CC CC CC CC CC CC CC CC  IIIIIIIIIIIIIIII
  00415640: CC CC CC CC CC CC CC CC CC CC CC CC CC CC CC CC  IIIIIIIIIIIIIIII
  00415650: CC CC CC CC CC CC CC CC CC CC CC CC CC CC CC CC  IIIIIIIIIIIIIIII
  00415660: CC CC CC CC CC CC CC CC CC CC CC CC CC CC CC CC  IIIIIIIIIIIIIIII
  00415670: CC CC CC CC CC CC CC CC CC CC CC CC CC CC CC CC  IIIIIIIIIIIIIIII
  00415680: CC CC CC CC CC CC CC CC CC CC CC CC CC CC CC CC  IIIIIIIIIIIIIIII
  00415690: CC CC CC CC CC CC CC CC CC CC CC CC CC CC CC CC  IIIIIIIIIIIIIIII
  004156A0: CC CC CC CC CC CC CC CC CC CC CC CC CC CC CC CC  IIIIIIIIIIIIIIII
  004156B0: CC CC CC CC CC CC CC CC CC CC CC CC CC CC CC CC  IIIIIIIIIIIIIIII
  004156C0: CC CC CC CC CC CC CC CC CC CC CC CC CC CC CC CC  IIIIIIIIIIIIIIII
  004156D0: CC CC CC CC CC CC CC CC CC CC CC CC CC CC CC CC  IIIIIIIIIIIIIIII
  004156E0: CC CC CC CC CC CC CC CC CC CC CC CC CC CC CC CC  IIIIIIIIIIIIIIII
  004156F0: CC CC CC CC CC CC CC CC CC CC CC CC CC CC CC CC  IIIIIIIIIIIIIIII
  00415700: CC CC CC CC CC CC CC CC CC CC CC CC CC CC CC CC  IIIIIIIIIIIIIIII
  00415710: CC CC CC CC CC CC CC CC CC CC CC CC CC CC CC CC  IIIIIIIIIIIIIIII
  00415720: CC CC CC CC CC CC CC CC CC CC CC CC CC CC CC CC  IIIIIIIIIIIIIIII
  00415730: CC CC CC CC CC CC CC CC CC CC CC CC CC CC CC CC  IIIIIIIIIIIIIIII
  00415740: CC CC CC CC CC CC CC CC CC CC CC CC CC CC CC CC  IIIIIIIIIIIIIIII
  00415750: CC CC CC CC CC CC CC CC CC CC CC CC CC CC CC CC  IIIIIIIIIIIIIIII
  00415760: CC CC CC CC CC CC CC CC CC CC CC CC CC CC CC CC  IIIIIIIIIIIIIIII
  00415770: CC CC CC CC CC CC CC CC CC CC CC CC CC CC CC CC  IIIIIIIIIIIIIIII
  00415780: CC CC CC CC CC CC CC CC CC CC CC CC CC CC CC CC  IIIIIIIIIIIIIIII
  00415790: CC CC CC CC CC CC CC CC CC CC CC CC CC CC CC CC  IIIIIIIIIIIIIIII
  004157A0: CC CC CC CC CC CC CC CC CC CC CC CC CC CC CC CC  IIIIIIIIIIIIIIII
  004157B0: CC CC CC CC CC CC CC CC CC CC CC CC CC CC CC CC  IIIIIIIIIIIIIIII
  004157C0: CC CC CC CC CC CC CC CC CC CC CC CC CC CC CC CC  IIIIIIIIIIIIIIII
  004157D0: CC CC CC CC CC CC CC CC CC CC CC CC CC CC CC CC  IIIIIIIIIIIIIIII
  004157E0: CC CC CC CC CC CC CC CC CC CC CC CC CC CC CC CC  IIIIIIIIIIIIIIII
  004157F0: CC CC CC CC CC CC CC CC CC CC CC CC CC CC CC CC  IIIIIIIIIIIIIIII
  00415800: CC CC CC CC CC CC CC CC CC CC CC CC CC CC CC CC  IIIIIIIIIIIIIIII
  00415810: CC CC CC CC CC CC CC CC CC CC CC CC CC CC CC CC  IIIIIIIIIIIIIIII
  00415820: CC CC CC CC CC CC CC CC CC CC CC CC CC CC CC CC  IIIIIIIIIIIIIIII
  00415830: CC CC CC CC CC CC CC CC CC CC CC CC CC CC CC CC  IIIIIIIIIIIIIIII
  00415840: CC CC CC CC CC CC CC CC CC CC CC CC CC CC CC CC  IIIIIIIIIIIIIIII
  00415850: CC CC CC CC CC CC CC CC CC CC CC CC CC CC CC CC  IIIIIIIIIIIIIIII
  00415860: CC CC CC CC CC CC CC CC CC CC CC CC CC CC CC CC  IIIIIIIIIIIIIIII
  00415870: CC CC CC CC CC CC CC CC CC CC CC CC CC CC CC CC  IIIIIIIIIIIIIIII
  00415880: CC CC CC CC CC CC CC CC CC CC CC CC CC CC CC CC  IIIIIIIIIIIIIIII
  00415890: CC CC CC CC CC CC CC CC CC CC CC CC CC CC CC CC  IIIIIIIIIIIIIIII
  004158A0: CC CC CC CC CC CC CC CC CC CC CC CC CC CC CC CC  IIIIIIIIIIIIIIII
  004158B0: CC CC CC CC CC CC CC CC CC CC CC CC CC CC CC CC  IIIIIIIIIIIIIIII
  004158C0: CC CC CC CC CC CC CC CC CC CC CC CC CC CC CC CC  IIIIIIIIIIIIIIII
  004158D0: CC CC CC CC CC CC CC CC CC CC CC CC CC CC CC CC  IIIIIIIIIIIIIIII
  004158E0: CC CC CC CC CC CC CC CC CC CC CC CC CC CC CC CC  IIIIIIIIIIIIIIII
  004158F0: CC CC CC CC CC CC CC CC CC CC CC CC CC CC CC CC  IIIIIIIIIIIIIIII
  00415900: CC CC CC CC CC CC CC CC CC CC CC CC CC CC CC CC  IIIIIIIIIIIIIIII
  00415910: CC CC CC CC CC CC CC CC CC CC CC CC CC CC CC CC  IIIIIIIIIIIIIIII
  00415920: CC CC CC CC CC CC CC CC CC CC CC CC CC CC CC CC  IIIIIIIIIIIIIIII
  00415930: CC CC CC CC CC CC CC CC CC CC CC CC CC CC CC CC  IIIIIIIIIIIIIIII
  00415940: CC CC CC CC CC CC CC CC CC CC CC CC CC CC CC CC  IIIIIIIIIIIIIIII
  00415950: CC CC CC CC CC CC CC CC CC CC CC CC CC CC CC CC  IIIIIIIIIIIIIIII
  00415960: CC CC CC CC CC CC CC CC CC CC CC CC CC CC CC CC  IIIIIIIIIIIIIIII
  00415970: CC CC CC CC CC CC CC CC CC CC CC CC CC CC CC CC  IIIIIIIIIIIIIIII
  00415980: CC CC CC CC CC CC CC CC CC CC CC CC CC CC CC CC  IIIIIIIIIIIIIIII
  00415990: CC CC CC CC CC CC CC CC CC CC CC CC CC CC CC CC  IIIIIIIIIIIIIIII
  004159A0: CC CC CC CC CC CC CC CC CC CC CC CC CC CC CC CC  IIIIIIIIIIIIIIII
  004159B0: CC CC CC CC CC CC CC CC CC CC CC CC CC CC CC CC  IIIIIIIIIIIIIIII
  004159C0: CC CC CC CC CC CC CC CC CC CC CC CC CC CC CC CC  IIIIIIIIIIIIIIII
  004159D0: CC CC CC CC CC CC CC CC CC CC CC CC CC CC CC CC  IIIIIIIIIIIIIIII
  004159E0: CC CC CC CC CC CC CC CC CC CC CC CC CC CC CC CC  IIIIIIIIIIIIIIII
  004159F0: CC CC CC CC CC CC CC CC CC CC CC CC CC CC CC CC  IIIIIIIIIIIIIIII
  00415A00: CC CC CC CC CC CC CC CC CC CC CC CC CC CC CC CC  IIIIIIIIIIIIIIII
  00415A10: CC CC CC CC CC CC CC CC CC CC CC CC CC CC CC CC  IIIIIIIIIIIIIIII
  00415A20: CC CC CC CC CC CC CC CC CC CC CC CC CC CC CC CC  IIIIIIIIIIIIIIII
  00415A30: CC CC CC CC CC CC CC CC CC CC CC CC CC CC CC CC  IIIIIIIIIIIIIIII
  00415A40: CC CC CC CC CC CC CC CC CC CC CC CC CC CC CC CC  IIIIIIIIIIIIIIII
  00415A50: CC CC CC CC CC CC CC CC CC CC CC CC CC CC CC CC  IIIIIIIIIIIIIIII
  00415A60: CC CC CC CC CC CC CC CC CC CC CC CC CC CC CC CC  IIIIIIIIIIIIIIII
  00415A70: CC CC CC CC CC CC CC CC CC CC CC CC CC CC CC CC  IIIIIIIIIIIIIIII
  00415A80: CC CC CC CC CC CC CC CC CC CC CC CC CC CC CC CC  IIIIIIIIIIIIIIII
  00415A90: CC CC CC CC CC CC CC CC CC CC CC CC CC CC CC CC  IIIIIIIIIIIIIIII
  00415AA0: CC CC CC CC CC CC CC CC CC CC CC CC CC CC CC CC  IIIIIIIIIIIIIIII
  00415AB0: CC CC CC CC CC CC CC CC CC CC CC CC CC CC CC CC  IIIIIIIIIIIIIIII
  00415AC0: CC CC CC CC CC CC CC CC CC CC CC CC CC CC CC CC  IIIIIIIIIIIIIIII
  00415AD0: CC CC CC CC CC CC CC CC CC CC CC CC CC CC CC CC  IIIIIIIIIIIIIIII
  00415AE0: CC CC CC CC CC CC CC CC CC CC CC CC CC CC CC CC  IIIIIIIIIIIIIIII
  00415AF0: CC CC CC CC CC CC CC CC CC CC CC CC CC CC CC CC  IIIIIIIIIIIIIIII
  00415B00: CC CC CC CC CC CC CC CC CC CC CC CC CC CC CC CC  IIIIIIIIIIIIIIII
  00415B10: CC CC CC CC CC CC CC CC CC CC CC CC CC CC CC CC  IIIIIIIIIIIIIIII
  00415B20: CC CC CC CC CC CC CC CC CC CC CC CC CC CC CC CC  IIIIIIIIIIIIIIII
  00415B30: CC CC CC CC CC CC CC CC CC CC CC CC CC CC CC CC  IIIIIIIIIIIIIIII
  00415B40: CC CC CC CC CC CC CC CC CC CC CC CC CC CC CC CC  IIIIIIIIIIIIIIII
  00415B50: CC CC CC CC CC CC CC CC CC CC CC CC CC CC CC CC  IIIIIIIIIIIIIIII
  00415B60: CC CC CC CC CC CC CC CC CC CC CC CC CC CC CC CC  IIIIIIIIIIIIIIII
  00415B70: CC CC CC CC CC CC CC CC CC CC CC CC CC CC CC CC  IIIIIIIIIIIIIIII
  00415B80: CC CC CC CC CC CC CC CC CC CC CC CC CC CC CC CC  IIIIIIIIIIIIIIII
  00415B90: CC CC CC CC CC CC CC CC CC CC CC CC CC CC CC CC  IIIIIIIIIIIIIIII
  00415BA0: CC CC CC CC CC CC CC CC CC CC CC CC CC CC CC CC  IIIIIIIIIIIIIIII
  00415BB0: CC CC CC CC CC CC CC CC CC CC CC CC CC CC CC CC  IIIIIIIIIIIIIIII
  00415BC0: CC CC CC CC CC CC CC CC CC CC CC CC CC CC CC CC  IIIIIIIIIIIIIIII
  00415BD0: CC CC CC CC CC CC CC CC CC CC CC CC CC CC CC CC  IIIIIIIIIIIIIIII
  00415BE0: CC CC CC CC CC CC CC CC CC CC CC CC CC CC CC CC  IIIIIIIIIIIIIIII
  00415BF0: CC CC CC CC CC CC CC CC CC CC CC CC CC CC CC CC  IIIIIIIIIIIIIIII
  00415C00: CC CC CC CC CC CC CC CC CC CC CC CC CC CC CC CC  IIIIIIIIIIIIIIII
  00415C10: CC CC CC CC CC CC CC CC CC CC CC CC CC CC CC CC  IIIIIIIIIIIIIIII
  00415C20: CC CC CC CC CC CC CC CC CC CC CC CC CC CC CC CC  IIIIIIIIIIIIIIII
  00415C30: CC CC CC CC CC CC CC CC CC CC CC CC CC CC CC CC  IIIIIIIIIIIIIIII
  00415C40: CC CC CC CC CC CC CC CC CC CC CC CC CC CC CC CC  IIIIIIIIIIIIIIII
  00415C50: CC CC CC CC CC CC CC CC CC CC CC CC CC CC CC CC  IIIIIIIIIIIIIIII
  00415C60: CC CC CC CC CC CC CC CC CC CC CC CC CC CC CC CC  IIIIIIIIIIIIIIII
  00415C70: CC CC CC CC CC CC CC CC CC CC CC CC CC CC CC CC  IIIIIIIIIIIIIIII
  00415C80: CC CC CC CC CC CC CC CC CC CC CC CC CC CC CC CC  IIIIIIIIIIIIIIII
  00415C90: CC CC CC CC CC CC CC CC CC CC CC CC CC CC CC CC  IIIIIIIIIIIIIIII
  00415CA0: CC CC CC CC CC CC CC CC CC CC CC CC CC CC CC CC  IIIIIIIIIIIIIIII
  00415CB0: CC CC CC CC CC CC CC CC CC CC CC CC CC CC CC CC  IIIIIIIIIIIIIIII
  00415CC0: CC CC CC CC CC CC CC CC CC CC CC CC CC CC CC CC  IIIIIIIIIIIIIIII
  00415CD0: CC CC CC CC CC CC CC CC CC CC CC CC CC CC CC CC  IIIIIIIIIIIIIIII
  00415CE0: CC CC CC CC CC CC CC CC CC CC CC CC CC CC CC CC  IIIIIIIIIIIIIIII
  00415CF0: CC CC CC CC CC CC CC CC CC CC CC CC CC CC CC CC  IIIIIIIIIIIIIIII
  00415D00: CC CC CC CC CC CC CC CC CC CC CC CC CC CC CC CC  IIIIIIIIIIIIIIII
  00415D10: CC CC CC CC CC CC CC CC CC CC CC CC CC CC CC CC  IIIIIIIIIIIIIIII
  00415D20: CC CC CC CC CC CC CC CC CC CC CC CC CC CC CC CC  IIIIIIIIIIIIIIII
  00415D30: CC CC CC CC CC CC CC CC CC CC CC CC CC CC CC CC  IIIIIIIIIIIIIIII
  00415D40: CC CC CC CC CC CC CC CC CC CC CC CC CC CC CC CC  IIIIIIIIIIIIIIII
  00415D50: CC CC CC CC CC CC CC CC CC CC CC CC CC CC CC CC  IIIIIIIIIIIIIIII
  00415D60: CC CC CC CC CC CC CC CC CC CC CC CC CC CC CC CC  IIIIIIIIIIIIIIII
  00415D70: CC CC CC CC CC CC CC CC CC CC CC CC CC CC CC CC  IIIIIIIIIIIIIIII
  00415D80: CC CC CC CC CC CC CC CC CC CC CC CC CC CC CC CC  IIIIIIIIIIIIIIII
  00415D90: CC CC CC CC CC CC CC CC CC CC CC CC CC CC CC CC  IIIIIIIIIIIIIIII
  00415DA0: CC CC CC CC CC CC CC CC CC CC CC CC CC CC CC CC  IIIIIIIIIIIIIIII
  00415DB0: CC CC CC CC CC CC CC CC CC CC CC CC CC CC CC CC  IIIIIIIIIIIIIIII
  00415DC0: CC CC CC CC CC CC CC CC CC CC CC CC CC CC CC CC  IIIIIIIIIIIIIIII
  00415DD0: CC CC CC CC CC CC CC CC CC CC CC CC CC CC CC CC  IIIIIIIIIIIIIIII
  00415DE0: CC CC CC CC CC CC CC CC CC CC CC CC CC CC CC CC  IIIIIIIIIIIIIIII
  00415DF0: CC CC CC CC CC CC CC CC CC CC CC CC CC CC CC CC  IIIIIIIIIIIIIIII
  00415E00: CC CC CC CC CC CC CC CC CC CC CC CC CC CC CC CC  IIIIIIIIIIIIIIII
  00415E10: CC CC CC CC CC CC CC CC CC CC CC CC CC CC CC CC  IIIIIIIIIIIIIIII
  00415E20: CC CC CC CC CC CC CC CC CC CC CC CC CC CC CC CC  IIIIIIIIIIIIIIII
  00415E30: CC CC CC CC CC CC CC CC CC CC CC CC CC CC CC CC  IIIIIIIIIIIIIIII
  00415E40: CC CC CC CC CC CC CC CC CC CC CC CC CC CC CC CC  IIIIIIIIIIIIIIII
  00415E50: CC CC CC CC CC CC CC CC CC CC CC CC CC CC CC CC  IIIIIIIIIIIIIIII
  00415E60: CC CC CC CC CC CC CC CC CC CC CC CC CC CC CC CC  IIIIIIIIIIIIIIII
  00415E70: CC CC CC CC CC CC CC CC CC CC CC CC CC CC CC CC  IIIIIIIIIIIIIIII
  00415E80: CC CC CC CC CC CC CC CC CC CC CC CC CC CC CC CC  IIIIIIIIIIIIIIII
  00415E90: CC CC CC CC CC CC CC CC CC CC CC CC CC CC CC CC  IIIIIIIIIIIIIIII
  00415EA0: CC CC CC CC CC CC CC CC CC CC CC CC CC CC CC CC  IIIIIIIIIIIIIIII
  00415EB0: CC CC CC CC CC CC CC CC CC CC CC CC CC CC CC CC  IIIIIIIIIIIIIIII
  00415EC0: CC CC CC CC CC CC CC CC CC CC CC CC CC CC CC CC  IIIIIIIIIIIIIIII
  00415ED0: CC CC CC CC CC CC CC CC CC CC CC CC CC CC CC CC  IIIIIIIIIIIIIIII
  00415EE0: CC CC CC CC CC CC CC CC CC CC CC CC CC CC CC CC  IIIIIIIIIIIIIIII
  00415EF0: CC CC CC CC CC CC CC CC CC CC CC CC CC CC CC CC  IIIIIIIIIIIIIIII
  00415F00: CC CC CC CC CC CC CC CC CC CC CC CC CC CC CC CC  IIIIIIIIIIIIIIII
  00415F10: CC CC CC CC CC CC CC CC CC CC CC CC CC CC CC CC  IIIIIIIIIIIIIIII
  00415F20: CC CC CC CC CC CC CC CC CC CC CC CC CC CC CC CC  IIIIIIIIIIIIIIII
  00415F30: CC CC CC CC CC CC CC CC CC CC CC CC CC CC CC CC  IIIIIIIIIIIIIIII
  00415F40: CC CC CC CC CC CC CC CC CC CC CC CC CC CC CC CC  IIIIIIIIIIIIIIII
  00415F50: CC CC CC CC CC CC CC CC CC CC CC CC CC CC CC CC  IIIIIIIIIIIIIIII
  00415F60: CC CC CC CC CC CC CC CC CC CC CC CC CC CC CC CC  IIIIIIIIIIIIIIII
  00415F70: CC CC CC CC CC CC CC CC CC CC CC CC CC CC CC CC  IIIIIIIIIIIIIIII
  00415F80: CC CC CC CC CC CC CC CC CC CC CC CC CC CC CC CC  IIIIIIIIIIIIIIII
  00415F90: CC CC CC CC CC CC CC CC CC CC CC CC CC CC CC CC  IIIIIIIIIIIIIIII
  00415FA0: CC CC CC CC CC CC CC CC CC CC CC CC CC CC CC CC  IIIIIIIIIIIIIIII
  00415FB0: CC CC CC CC CC CC CC CC CC CC CC CC CC CC CC CC  IIIIIIIIIIIIIIII
  00415FC0: CC CC CC CC CC CC CC CC CC CC CC CC CC CC CC CC  IIIIIIIIIIIIIIII
  00415FD0: CC CC CC CC CC CC CC CC CC CC CC CC CC CC CC CC  IIIIIIIIIIIIIIII
  00415FE0: CC CC CC CC CC CC CC CC CC CC CC CC CC CC CC CC  IIIIIIIIIIIIIIII
  00415FF0: CC CC CC CC CC CC CC CC CC CC CC CC CC CC CC CC  IIIIIIIIIIIIIIII
  00416000: CC CC CC CC CC CC CC CC CC CC CC CC CC CC CC CC  IIIIIIIIIIIIIIII
  00416010: CC CC CC CC CC CC CC CC CC CC CC CC CC CC CC CC  IIIIIIIIIIIIIIII
  00416020: CC CC CC CC CC CC CC CC CC CC CC CC CC CC CC CC  IIIIIIIIIIIIIIII
  00416030: CC CC CC CC CC CC CC CC CC CC CC CC CC CC CC CC  IIIIIIIIIIIIIIII
  00416040: CC CC CC CC CC CC CC CC CC CC CC CC CC CC CC CC  IIIIIIIIIIIIIIII
  00416050: CC CC CC CC CC CC CC CC CC CC CC CC CC CC CC CC  IIIIIIIIIIIIIIII
  00416060: CC CC CC CC CC CC CC CC CC CC CC CC CC CC CC CC  IIIIIIIIIIIIIIII
  00416070: CC CC CC CC CC CC CC CC CC CC CC CC CC CC CC CC  IIIIIIIIIIIIIIII
  00416080: CC CC CC CC CC CC CC CC CC CC CC CC CC CC CC CC  IIIIIIIIIIIIIIII
  00416090: CC CC CC CC CC CC CC CC CC CC CC CC CC CC CC CC  IIIIIIIIIIIIIIII
  004160A0: CC CC CC CC CC CC CC CC CC CC CC CC CC CC CC CC  IIIIIIIIIIIIIIII
  004160B0: CC CC CC CC CC CC CC CC CC CC CC CC CC CC CC CC  IIIIIIIIIIIIIIII
  004160C0: CC CC CC CC CC CC CC CC CC CC CC CC CC CC CC CC  IIIIIIIIIIIIIIII
  004160D0: CC CC CC CC CC CC CC CC CC CC CC CC CC CC CC CC  IIIIIIIIIIIIIIII
  004160E0: CC CC CC CC CC CC CC CC CC CC CC CC CC CC CC CC  IIIIIIIIIIIIIIII
  004160F0: CC CC CC CC CC CC CC CC CC CC CC CC CC CC CC CC  IIIIIIIIIIIIIIII
  00416100: CC CC CC CC CC CC CC CC CC CC CC CC CC CC CC CC  IIIIIIIIIIIIIIII
  00416110: CC CC CC CC CC CC CC CC CC CC CC CC CC CC CC CC  IIIIIIIIIIIIIIII
  00416120: CC CC CC CC CC CC CC CC CC CC CC CC CC CC CC CC  IIIIIIIIIIIIIIII
  00416130: CC CC CC CC CC CC CC CC CC CC CC CC CC CC CC CC  IIIIIIIIIIIIIIII
  00416140: CC CC CC CC CC CC CC CC CC CC CC CC CC CC CC CC  IIIIIIIIIIIIIIII
  00416150: CC CC CC CC CC CC CC CC CC CC CC CC CC CC CC CC  IIIIIIIIIIIIIIII
  00416160: CC CC CC CC CC CC CC CC CC CC CC CC CC CC CC CC  IIIIIIIIIIIIIIII
  00416170: CC CC CC CC CC CC CC CC CC CC CC CC CC CC CC CC  IIIIIIIIIIIIIIII
  00416180: CC CC CC CC CC CC CC CC CC CC CC CC CC CC CC CC  IIIIIIIIIIIIIIII
  00416190: CC CC CC CC CC CC CC CC CC CC CC CC CC CC CC CC  IIIIIIIIIIIIIIII
  004161A0: CC CC CC CC CC CC CC CC CC CC CC CC CC CC CC CC  IIIIIIIIIIIIIIII
  004161B0: CC CC CC CC CC CC CC CC CC CC CC CC CC CC CC CC  IIIIIIIIIIIIIIII
  004161C0: CC CC CC CC CC CC CC CC CC CC CC CC CC CC CC CC  IIIIIIIIIIIIIIII
  004161D0: CC CC CC CC CC CC CC CC CC CC CC CC CC CC CC CC  IIIIIIIIIIIIIIII
  004161E0: CC CC CC CC CC CC CC CC CC CC CC CC CC CC CC CC  IIIIIIIIIIIIIIII
  004161F0: CC CC CC CC CC CC CC CC CC CC CC CC CC CC CC CC  IIIIIIIIIIIIIIII
  00416200: CC CC CC CC CC CC CC CC CC CC CC CC CC CC CC CC  IIIIIIIIIIIIIIII
  00416210: CC CC CC CC CC CC CC CC CC CC CC CC CC CC CC CC  IIIIIIIIIIIIIIII
  00416220: CC CC CC CC CC CC CC CC CC CC CC CC CC CC CC CC  IIIIIIIIIIIIIIII
  00416230: CC CC CC CC CC CC CC CC CC CC CC CC CC CC CC CC  IIIIIIIIIIIIIIII
  00416240: CC CC CC CC CC CC CC CC CC CC CC CC CC CC CC CC  IIIIIIIIIIIIIIII
  00416250: CC CC CC CC CC CC CC CC CC CC CC CC CC CC CC CC  IIIIIIIIIIIIIIII
  00416260: CC CC CC CC CC CC CC CC CC CC CC CC CC CC CC CC  IIIIIIIIIIIIIIII
  00416270: CC CC CC CC CC CC CC CC CC CC CC CC CC CC CC CC  IIIIIIIIIIIIIIII
  00416280: CC CC CC CC CC CC CC CC CC CC CC CC CC CC CC CC  IIIIIIIIIIIIIIII
  00416290: CC CC CC CC CC CC CC CC CC CC CC CC CC CC CC CC  IIIIIIIIIIIIIIII
  004162A0: CC CC CC CC CC CC CC CC CC CC CC CC CC CC CC CC  IIIIIIIIIIIIIIII
  004162B0: CC CC CC CC CC CC CC CC CC CC CC CC CC CC CC CC  IIIIIIIIIIIIIIII
  004162C0: CC CC CC CC CC CC CC CC CC CC CC CC CC CC CC CC  IIIIIIIIIIIIIIII
  004162D0: CC CC CC CC CC CC CC CC CC CC CC CC CC CC CC CC  IIIIIIIIIIIIIIII
  004162E0: CC CC CC CC CC CC CC CC CC CC CC CC CC CC CC CC  IIIIIIIIIIIIIIII
  004162F0: CC CC CC CC CC CC CC CC CC CC CC CC CC CC CC CC  IIIIIIIIIIIIIIII
  00416300: CC CC CC CC CC CC CC CC CC CC CC CC CC CC CC CC  IIIIIIIIIIIIIIII
  00416310: CC CC CC CC CC CC CC CC CC CC CC CC CC CC CC CC  IIIIIIIIIIIIIIII
  00416320: CC CC CC CC CC CC CC CC CC CC CC CC CC CC CC CC  IIIIIIIIIIIIIIII
  00416330: CC CC CC CC CC CC CC CC CC CC CC CC CC CC CC CC  IIIIIIIIIIIIIIII
  00416340: CC CC CC CC CC CC CC CC CC CC CC CC CC CC CC CC  IIIIIIIIIIIIIIII
  00416350: CC CC CC CC CC CC CC CC CC CC CC CC CC CC CC CC  IIIIIIIIIIIIIIII
  00416360: CC CC CC CC CC CC CC CC CC CC CC CC CC CC CC CC  IIIIIIIIIIIIIIII
  00416370: CC CC CC CC CC CC CC CC CC CC CC CC CC CC CC CC  IIIIIIIIIIIIIIII
  00416380: CC CC CC CC CC CC CC CC CC CC CC CC CC CC CC CC  IIIIIIIIIIIIIIII
  00416390: CC CC CC CC CC CC CC CC CC CC CC CC CC CC CC CC  IIIIIIIIIIIIIIII
  004163A0: CC CC CC CC CC CC CC CC CC CC CC CC CC CC CC CC  IIIIIIIIIIIIIIII
  004163B0: CC CC CC CC CC CC CC CC CC CC CC CC CC CC CC CC  IIIIIIIIIIIIIIII
  004163C0: CC CC CC CC CC CC CC CC CC CC CC CC CC CC CC CC  IIIIIIIIIIIIIIII
  004163D0: CC CC CC CC CC CC CC CC CC CC CC CC CC CC CC CC  IIIIIIIIIIIIIIII
  004163E0: CC CC CC CC CC CC CC CC CC CC CC CC CC CC CC CC  IIIIIIIIIIIIIIII
  004163F0: CC CC CC CC CC CC CC CC CC CC CC CC CC CC CC CC  IIIIIIIIIIIIIIII
  00416400: CC CC CC CC CC CC CC CC CC CC CC CC CC CC CC CC  IIIIIIIIIIIIIIII
  00416410: CC CC CC CC CC CC CC CC CC CC CC CC CC CC CC CC  IIIIIIIIIIIIIIII
  00416420: CC CC CC CC CC CC CC CC CC CC CC CC CC CC CC CC  IIIIIIIIIIIIIIII
  00416430: CC CC CC CC CC CC CC CC CC CC CC CC CC CC CC CC  IIIIIIIIIIIIIIII
  00416440: CC CC CC CC CC CC CC CC CC CC CC CC CC CC CC CC  IIIIIIIIIIIIIIII
  00416450: CC CC CC CC CC CC CC CC CC CC CC CC CC CC CC CC  IIIIIIIIIIIIIIII
  00416460: CC CC                                            II

RAW DATA #3
  00417000: 00 00 00 00 00 00 00 00 00 00 00 00 00 00 00 00  ................
  00417010: 00 00 00 00 00 00 00 00 00 00 00 00 00 00 00 00  ................
  00417020: 00 00 00 00 00 00 00 00 00 00 00 00 00 00 00 00  ................
  00417030: 00 00 00 00 00 00 00 00 00 00 00 00 00 00 00 00  ................
  00417040: 00 00 00 00 00 00 00 00 00 00 00 00 00 00 00 00  ................
  00417050: 00 00 00 00 00 00 00 00 00 00 00 00 00 00 00 00  ................
  00417060: 00 00 00 00 00 00 00 00 00 00 00 00 00 00 00 00  ................
  00417070: 00 00 00 00 00 00 00 00 00 00 00 00 00 00 00 00  ................
  00417080: 00 00 00 00 00 00 00 00 00 00 00 00 00 00 00 00  ................
  00417090: 00 00 00 00 00 00 00 00 00 00 00 00 00 00 00 00  ................
  004170A0: 00 00 00 00 00 00 00 00 00 00 00 00 00 00 00 00  ................
  004170B0: 00 00 00 00 00 00 00 00 00 00 00 00 00 00 00 00  ................
  004170C0: 00 00 00 00 00 00 00 00 00 00 00 00 00 00 00 00  ................
  004170D0: 00 00 00 00 00 00 00 00 00 00 00 00 00 00 00 00  ................
  004170E0: 00 00 00 00 00 00 00 00 00 00 00 00 00 00 00 00  ................
  004170F0: 00 00 00 00 00 00 00 00 00 00 00 00 00 00 00 00  ................
  00417100: 00 00 00 00 10 20 41 00 00 00 00 00 00 00 00 00  ..... A.........
  00417110: 00 00 00 00 00 00 00 00 00 00 00 00 00 00 00 00  ................
  00417120: 00 00 00 00 00 00 00 00 00 00 00 00 00 00 00 00  ................
  00417130: 00 00 00 00 00 00 00 00 00 00 00 00 00 00 00 00  ................
  00417140: 00 00 00 00 00 00 00 00 00 00 00 00 00 00 00 00  ................
  00417150: 00 00 00 00 00 00 00 00 00 00 00 00 00 00 00 00  ................
  00417160: 00 00 00 00 00 00 00 00 00 00 00 00 00 00 00 00  ................
  00417170: 00 00 00 00 00 00 00 00 00 00 00 00 00 00 00 00  ................
  00417180: 00 00 00 00 00 00 00 00 00 00 00 00 00 00 00 00  ................
  00417190: 00 00 00 00 00 00 00 00 00 00 00 00 00 00 00 00  ................
  004171A0: 00 00 00 00 00 00 00 00 00 00 00 00 00 00 00 00  ................
  004171B0: 00 00 00 00 00 00 00 00 00 00 00 00 00 00 00 00  ................
  004171C0: 00 00 00 00 00 00 00 00 00 00 00 00 00 00 00 00  ................
  004171D0: 00 00 00 00 00 00 00 00 00 00 00 00 00 00 00 00  ................
  004171E0: 00 00 00 00 00 00 00 00 00 00 00 00 00 00 00 00  ................
  004171F0: 00 00 00 00 00 00 00 00 00 00 00 00 00 00 00 00  ................
  00417200: 00 00 00 00 00 00 00 00 00 00 00 00 00 00 00 00  ................
  00417210: 00 00 00 00 00 00 00 00 00 00 00 00 00 00 00 00  ................
  00417220: 00 00 00 00 00 00 00 00 00 00 00 00 00 00 00 00  ................
  00417230: 00 00 00 00 00 00 00 00 00 00 00 00 00 00 00 00  ................
  00417240: 00 00 00 00 00 00 00 00 00 00 00 00 00 00 00 00  ................
  00417250: 00 00 00 00 00 00 00 00 00 00 00 00 00 00 00 00  ................
  00417260: 00 00 00 00 00 00 00 00 00 00 00 00 00 00 00 00  ................
  00417270: 00 00 00 00 00 00 00 00 00 00 00 00 00 00 00 00  ................
  00417280: 00 00 00 00 00 00 00 00 00 00 00 00 00 00 00 00  ................
  00417290: 00 00 00 00 00 00 00 00 00 00 00 00 00 00 00 00  ................
  004172A0: 00 00 00 00 00 00 00 00 00 00 00 00 00 00 00 00  ................
  004172B0: 00 00 00 00 00 00 00 00 00 00 00 00 00 00 00 00  ................
  004172C0: 00 00 00 00 00 00 00 00 00 00 00 00 00 00 00 00  ................
  004172D0: 00 00 00 00 00 00 00 00 00 00 00 00 00 00 00 00  ................
  004172E0: 00 00 00 00 00 00 00 00 00 00 00 00 00 00 00 00  ................
  004172F0: 00 00 00 00 00 00 00 00 00 00 00 00 00 00 00 00  ................
  00417300: 00 00 00 00 00 00 00 00 00 00 00 00 00 00 00 00  ................
  00417310: 00 00 00 00 00 00 00 00 00 00 00 00 00 00 00 00  ................
  00417320: 00 00 00 00 00 00 00 00 00 00 00 00 00 00 00 00  ................
  00417330: 00 00 00 00 00 00 00 00 00 00 00 00 00 00 00 00  ................
  00417340: 00 00 00 00 00 00 00 00 00 00 00 00 00 00 00 00  ................
  00417350: 00 00 00 00 00 00 00 00 00 00 00 00 00 00 00 00  ................
  00417360: 00 00 00 00 00 00 00 00 00 00 00 00 00 00 00 00  ................
  00417370: 00 00 00 00 00 00 00 00 00 00 00 00 00 00 00 00  ................
  00417380: 00 00 00 00 00 00 00 00 00 00 00 00 00 00 00 00  ................
  00417390: 00 00 00 00 00 00 00 00 00 00 00 00 00 00 00 00  ................
  004173A0: 00 00 00 00 00 00 00 00 00 00 00 00 00 00 00 00  ................
  004173B0: 00 00 00 00 00 00 00 00 00 00 00 00 00 00 00 00  ................
  004173C0: 00 00 00 00 00 00 00 00 00 00 00 00 00 00 00 00  ................
  004173D0: 00 00 00 00 00 00 00 00 00 00 00 00 00 00 00 00  ................
  004173E0: 00 00 00 00 00 00 00 00 00 00 00 00 00 00 00 00  ................
  004173F0: 00 00 00 00 00 00 00 00 00 00 00 00 00 00 00 00  ................
  00417400: 00 00 00 00 00 00 00 00 00 00 00 00 00 00 00 00  ................
  00417410: 30 1F 41 00 00 00 00 00 00 00 00 00 00 00 00 00  0.A.............
  00417420: 00 00 00 00 00 00 00 00 00 00 00 00 00 00 00 00  ................
  00417430: 00 00 00 00 00 00 00 00 00 00 00 00 00 00 00 00  ................
  00417440: 00 00 00 00 00 00 00 00 00 00 00 00 00 00 00 00  ................
  00417450: 00 00 00 00 00 00 00 00 00 00 00 00 00 00 00 00  ................
  00417460: 00 00 00 00 00 00 00 00 00 00 00 00 00 00 00 00  ................
  00417470: 00 00 00 00 00 00 00 00 00 00 00 00 00 00 00 00  ................
  00417480: 00 00 00 00 00 00 00 00 00 00 00 00 00 00 00 00  ................
  00417490: 00 00 00 00 00 00 00 00 00 00 00 00 00 00 00 00  ................
  004174A0: 00 00 00 00 00 00 00 00 00 00 00 00 00 00 00 00  ................
  004174B0: 00 00 00 00 00 00 00 00 00 00 00 00 00 00 00 00  ................
  004174C0: 00 00 00 00 00 00 00 00 00 00 00 00 00 00 00 00  ................
  004174D0: 00 00 00 00 00 00 00 00 00 00 00 00 00 00 00 00  ................
  004174E0: 00 00 00 00 00 00 00 00 00 00 00 00 00 00 00 00  ................
  004174F0: 00 00 00 00 00 00 00 00 00 00 00 00 00 00 00 00  ................
  00417500: 00 00 00 00 00 00 00 00 00 00 00 00 00 00 00 00  ................
  00417510: 00 00 00 00 00 20 41 00 00 00 00 00 00 00 00 00  ..... A.........
  00417520: 00 00 00 00 00 00 00 00 00 00 00 00 00 00 00 00  ................
  00417530: 00 00 00 00 00 00 00 00 00 00 00 00 00 00 00 00  ................
  00417540: 00 00 00 00 00 00 00 00 00 00 00 00 00 00 00 00  ................
  00417550: 00 00 00 00 00 00 00 00 00 00 00 00 00 00 00 00  ................
  00417560: 00 00 00 00 00 00 00 00 00 00 00 00 00 00 00 00  ................
  00417570: 00 00 00 00 00 00 00 00 00 00 00 00 00 00 00 00  ................
  00417580: 00 00 00 00 00 00 00 00 00 00 00 00 00 00 00 00  ................
  00417590: 00 00 00 00 00 00 00 00 00 00 00 00 00 00 00 00  ................
  004175A0: 00 00 00 00 00 00 00 00 00 00 00 00 00 00 00 00  ................
  004175B0: 00 00 00 00 00 00 00 00 00 00 00 00 00 00 00 00  ................
  004175C0: 00 00 00 00 00 00 00 00 00 00 00 00 00 00 00 00  ................
  004175D0: 00 00 00 00 00 00 00 00 00 00 00 00 00 00 00 00  ................
  004175E0: 00 00 00 00 00 00 00 00 00 00 00 00 00 00 00 00  ................
  004175F0: 00 00 00 00 00 00 00 00 00 00 00 00 00 00 00 00  ................
  00417600: 00 00 00 00 00 00 00 00 00 00 00 00 00 00 00 00  ................
  00417610: 00 00 00 00 00 00 00 00 00 00 00 00 00 00 00 00  ................
  00417620: 00 00 00 00 00 00 00 00 00 00 00 00 00 00 00 00  ................
  00417630: 00 00 00 00 00 00 00 00 00 00 00 00 00 00 00 00  ................
  00417640: 00 00 00 00 00 00 00 00 00 00 00 00 00 00 00 00  ................
  00417650: 00 00 00 00 00 00 00 00 00 00 00 00 00 00 00 00  ................
  00417660: 00 00 00 00 00 00 00 00 00 00 00 00 00 00 00 00  ................
  00417670: 00 00 00 00 00 00 00 00 00 00 00 00 00 00 00 00  ................
  00417680: 00 00 00 00 00 00 00 00 00 00 00 00 00 00 00 00  ................
  00417690: 00 00 00 00 00 00 00 00 00 00 00 00 00 00 00 00  ................
  004176A0: 00 00 00 00 00 00 00 00 00 00 00 00 00 00 00 00  ................
  004176B0: 00 00 00 00 00 00 00 00 00 00 00 00 00 00 00 00  ................
  004176C0: 00 00 00 00 00 00 00 00 00 00 00 00 00 00 00 00  ................
  004176D0: 00 00 00 00 00 00 00 00 00 00 00 00 00 00 00 00  ................
  004176E0: 00 00 00 00 00 00 00 00 00 00 00 00 00 00 00 00  ................
  004176F0: 00 00 00 00 00 00 00 00 00 00 00 00 00 00 00 00  ................
  00417700: 00 00 00 00 00 00 00 00 00 00 00 00 00 00 00 00  ................
  00417710: 00 00 00 00 00 00 00 00 00 00 00 00 00 00 00 00  ................
  00417720: 00 00 00 00 00 00 00 00 00 00 00 00 00 00 00 00  ................
  00417730: 00 00 00 00 00 00 00 00 00 00 00 00 00 00 00 00  ................
  00417740: 00 00 00 00 00 00 00 00 00 00 00 00 00 00 00 00  ................
  00417750: 00 00 00 00 00 00 00 00 00 00 00 00 00 00 00 00  ................
  00417760: 00 00 00 00 00 00 00 00 00 00 00 00 00 00 00 00  ................
  00417770: 00 00 00 00 00 00 00 00 00 00 00 00 00 00 00 00  ................
  00417780: 00 00 00 00 00 00 00 00 00 00 00 00 00 00 00 00  ................
  00417790: 00 00 00 00 00 00 00 00 00 00 00 00 00 00 00 00  ................
  004177A0: 00 00 00 00 00 00 00 00 00 00 00 00 00 00 00 00  ................
  004177B0: 00 00 00 00 00 00 00 00 00 00 00 00 00 00 00 00  ................
  004177C0: 00 00 00 00 00 00 00 00 00 00 00 00 00 00 00 00  ................
  004177D0: 00 00 00 00 00 00 00 00 00 00 00 00 00 00 00 00  ................
  004177E0: 00 00 00 00 00 00 00 00 00 00 00 00 00 00 00 00  ................
  004177F0: 00 00 00 00 00 00 00 00 00 00 00 00 00 00 00 00  ................
  00417800: 00 00 00 00 00 00 00 00 00 00 00 00 00 00 00 00  ................
  00417810: 00 00 00 00 00 00 00 00 00 00 00 00 00 00 00 00  ................
  00417820: 00 00 00 00 00 00 00 00 00 00 00 00 00 00 00 00  ................
  00417830: 00 00 00 00 00 00 00 00 00 00 00 00 00 00 00 00  ................
  00417840: 00 00 00 00 00 00 00 00 00 00 00 00 00 00 00 00  ................
  00417850: 00 00 00 00 00 00 00 00 00 00 00 00 00 00 00 00  ................
  00417860: 00 00 00 00 00 00 00 00 00 00 00 00 00 00 00 00  ................
  00417870: 00 00 00 00 00 00 00 00 00 00 00 00 00 00 00 00  ................
  00417880: 00 00 00 00 00 00 00 00 00 00 00 00 00 00 00 00  ................
  00417890: 00 00 00 00 00 00 00 00 00 00 00 00 00 00 00 00  ................
  004178A0: 00 00 00 00 00 00 00 00 00 00 00 00 00 00 00 00  ................
  004178B0: 00 00 00 00 00 00 00 00 00 00 00 00 00 00 00 00  ................
  004178C0: 00 00 00 00 00 00 00 00 00 00 00 00 00 00 00 00  ................
  004178D0: 00 00 00 00 00 00 00 00 00 00 00 00 00 00 00 00  ................
  004178E0: 00 00 00 00 00 00 00 00 00 00 00 00 00 00 00 00  ................
  004178F0: 00 00 00 00 00 00 00 00 00 00 00 00 00 00 00 00  ................
  00417900: 00 00 00 00 00 00 00 00 00 00 00 00 00 00 00 00  ................
  00417910: 00 00 00 00 00 00 00 00 00 00 00 00 00 00 00 00  ................
  00417920: 00 00 00 00 00 00 00 00 00 00 00 00 00 00 00 00  ................
  00417930: 00 00 00 00 00 00 00 00 00 00 00 00 00 00 00 00  ................
  00417940: 00 00 00 00 00 00 00 00 00 00 00 00 00 00 00 00  ................
  00417950: 00 00 00 00 00 00 00 00 00 00 00 00 00 00 00 00  ................
  00417960: 00 00 00 00 00 00 00 00 00 00 00 00 00 00 00 00  ................
  00417970: 00 00 00 00 00 00 00 00 00 00 00 00 00 00 00 00  ................
  00417980: 00 00 00 00 00 00 00 00 00 00 00 00 00 00 00 00  ................
  00417990: 00 00 00 00 00 00 00 00 00 00 00 00 00 00 00 00  ................
  004179A0: 00 00 00 00 00 00 00 00 00 00 00 00 00 00 00 00  ................
  004179B0: 00 00 00 00 00 00 00 00 00 00 00 00 00 00 00 00  ................
  004179C0: 00 00 00 00 00 00 00 00 00 00 00 00 00 00 00 00  ................
  004179D0: 00 00 00 00 00 00 00 00 00 00 00 00 00 00 00 00  ................
  004179E0: 00 00 00 00 00 00 00 00 00 00 00 00 00 00 00 00  ................
  004179F0: 00 00 00 00 00 00 00 00 00 00 00 00 00 00 00 00  ................
  00417A00: 00 00 00 00 00 00 00 00 00 00 00 00 00 00 00 00  ................
  00417A10: 00 00 00 00 00 00 00 00 00 00 00 00 00 00 00 00  ................
  00417A20: 00 00 00 00 00 00 00 00 00 00 00 00 00 00 00 00  ................
  00417A30: 00 00 00 00 00 00 00 00 00 00 00 00 00 00 00 00  ................
  00417A40: 00 00 00 00 00 00 00 00 00 00 00 00 00 00 00 00  ................
  00417A50: 00 00 00 00 00 00 00 00 00 00 00 00 00 00 00 00  ................
  00417A60: 00 00 00 00 00 00 00 00 00 00 00 00 00 00 00 00  ................
  00417A70: 00 00 00 00 00 00 00 00 00 00 00 00 00 00 00 00  ................
  00417A80: 00 00 00 00 00 00 00 00 00 00 00 00 00 00 00 00  ................
  00417A90: 00 00 00 00 00 00 00 00 00 00 00 00 00 00 00 00  ................
  00417AA0: 00 00 00 00 00 00 00 00 00 00 00 00 00 00 00 00  ................
  00417AB0: 00 00 00 00 00 00 00 00 00 00 00 00 00 00 00 00  ................
  00417AC0: 00 00 00 00 00 00 00 00 00 00 00 00 00 00 00 00  ................
  00417AD0: 00 00 00 00 00 00 00 00 00 00 00 00 00 00 00 00  ................
  00417AE0: 00 00 00 00 00 00 00 00 00 00 00 00 00 00 00 00  ................
  00417AF0: 00 00 00 00 00 00 00 00 00 00 00 00 00 00 00 00  ................
  00417B00: 00 00 00 00 00 00 00 00 00 00 00 00 00 00 00 00  ................
  00417B10: 00 00 00 00 00 00 00 00 00 00 00 00 00 00 00 00  ................
  00417B20: 00 00 00 00 00 00 00 00 00 00 00 00 00 00 00 00  ................
  00417B30: 6E 75 6D 62 65 72 3A 20 25 64 0A 00 00 00 00 00  number: %d......
  00417B40: 6E 61 6D 65 3A 20 25 73 0A 00 00 00 70 61 79 3A  name: %s....pay:
  00417B50: 20 25 64 0A 00 00 00 00 54 65 73 74 20 66 75 6E   %d.....Test fun
  00417B60: 63 74 69 6F 6E 0A 00 00 00 00 00 00 88 EA 83 6D  ction........e.m
  00417B70: 90 A3 20 89 D4 96 BC 00 00 00 00 00 95 53 92 6E  . .O.?......S.n
  00417B80: 20 82 BD 82 DC 82 C4 00 00 00 00 00 45 6D 70 6C   .?.U.A.....Empl
  00417B90: 6F 79 65 65 20 73 69 7A 65 3A 20 25 58 0A 00 00  oyee size: %X...
  00417BA0: 00 00 00 00 60 7C 41 00 70 7D 41 00 C8 7E 41 00  ....`|A.p}A.E~A.
  00417BB0: EC 7E 41 00 2C 7F 41 00 60 7F 41 00 01 00 00 00  i~A.,.A.`.A.....
  00417BC0: 00 00 00 00 01 00 00 00 01 00 00 00 01 00 00 00  ................
  00417BD0: 01 00 00 00 53 74 61 63 6B 20 61 72 6F 75 6E 64  ....Stack around
  00417BE0: 20 74 68 65 20 76 61 72 69 61 62 6C 65 20 27 00   the variable '.
  00417BF0: 27 20 77 61 73 20 63 6F 72 72 75 70 74 65 64 2E  ' was corrupted.
  00417C00: 00 00 00 00 54 68 65 20 76 61 72 69 61 62 6C 65  ....The variable
  00417C10: 20 27 00 00 27 20 69 73 20 62 65 69 6E 67 20 75   '..' is being u
  00417C20: 73 65 64 20 77 69 74 68 6F 75 74 20 62 65 69 6E  sed without bein
  00417C30: 67 20 69 6E 69 74 69 61 6C 69 7A 65 64 2E 00 00  g initialized...
  00417C40: 00 00 00 00 00 00 00 00 00 00 00 00 00 00 00 00  ................
  00417C50: 00 00 00 00 00 00 00 00 00 00 00 00 00 00 00 00  ................
  00417C60: 54 68 65 20 76 61 6C 75 65 20 6F 66 20 45 53 50  The value of ESP
  00417C70: 20 77 61 73 20 6E 6F 74 20 70 72 6F 70 65 72 6C   was not properl
  00417C80: 79 20 73 61 76 65 64 20 61 63 72 6F 73 73 20 61  y saved across a
  00417C90: 20 66 75 6E 63 74 69 6F 6E 20 63 61 6C 6C 2E 20   function call. 
  00417CA0: 20 54 68 69 73 20 69 73 20 75 73 75 61 6C 6C 79   This is usually
  00417CB0: 20 61 20 72 65 73 75 6C 74 20 6F 66 20 63 61 6C   a result of cal
  00417CC0: 6C 69 6E 67 20 61 20 66 75 6E 63 74 69 6F 6E 20  ling a function 
  00417CD0: 64 65 63 6C 61 72 65 64 20 77 69 74 68 20 6F 6E  declared with on
  00417CE0: 65 20 63 61 6C 6C 69 6E 67 20 63 6F 6E 76 65 6E  e calling conven
  00417CF0: 74 69 6F 6E 20 77 69 74 68 20 61 20 66 75 6E 63  tion with a func
  00417D00: 74 69 6F 6E 20 70 6F 69 6E 74 65 72 20 64 65 63  tion pointer dec
  00417D10: 6C 61 72 65 64 20 77 69 74 68 20 61 20 64 69 66  lared with a dif
  00417D20: 66 65 72 65 6E 74 20 63 61 6C 6C 69 6E 67 20 63  ferent calling c
  00417D30: 6F 6E 76 65 6E 74 69 6F 6E 2E 0A 0D 00 00 00 00  onvention.......
  00417D40: 00 00 00 00 00 00 00 00 00 00 00 00 00 00 00 00  ................
  00417D50: 00 00 00 00 00 00 00 00 00 00 00 00 00 00 00 00  ................
  00417D60: 00 00 00 00 00 00 00 00 00 00 00 00 00 00 00 00  ................
  00417D70: 41 20 63 61 73 74 20 74 6F 20 61 20 73 6D 61 6C  A cast to a smal
  00417D80: 6C 65 72 20 64 61 74 61 20 74 79 70 65 20 68 61  ler data type ha
  00417D90: 73 20 63 61 75 73 65 64 20 61 20 6C 6F 73 73 20  s caused a loss 
  00417DA0: 6F 66 20 64 61 74 61 2E 20 20 49 66 20 74 68 69  of data.  If thi
  00417DB0: 73 20 77 61 73 20 69 6E 74 65 6E 74 69 6F 6E 61  s was intentiona
  00417DC0: 6C 2C 20 79 6F 75 20 73 68 6F 75 6C 64 20 6D 61  l, you should ma
  00417DD0: 73 6B 20 74 68 65 20 73 6F 75 72 63 65 20 6F 66  sk the source of
  00417DE0: 20 74 68 65 20 63 61 73 74 20 77 69 74 68 20 74   the cast with t
  00417DF0: 68 65 20 61 70 70 72 6F 70 72 69 61 74 65 20 62  he appropriate b
  00417E00: 69 74 6D 61 73 6B 2E 20 20 46 6F 72 20 65 78 61  itmask.  For exa
  00417E10: 6D 70 6C 65 3A 20 20 0A 0D 09 63 68 61 72 20 63  mple:  ...char c
  00417E20: 20 3D 20 28 69 20 26 20 30 78 46 46 29 3B 0A 0D   = (i & 0xFF);..
  00417E30: 43 68 61 6E 67 69 6E 67 20 74 68 65 20 63 6F 64  Changing the cod
  00417E40: 65 20 69 6E 20 74 68 69 73 20 77 61 79 20 77 69  e in this way wi
  00417E50: 6C 6C 20 6E 6F 74 20 61 66 66 65 63 74 20 74 68  ll not affect th
  00417E60: 65 20 71 75 61 6C 69 74 79 20 6F 66 20 74 68 65  e quality of the
  00417E70: 20 72 65 73 75 6C 74 69 6E 67 20 6F 70 74 69 6D   resulting optim
  00417E80: 69 7A 65 64 20 63 6F 64 65 2E 0A 0D 00 00 00 00  ized code.......
  00417E90: 00 00 00 00 00 00 00 00 00 00 00 00 00 00 00 00  ................
  00417EA0: 00 00 00 00 00 00 00 00 00 00 00 00 00 00 00 00  ................
  00417EB0: 00 00 00 00 00 00 00 00 00 00 00 00 00 00 00 00  ................
  00417EC0: 00 00 00 00 00 00 00 00 53 74 61 63 6B 20 6D 65  ........Stack me
  00417ED0: 6D 6F 72 79 20 77 61 73 20 63 6F 72 72 75 70 74  mory was corrupt
  00417EE0: 65 64 0A 0D 00 00 00 00 00 00 00 00 41 20 6C 6F  ed..........A lo
  00417EF0: 63 61 6C 20 76 61 72 69 61 62 6C 65 20 77 61 73  cal variable was
  00417F00: 20 75 73 65 64 20 62 65 66 6F 72 65 20 69 74 20   used before it 
  00417F10: 77 61 73 20 69 6E 69 74 69 61 6C 69 7A 65 64 0A  was initialized.
  00417F20: 0D 00 00 00 00 00 00 00 00 00 00 00 53 74 61 63  ............Stac
  00417F30: 6B 20 6D 65 6D 6F 72 79 20 61 72 6F 75 6E 64 20  k memory around 
  00417F40: 5F 61 6C 6C 6F 63 61 20 77 61 73 20 63 6F 72 72  _alloca was corr
  00417F50: 75 70 74 65 64 0A 0D 00 00 00 00 00 00 00 00 00  upted...........
  00417F60: 55 6E 6B 6E 6F 77 6E 20 52 75 6E 74 69 6D 65 20  Unknown Runtime 
  00417F70: 43 68 65 63 6B 20 45 72 72 6F 72 0A 0D 00 00 00  Check Error.....
  00417F80: 00 00 00 00 00 00 00 00 52 00 75 00 6E 00 74 00  ........R.u.n.t.
  00417F90: 69 00 6D 00 65 00 20 00 43 00 68 00 65 00 63 00  i.m.e. .C.h.e.c.
  00417FA0: 6B 00 20 00 45 00 72 00 72 00 6F 00 72 00 2E 00  k. .E.r.r.o.r...
  00417FB0: 0A 00 0D 00 20 00 55 00 6E 00 61 00 62 00 6C 00  .... .U.n.a.b.l.
  00417FC0: 65 00 20 00 74 00 6F 00 20 00 64 00 69 00 73 00  e. .t.o. .d.i.s.
  00417FD0: 70 00 6C 00 61 00 79 00 20 00 52 00 54 00 43 00  p.l.a.y. .R.T.C.
  00417FE0: 20 00 4D 00 65 00 73 00 73 00 61 00 67 00 65 00   .M.e.s.s.a.g.e.
  00417FF0: 2E 00 00 00 00 00 00 00 00 00 00 00 00 00 00 00  ................
  00418000: 00 00 00 00 00 00 00 00 00 00 00 00 00 00 00 00  ................
  00418010: 52 00 75 00 6E 00 2D 00 54 00 69 00 6D 00 65 00  R.u.n.-.T.i.m.e.
  00418020: 20 00 43 00 68 00 65 00 63 00 6B 00 20 00 46 00   .C.h.e.c.k. .F.
  00418030: 61 00 69 00 6C 00 75 00 72 00 65 00 20 00 23 00  a.i.l.u.r.e. .#.
  00418040: 25 00 64 00 20 00 2D 00 20 00 25 00 73 00 00 00  %.d. .-. .%.s...
  00418050: 00 00 00 00 00 00 00 00 00 00 00 00 55 6E 6B 6E  ............Unkn
  00418060: 6F 77 6E 20 46 69 6C 65 6E 61 6D 65 00 00 00 00  own Filename....
  00418070: 55 6E 6B 6E 6F 77 6E 20 4D 6F 64 75 6C 65 20 4E  Unknown Module N
  00418080: 61 6D 65 00 00 00 00 00 52 75 6E 2D 54 69 6D 65  ame.....Run-Time
  00418090: 20 43 68 65 63 6B 20 46 61 69 6C 75 72 65 20 23   Check Failure #
  004180A0: 25 64 20 2D 20 25 73 00 00 00 00 00 00 00 00 00  %d - %s.........
  004180B0: 53 74 61 63 6B 20 63 6F 72 72 75 70 74 65 64 20  Stack corrupted 
  004180C0: 6E 65 61 72 20 75 6E 6B 6E 6F 77 6E 20 76 61 72  near unknown var
  004180D0: 69 61 62 6C 65 00 00 00 00 00 00 00 00 00 00 00  iable...........
  004180E0: 25 2E 32 58 20 00 00 00 53 74 61 63 6B 20 61 72  %.2X ...Stack ar
  004180F0: 65 61 20 61 72 6F 75 6E 64 20 5F 61 6C 6C 6F 63  ea around _alloc
  00418100: 61 20 6D 65 6D 6F 72 79 20 72 65 73 65 72 76 65  a memory reserve
  00418110: 64 20 62 79 20 74 68 69 73 20 66 75 6E 63 74 69  d by this functi
  00418120: 6F 6E 20 69 73 20 63 6F 72 72 75 70 74 65 64 0A  on is corrupted.
  00418130: 00 00 00 00 00 00 00 00 00 00 00 00 00 00 00 00  ................
  00418140: 0A 00 00 00 3E 20 00 00 0A 44 61 74 61 3A 20 3C  ....> ...Data: <
  00418150: 00 00 00 00 0A 41 6C 6C 6F 63 61 74 69 6F 6E 20  .....Allocation 
  00418160: 6E 75 6D 62 65 72 20 77 69 74 68 69 6E 20 74 68  number within th
  00418170: 69 73 20 66 75 6E 63 74 69 6F 6E 3A 20 00 00 00  is function: ...
  00418180: 00 00 00 00 00 00 00 00 0A 53 69 7A 65 3A 20 00  .........Size: .
  00418190: 00 00 00 00 0A 41 64 64 72 65 73 73 3A 20 30 78  .....Address: 0x
  004181A0: 00 00 00 00 00 00 00 00 53 74 61 63 6B 20 61 72  ........Stack ar
  004181B0: 65 61 20 61 72 6F 75 6E 64 20 5F 61 6C 6C 6F 63  ea around _alloc
  004181C0: 61 20 6D 65 6D 6F 72 79 20 72 65 73 65 72 76 65  a memory reserve
  004181D0: 64 20 62 79 20 74 68 69 73 20 66 75 6E 63 74 69  d by this functi
  004181E0: 6F 6E 20 69 73 20 63 6F 72 72 75 70 74 65 64 00  on is corrupted.
  004181F0: 00 00 00 00 00 00 00 00 00 00 00 00 00 00 00 00  ................
  00418200: 25 73 25 73 25 70 25 73 25 7A 64 25 73 25 64 25  %s%s%p%s%zd%s%d%
  00418210: 73 25 73 25 73 25 73 25 73 00 00 00 00 00 00 00  s%s%s%s%s.......
  00418220: 41 20 76 61 72 69 61 62 6C 65 20 69 73 20 62 65  A variable is be
  00418230: 69 6E 67 20 75 73 65 64 20 77 69 74 68 6F 75 74  ing used without
  00418240: 20 62 65 69 6E 67 20 69 6E 69 74 69 61 6C 69 7A   being initializ
  00418250: 65 64 2E 00 00 00 00 00 00 00 00 00 00 00 00 00  ed..............
  00418260: 50 A1 41 00 A0 A1 41 00 00 00 00 00 84 82 41 00  P!A..!A.......A.
  00418270: A4 82 41 00 D8 82 41 00 F4 82 41 00 28 83 41 00  ?.A.O.A.o.A.(.A.
  00418280: 00 00 00 00 53 74 61 63 6B 20 70 6F 69 6E 74 65  ....Stack pointe
  00418290: 72 20 63 6F 72 72 75 70 74 69 6F 6E 00 00 00 00  r corruption....
  004182A0: 00 00 00 00 43 61 73 74 20 74 6F 20 73 6D 61 6C  ....Cast to smal
  004182B0: 6C 65 72 20 74 79 70 65 20 63 61 75 73 69 6E 67  ler type causing
  004182C0: 20 6C 6F 73 73 20 6F 66 20 64 61 74 61 00 00 00   loss of data...
  004182D0: 00 00 00 00 00 00 00 00 53 74 61 63 6B 20 6D 65  ........Stack me
  004182E0: 6D 6F 72 79 20 63 6F 72 72 75 70 74 69 6F 6E 00  mory corruption.
  004182F0: 00 00 00 00 4C 6F 63 61 6C 20 76 61 72 69 61 62  ....Local variab
  00418300: 6C 65 20 75 73 65 64 20 62 65 66 6F 72 65 20 69  le used before i
  00418310: 6E 69 74 69 61 6C 69 7A 61 74 69 6F 6E 00 00 00  nitialization...
  00418320: 00 00 00 00 00 00 00 00 53 74 61 63 6B 20 61 72  ........Stack ar
  00418330: 6F 75 6E 64 20 5F 61 6C 6C 6F 63 61 20 63 6F 72  ound _alloca cor
  00418340: 72 75 70 74 65 64 00 00 00 00 00 00 00 00 00 00  rupted..........
  00418350: 62 00 69 00 6E 00 5C 00 4D 00 53 00 50 00 44 00  b.i.n.\.M.S.P.D.
  00418360: 42 00 31 00 34 00 30 00 2E 00 44 00 4C 00 4C 00  B.1.4.0...D.L.L.
  00418370: 00 00 00 00 56 00 43 00 52 00 55 00 4E 00 54 00  ....V.C.R.U.N.T.
  00418380: 49 00 4D 00 45 00 31 00 34 00 30 00 44 00 2E 00  I.M.E.1.4.0.D...
  00418390: 64 00 6C 00 6C 00 00 00 00 00 00 00 00 00 00 00  d.l.l...........
  004183A0: 00 00 00 00 00 00 00 00 61 00 70 00 69 00 2D 00  ........a.p.i.-.
  004183B0: 6D 00 73 00 2D 00 77 00 69 00 6E 00 2D 00 63 00  m.s.-.w.i.n.-.c.
  004183C0: 6F 00 72 00 65 00 2D 00 72 00 65 00 67 00 69 00  o.r.e.-.r.e.g.i.
  004183D0: 73 00 74 00 72 00 79 00 2D 00 6C 00 31 00 2D 00  s.t.r.y.-.l.1.-.
  004183E0: 31 00 2D 00 30 00 2E 00 64 00 6C 00 6C 00 00 00  1.-.0...d.l.l...
  004183F0: 00 00 00 00 00 00 00 00 00 00 00 00 00 00 00 00  ................
  00418400: 61 00 64 00 76 00 61 00 70 00 69 00 33 00 32 00  a.d.v.a.p.i.3.2.
  00418410: 2E 00 64 00 6C 00 6C 00 00 00 00 00 00 00 00 00  ..d.l.l.........
  00418420: 52 65 67 4F 70 65 6E 4B 65 79 45 78 57 00 00 00  RegOpenKeyExW...
  00418430: 52 65 67 51 75 65 72 79 56 61 6C 75 65 45 78 57  RegQueryValueExW
  00418440: 00 00 00 00 52 65 67 43 6C 6F 73 65 4B 65 79 00  ....RegCloseKey.
  00418450: 00 00 00 00 00 00 00 00 53 00 4F 00 46 00 54 00  ........S.O.F.T.
  00418460: 57 00 41 00 52 00 45 00 5C 00 57 00 6F 00 77 00  W.A.R.E.\.W.o.w.
  00418470: 36 00 34 00 33 00 32 00 4E 00 6F 00 64 00 65 00  6.4.3.2.N.o.d.e.
  00418480: 5C 00 4D 00 69 00 63 00 72 00 6F 00 73 00 6F 00  \.M.i.c.r.o.s.o.
  00418490: 66 00 74 00 5C 00 56 00 69 00 73 00 75 00 61 00  f.t.\.V.i.s.u.a.
  004184A0: 6C 00 53 00 74 00 75 00 64 00 69 00 6F 00 5C 00  l.S.t.u.d.i.o.\.
  004184B0: 31 00 34 00 2E 00 30 00 5C 00 53 00 65 00 74 00  1.4...0.\.S.e.t.
  004184C0: 75 00 70 00 5C 00 56 00 43 00 00 00 00 00 00 00  u.p.\.V.C.......
  004184D0: 00 00 00 00 00 00 00 00 00 00 00 00 00 00 00 00  ................
  004184E0: 00 00 00 00 50 00 72 00 6F 00 64 00 75 00 63 00  ....P.r.o.d.u.c.
  004184F0: 74 00 44 00 69 00 72 00 00 00 00 00 00 00 00 00  t.D.i.r.........
  00418500: 44 00 4C 00 4C 00 00 00 00 00 00 00 4D 00 53 00  D.L.L.......M.S.
  00418510: 50 00 44 00 42 00 31 00 34 00 30 00 00 00 00 00  P.D.B.1.4.0.....
  00418520: 00 00 00 00 4D 00 53 00 50 00 44 00 42 00 31 00  ....M.S.P.D.B.1.
  00418530: 34 00 30 00 00 00 00 00 00 00 00 00 50 44 42 4F  4.0.........PDBO
  00418540: 70 65 6E 56 61 6C 69 64 61 74 65 35 00 00 00 00  penValidate5....
  00418550: 72 00 00 00 00 00 00 00 00 00 00 00 00 00 00 00  r...............
  00418560: 00 00 00 00 F7 57 7A 5B 00 00 00 00 02 00 00 00  ....Wz[........
  00418570: 82 00 00 00 90 87 01 00 90 71 00 00 00 00 00 00  .........q......
  00418580: F7 57 7A 5B 00 00 00 00 0C 00 00 00 14 00 00 00  Wz[............
  00418590: 14 88 01 00 14 72 00 00 A0 00 00 00 00 00 00 00  .....r..........
  004185A0: 00 00 00 00 00 00 00 00 00 00 00 00 00 00 00 00  ................
  004185B0: 00 00 00 00 00 00 00 00 00 00 00 00 00 00 00 00  ................
  004185C0: 00 00 00 00 00 00 00 00 00 00 00 00 00 00 00 00  ................
  004185D0: 00 00 00 00 00 A0 41 00 00 00 00 00 00 00 00 00  ......A.........
  004185E0: 00 C0 41 00 00 00 00 00 00 00 00 00 00 00 00 00  .AA.............
  004185F0: 00 01 00 00 00 00 00 00 00 00 00 00 00 00 00 00  ................
  00418600: 00 00 00 00 00 00 00 00 00 00 00 00 00 00 00 00  ................
  00418610: 00 00 00 00 00 00 00 00 00 00 00 00 00 00 00 00  ................
  00418620: 00 00 00 00 00 00 00 00 00 00 00 00 00 00 00 00  ................
  00418630: 00 00 00 00 00 00 00 00 00 00 00 00 00 00 00 00  ................
  00418640: 00 00 00 00 00 00 00 00 00 00 00 00 00 00 00 00  ................
  00418650: 00 00 00 00 00 00 00 00 00 00 00 00 00 00 00 00  ................
  00418660: 00 00 00 00 00 00 00 00 00 00 00 00 00 00 00 00  ................
  00418670: 00 00 00 00 00 00 00 00 00 00 00 00 00 00 00 00  ................
  00418680: 00 00 00 00 00 00 00 00 00 00 00 00 00 00 00 00  ................
  00418690: 00 00 00 00 00 00 00 00 00 00 00 00 00 00 00 00  ................
  004186A0: 00 00 00 00 00 00 00 00 00 00 00 00 00 00 00 00  ................
  004186B0: 00 00 00 00 00 00 00 00 00 00 00 00 00 00 00 00  ................
  004186C0: 00 00 00 00 00 00 00 00 00 00 00 00 00 00 00 00  ................
  004186D0: 00 00 00 00 00 00 00 00 00 00 00 00 00 00 00 00  ................
  004186E0: 00 00 00 00 00 00 00 00 00 00 00 00 00 00 00 00  ................
  004186F0: 00 00 00 00 00 00 00 00 00 00 00 00 00 00 00 00  ................
  00418700: 00 00 00 00 00 00 00 00 00 00 00 00 00 00 00 00  ................
  00418710: 00 00 00 00 00 00 00 00 00 00 00 00 00 00 00 00  ................
  00418720: 00 00 00 00 00 00 00 00 00 00 00 00 00 00 00 00  ................
  00418730: 00 00 00 00 00 00 00 00 00 00 00 00 00 00 00 00  ................
  00418740: 00 00 00 00 00 00 00 00 00 00 00 00 00 00 00 00  ................
  00418750: 00 00 00 00 00 00 00 00 00 00 00 00 00 00 00 00  ................
  00418760: 00 00 00 00 00 00 00 00 00 00 00 00 00 00 00 00  ................
  00418770: 00 00 00 00 00 00 00 00 00 00 00 00 00 00 00 00  ................
  00418780: 00 00 00 00 00 00 00 00 00 00 00 00 00 00 00 00  ................
  00418790: 52 53 44 53 EF 77 3D F4 3E C5 F3 44 B1 7A 43 3D  RSDSiw=o>AoD}zC=
  004187A0: 02 6F B7 CD 03 00 00 00 43 3A 5C 64 65 76 65 6C  .oEI....C:\devel
  004187B0: 6F 70 5C 56 69 73 75 61 6C 53 74 75 64 69 6F 5F  op\VisualStudio_
  004187C0: 77 6F 72 6B 64 70 61 63 65 5C 4D 65 6D 6F 72 79  workdpace\Memory
  004187D0: 53 65 67 6D 65 6E 74 5C 43 70 70 52 65 76 65 72  Segment\CppRever
  004187E0: 63 65 45 6E 67 5C 43 70 70 52 65 76 65 72 73 65  ceEng\CppReverse
  004187F0: 45 6E 67 41 70 70 5C 44 65 62 75 67 5C 43 70 70  EngApp\Debug\Cpp
  00418800: 52 65 76 65 72 73 65 45 6E 67 41 70 70 2E 70 64  ReverseEngApp.pd
  00418810: 62 00 00 00 00 00 00 00 26 00 00 00 26 00 00 00  b.......&...&...
  00418820: 02 00 00 00 24 00 00 00 00 00 00 00 00 00 00 00  ....$...........
  00418830: 00 00 00 00 00 00 00 00 00 00 00 00 00 00 00 00  ................
  00418840: 00 00 00 00 00 00 00 00 00 00 00 00 00 00 00 00  ................
  00418850: 00 00 00 00 00 00 00 00 00 00 00 00 00 00 00 00  ................
  00418860: 00 00 00 00 00 00 00 00 00 00 00 00 00 00 00 00  ................
  00418870: 00 00 00 00 00 00 00 00 00 00 00 00 00 00 00 00  ................
  00418880: 00 00 00 00 00 00 00 00 00 00 00 00 00 00 00 00  ................
  00418890: 00 00 00 00 00 00 00 00 00 00 00 00 00 00 00 00  ................
  004188A0: 00 00 00 00 00 00 00 00 00 00 00 00 00 00 00 00  ................
  004188B0: 00 00 00 00 00 00 00 00 00 00 00 00 00 00 00 00  ................
  004188C0: 00 00 00 00 00 00 00 00 00 00 00 00 00 00 00 00  ................
  004188D0: 00 00 00 00 00 00 00 00 00 00 00 00 00 00 00 00  ................
  004188E0: 00 00 00 00 00 00 00 00 00 00 00 00 00 00 00 00  ................
  004188F0: 00 00 00 00 00 00 00 00 00 00 00 00 00 00 00 00  ................
  00418900: 00 00 00 00 00 00 00 00 00 00 00 00 00 00 00 00  ................
  00418910: 00 00 00 00 00 00 00 00 00 00 00 00 00 00 00 00  ................
  00418920: 00 00 00 00 00 00 00 00 00 00 00 00 00 00 00 00  ................
  00418930: 00 00 00 00 00 00 00 00 00 00 00 00 00 00 00 00  ................
  00418940: 00 00 00 00 00 00 00 00 00 00 00 00 00 00 00 00  ................
  00418950: 00 00 00 00 00 00 00 00 00 00 00 00 00 00 00 00  ................
  00418960: 00 00 00 00 00 00 00 00 00 00 00 00 00 00 00 00  ................
  00418970: 00 00 00 00 00 00 00 00 00 00 00 00 00 00 00 00  ................
  00418980: 00 00 00 00 00 00 00 00 00 00 00 00 00 00 00 00  ................
  00418990: 00 00 00 00 00 00 00 00 00 00 00 00 00 00 00 00  ................
  004189A0: 00 00 00 00 00 00 00 00 00 00 00 00 00 00 00 00  ................
  004189B0: 00 00 00 00 00 00 00 00 00 00 00 00 00 00 00 00  ................
  004189C0: 00 00 00 00 00 00 00 00 00 00 00 00 00 00 00 00  ................
  004189D0: 00 00 00 00 00 00 00 00 00 00 00 00 00 00 00 00  ................
  004189E0: 00 00 00 00 00 00 00 00 00 00 00 00 00 00 00 00  ................
  004189F0: 00 00 00 00 00 00 00 00 00 00 00 00 00 00 00 00  ................
  00418A00: 00 00 00 00 00 00 00 00 00 00 00 00 00 00 00 00  ................
  00418A10: 00 00 00 00 00 00 00 00 00 00 00 00 00 00 00 00  ................
  00418A20: 00 00 00 00 00 00 00 00 00 00 00 00 00 00 00 00  ................
  00418A30: 00 00 00 00 00 00 00 00 00 00 00 00 00 00 00 00  ................
  00418A40: 00 00 00 00 00 00 00 00 00 00 00 00 40 11 41 00  ............@.A.
  00418A50: 00 00 00 00 00 00 00 00 00 00 00 00 00 00 00 00  ................
  00418A60: 00 00 00 00 00 00 00 00 00 00 00 00 00 00 00 00  ................
  00418A70: 00 00 00 00 00 00 00 00 00 00 00 00 00 00 00 00  ................
  00418A80: 00 00 00 00 00 00 00 00 00 00 00 00 00 00 00 00  ................
  00418A90: 00 00 00 00 00 00 00 00 00 00 00 00 00 00 00 00  ................
  00418AA0: 00 00 00 00 00 00 00 00 00 00 00 00 00 00 00 00  ................
  00418AB0: 00 00 00 00 00 00 00 00 00 00 00 00 00 00 00 00  ................
  00418AC0: 00 00 00 00 00 00 00 00 00 00 00 00 00 00 00 00  ................
  00418AD0: 00 00 00 00 00 00 00 00 00 00 00 00 00 00 00 00  ................
  00418AE0: 00 00 00 00 00 00 00 00 00 00 00 00 00 00 00 00  ................
  00418AF0: 00 00 00 00 00 00 00 00 00 00 00 00 00 00 00 00  ................
  00418B00: 00 00 00 00 00 00 00 00 00 00 00 00 00 00 00 00  ................
  00418B10: 00 00 00 00 00 00 00 00 00 00 00 00 00 00 00 00  ................
  00418B20: 00 00 00 00 00 00 00 00 00 00 00 00 00 00 00 00  ................
  00418B30: 00 00 00 00 00 00 00 00 00 00 00 00 00 00 00 00  ................
  00418B40: 00 00 00 00 00 00 00 00 00 00 00 00 00 00 00 00  ................
  00418B50: 00 00 00 00 00 00 00 00 00 00 00 00 00 00 00 00  ................
  00418B60: 00 00 00 00 00 00 00 00 00 00 00 00 00 00 00 00  ................
  00418B70: 00 00 00 00 00 00 00 00 00 00 00 00 00 00 00 00  ................
  00418B80: 00 00 00 00 00 00 00 00 00 00 00 00 00 00 00 00  ................
  00418B90: 00 00 00 00 00 00 00 00 00 00 00 00 00 00 00 00  ................
  00418BA0: 00 00 00 00 00 00 00 00 00 00 00 00 00 00 00 00  ................
  00418BB0: 00 00 00 00 00 00 00 00 00 00 00 00 00 00 00 00  ................
  00418BC0: 00 00 00 00 00 00 00 00 00 00 00 00 00 00 00 00  ................
  00418BD0: 00 00 00 00 00 00 00 00 00 00 00 00 00 00 00 00  ................
  00418BE0: 00 00 00 00 00 00 00 00 00 00 00 00 00 00 00 00  ................
  00418BF0: 00 00 00 00 00 00 00 00 00 00 00 00 00 00 00 00  ................
  00418C00: 00 00 00 00 00 00 00 00 00 00 00 00 00 00 00 00  ................
  00418C10: 00 00 00 00 00 00 00 00 00 00 00 00 00 00 00 00  ................
  00418C20: 00 00 00 00 00 00 00 00 00 00 00 00 00 00 00 00  ................
  00418C30: 00 00 00 00 00 00 00 00 00 00 00 00 00 00 00 00  ................
  00418C40: 00 00 00 00 00 00 00 00 00 00 00 00 00 00 00 00  ................
  00418C50: 00 00 00 00 00 00 00 00 00 00 00 00 00 00 00 00  ................
  00418C60: 00 00 00 00 00 00 00 00 00 00 00 00 00 00 00 00  ................
  00418C70: 00 00 00 00 00 00 00 00 00 00 00 00 00 00 00 00  ................
  00418C80: 00 00 00 00 00 00 00 00 00 00 00 00 00 00 00 00  ................
  00418C90: 00 00 00 00 00 00 00 00 00 00 00 00 00 00 00 00  ................
  00418CA0: 00 00 00 00 00 00 00 00 00 00 00 00 00 00 00 00  ................
  00418CB0: 00 00 00 00 00 00 00 00 00 00 00 00 00 00 00 00  ................
  00418CC0: 00 00 00 00 00 00 00 00 00 00 00 00 00 00 00 00  ................
  00418CD0: 00 00 00 00 00 00 00 00 00 00 00 00 00 00 00 00  ................
  00418CE0: 00 00 00 00 00 00 00 00 00 00 00 00 00 00 00 00  ................
  00418CF0: 00 00 00 00 00 00 00 00 00 00 00 00 00 00 00 00  ................
  00418D00: 00 00 00 00 00 00 00 00 00 00 00 00 00 00 00 00  ................
  00418D10: 00 00 00 00 00 00 00 00 00 00 00 00 00 00 00 00  ................
  00418D20: 00 00 00 00 00 00 00 00 00 00 00 00 00 00 00 00  ................
  00418D30: 00 00 00 00 00 00 00 00 00 00 00 00 00 00 00 00  ................
  00418D40: 00 00 00 00 00 00 00 00 00 00 00 00 00 00 00 00  ................
  00418D50: 00 00 00 00 00 00 00 00 36 11 41 00 00 00 00 00  ........6.A.....
  00418D60: 00 00 00 00 00 00 00 00 00 00 00 00 00 00 00 00  ................
  00418D70: 00 00 00 00 00 00 00 00 00 00 00 00 00 00 00 00  ................
  00418D80: 00 00 00 00 00 00 00 00 00 00 00 00 00 00 00 00  ................
  00418D90: 00 00 00 00 00 00 00 00 00 00 00 00 00 00 00 00  ................
  00418DA0: 00 00 00 00 00 00 00 00 00 00 00 00 00 00 00 00  ................
  00418DB0: 00 00 00 00 00 00 00 00 00 00 00 00 00 00 00 00  ................
  00418DC0: 00 00 00 00 00 00 00 00 00 00 00 00 00 00 00 00  ................
  00418DD0: 00 00 00 00 00 00 00 00 00 00 00 00 00 00 00 00  ................
  00418DE0: 00 00 00 00 00 00 00 00 00 00 00 00 00 00 00 00  ................
  00418DF0: 00 00 00 00 00 00 00 00 00 00 00 00 00 00 00 00  ................
  00418E00: 00 00 00 00 00 00 00 00 00 00 00 00 00 00 00 00  ................
  00418E10: 00 00 00 00 00 00 00 00 00 00 00 00 00 00 00 00  ................
  00418E20: 00 00 00 00 00 00 00 00 00 00 00 00 00 00 00 00  ................
  00418E30: 00 00 00 00 00 00 00 00 00 00 00 00 00 00 00 00  ................
  00418E40: 00 00 00 00 00 00 00 00 00 00 00 00 00 00 00 00  ................
  00418E50: 00 00 00 00 00 00 00 00 00 00 00 00 00 00 00 00  ................
  00418E60: 00 00 00 00 00 00 00 00 00 00 00 00 00 00 00 00  ................
  00418E70: 00 00 00 00 00 00 00 00 00 00 00 00 00 00 00 00  ................
  00418E80: 00 00 00 00 00 00 00 00 00 00 00 00 00 00 00 00  ................
  00418E90: 00 00 00 00 00 00 00 00 00 00 00 00 00 00 00 00  ................
  00418EA0: 00 00 00 00 00 00 00 00 00 00 00 00 00 00 00 00  ................
  00418EB0: 00 00 00 00 00 00 00 00 00 00 00 00 00 00 00 00  ................
  00418EC0: 00 00 00 00 00 00 00 00 00 00 00 00 00 00 00 00  ................
  00418ED0: 00 00 00 00 00 00 00 00 00 00 00 00 00 00 00 00  ................
  00418EE0: 00 00 00 00 00 00 00 00 00 00 00 00 00 00 00 00  ................
  00418EF0: 00 00 00 00 00 00 00 00 00 00 00 00 00 00 00 00  ................
  00418F00: 00 00 00 00 00 00 00 00 00 00 00 00 00 00 00 00  ................
  00418F10: 00 00 00 00 00 00 00 00 00 00 00 00 00 00 00 00  ................
  00418F20: 00 00 00 00 00 00 00 00 00 00 00 00 00 00 00 00  ................
  00418F30: 00 00 00 00 00 00 00 00 00 00 00 00 00 00 00 00  ................
  00418F40: 00 00 00 00 00 00 00 00 00 00 00 00 00 00 00 00  ................
  00418F50: 00 00 00 00 00 00 00 00 00 00 00 00 00 00 00 00  ................
  00418F60: FE FF FF FF 00 00 00 00 B0 FF FF FF 00 00 00 00  tyyy....yyy....
  00418F70: FE FF FF FF ED 21 41 00 08 22 41 00 00 00 00 00  tyyyi!A.."A.....
  00418F80: FE FF FF FF 00 00 00 00 D8 FF FF FF 00 00 00 00  tyyy....Oyyy....
  00418F90: FE FF FF FF 5E 2A 41 00 71 2A 41 00 00 00 00 00  tyyy^*A.q*A.....
  00418FA0: FE FF FF FF 00 00 00 00 B8 FF FF FF 00 00 00 00  tyyy....Cyyy....
  00418FB0: FE FF FF FF 16 37 41 00 3D 37 41 00 00 00 00 00  tyyy.7A.=7A.....
  00418FC0: 00 00 00 00 00 00 00 00 00 00 00 00 00 00 00 00  ................
  00418FD0: 00 00 00 00 00 00 00 00 00 00 00 00 00 00 00 00  ................
  00418FE0: 00 00 00 00 00 00 00 00 00 00 00 00 00 00 00 00  ................
  00418FF0: 00 00 00 00 00 00 00 00 00 00 00 00 00 00 00 00  ................
  00419000: 00 00 00 00 00 00 00 00 00 00 00 00 00 00 00 00  ................
  00419010: 00 00 00 00 00 00 00 00 00 00 00 00 00 00 00 00  ................
  00419020: 00 00 00 00 00 00 00 00 00 00 00 00 00 00 00 00  ................
  00419030: 00 00 00 00 00 00 00 00 00 00 00 00 00 00 00 00  ................
  00419040: 00 00 00 00 00 00 00 00 00 00 00 00 00 00 00 00  ................
  00419050: 00 00 00 00 00 00 00 00 00 00 00 00 00 00 00 00  ................
  00419060: 00 00 00 00 00 00 00 00 00 00 00 00 00 00 00 00  ................
  00419070: 00 00 00 00 00 00 00 00 00 00 00 00 00 00 00 00  ................
  00419080: 00 00 00 00 00 00 00 00 00 00 00 00 00 00 00 00  ................
  00419090: 00 00 00 00 00 00 00 00 00 00 00 00 00 00 00 00  ................
  004190A0: 00 00 00 00 00 00 00 00 00 00 00 00 00 00 00 00  ................
  004190B0: 00 00 00 00 00 00 00 00 00 00 00 00 00 00 00 00  ................
  004190C0: 00 00 00 00 00 00 00 00 00                       .........

RAW DATA #4
  0041A000: 4E E6 40 BB B1 19 BF 44 00 00 00 00 01 00 00 00  Na@}.?D........
  0041A010: 01 00 00 00 01 00 00 00 01 00 00 00 01 00 00 00  ................
  0041A020: 00 00 00 00 FF FF FF FF 01 00 00 00 01 00 00 00  ....yyyy........
  0041A030: 01 00 00 00 00 00 00 00 00 00 00 00 00 00 00 00  ................
  0041A040: 00 00 00 00 00 00 00 00 00 00 00 00 00 00 00 00  ................
  0041A050: 00 00 00 00 00 00 00 00 00 00 00 00 00 00 00 00  ................
  0041A060: 00 00 00 00 00 00 00 00 00 00 00 00 00 00 00 00  ................
  0041A070: 00 00 00 00 00 00 00 00 00 00 00 00 00 00 00 00  ................
  0041A080: 00 00 00 00 00 00 00 00 00 00 00 00 00 00 00 00  ................
  0041A090: 00 00 00 00 00 00 00 00 00 00 00 00 00 00 00 00  ................
  0041A0A0: 00 00 00 00 00 00 00 00 00 00 00 00 00 00 00 00  ................
  0041A0B0: 00 00 00 00 00 00 00 00 00 00 00 00 00 00 00 00  ................
  0041A0C0: 00 00 00 00 00 00 00 00 00 00 00 00 00 00 00 00  ................
  0041A0D0: 00 00 00 00 00 00 00 00 00 00 00 00 00 00 00 00  ................
  0041A0E0: 00 00 00 00 00 00 00 00 00 00 00 00 00 00 00 00  ................
  0041A0F0: 00 00 00 00 00 00 00 00 00 00 00 00 00 00 00 00  ................
  0041A100: 00 00 00 00 00 00 00 00 00 00 00 00 00 00 00 00  ................
  0041A110: 00 00 00 00 00 00 00 00 00 00 00 00 00 00 00 00  ................
  0041A120: 00 00 00 00 00 00 00 00 00 00 00 00 00 00 00 00  ................
  0041A130: 00 00 00 00 00 00 00 00 00 00 00 00 00 00 00 00  ................
  0041A140: 00 00 00 00 00 00 00 00 00 00 00 00 00 00 00 00  ................
  0041A150: 00 00 00 00 00 00 00 00 00 00 00 00 00 00 00 00  ................
  0041A160: 00 00 00 00 00 00 00 00 00 00 00 00 00 00 00 00  ................
  0041A170: 00 00 00 00 00 00 00 00 00 00 00 00 00 00 00 00  ................
  0041A180: 00 00 00 00 00 00 00 00 00 00 00 00 00 00 00 00  ................
  0041A190: 00 00 00 00 00 00 00 00 00 00 00 00 00 00 00 00  ................
  0041A1A0: 00 00 00 00 00 00 00 00 00 00 00 00 00 00 00 00  ................
  0041A1B0: 00 00 00 00 00 00 00 00 00 00 00 00 00 00 00 00  ................
  0041A1C0: 00 00 00 00 00 00 00 00 00 00 00 00 00 00 00 00  ................
  0041A1D0: 00 00 00 00 00 00 00 00 00 00 00 00 00 00 00 00  ................
  0041A1E0: 00 00 00 00 00 00 00 00 00 00 00 00 00 00 00 00  ................
  0041A1F0: 00 00 00 00 00 00 00 00 00 00 00 00 00 00 00 00  ................

RAW DATA #5
  0041B000: 70 B8 01 00 3E B7 01 00 50 B7 01 00 66 B7 01 00  pC..>E..PE..fE..
  0041B010: 7C B7 01 00 98 B7 01 00 EE B8 01 00 E0 B8 01 00  |E...E..iC..aC..
  0041B020: D0 B8 01 00 BE B8 01 00 B2 B8 01 00 A6 B8 01 00  DC..?C..2C..|C..
  0041B030: 96 B8 01 00 82 B8 01 00 2A B7 01 00 5A B8 01 00  .C...C..*E..ZC..
  0041B040: 40 B8 01 00 2A B8 01 00 14 B8 01 00 FA B7 01 00  @C..*C...C..uE..
  0041B050: DE B7 01 00 CA B7 01 00 B6 B7 01 00 00 00 00 00  TE..EE..E......
  0041B060: 00 00 00 00 00 00 00 00 00 00 00 00 00 00 00 00  ................
  0041B070: 00 00 00 00 00 00 00 00 00 00 00 00 00 00 00 00  ................
  0041B080: 00 00 00 00 00 00 00 00 00 00 00 00 00 00 00 00  ................
  0041B090: 00 00 00 00 00 00 00 00 0C B4 01 00 F2 B3 01 00  .........L..o3..
  0041B0A0: E8 B3 01 00 28 B4 01 00 42 B4 01 00 C8 B3 01 00  e3..(L..BL..E3..
  0041B0B0: 00 00 00 00 00 00 00 00 00 00 00 00 00 00 00 00  ................
  0041B0C0: 00 00 00 00 00 00 00 00 00 00 00 00 00 00 00 00  ................
  0041B0D0: 00 00 00 00 00 00 00 00 00 00 00 00 00 00 00 00  ................
  0041B0E0: 26 B6 01 00 32 B6 01 00 4E B6 01 00 06 B6 01 00  &..2..N.....
  0041B0F0: 7C B6 01 00 98 B6 01 00 B0 B6 01 00 BE B6 01 00  |.......?..
  0041B100: D4 B6 01 00 E4 B6 01 00 F0 B6 01 00 00 B7 01 00  O..a..d...E..
  0041B110: 10 B7 01 00 16 B6 01 00 F0 B5 01 00 C2 B5 01 00  .E.....d..A..
  0041B120: B8 B5 01 00 AE B5 01 00 A0 B5 01 00 92 B5 01 00  C..R........
  0041B130: 84 B5 01 00 7C B5 01 00 74 B5 01 00 66 B5 01 00  ...|..t..f..
  0041B140: 5A B5 01 00 38 B5 01 00 16 B5 01 00 FC B4 01 00  Z..8.....uL..
  0041B150: E8 B4 01 00 D8 B4 01 00 C6 B4 01 00 B4 B4 01 00  eL..OL..AL..LL..
  0041B160: A4 B4 01 00 98 B4 01 00 7E B4 01 00 6C B4 01 00  ?L...L..~L..lL..
  0041B170: 60 B6 01 00 00 00 00 00 00 00 00 00 00 00 00 00  `..............
  0041B180: 00 00 00 00 00 00 00 00 00 00 00 00 00 00 00 00  ................
  0041B190: 00 00 00 00 00 00 00 00 00 00 00 00 00 00 00 00  ................
  0041B1A0: 00 00 00 00 00 00 00 00 00 00 00 00 00 00 00 00  ................
  0041B1B0: 00 00 00 00 00 00 00 00 00 00 00 00 A4 B2 01 00  ............?2..
  0041B1C0: 00 00 00 00 00 00 00 00 5A B4 01 00 98 B0 01 00  ........ZL.....
  0041B1D0: EC B2 01 00 00 00 00 00 00 00 00 00 1C B7 01 00  i2...........E..
  0041B1E0: E0 B0 01 00 0C B2 01 00 00 00 00 00 00 00 00 00  a...2..........
  0041B1F0: 00 B9 01 00 00 B0 01 00 00 00 00 00 00 00 00 00  .1.............
  0041B200: 00 00 00 00 00 00 00 00 00 00 00 00 70 B8 01 00  ............pC..
  0041B210: 3E B7 01 00 50 B7 01 00 66 B7 01 00 7C B7 01 00  >E..PE..fE..|E..
  0041B220: 98 B7 01 00 EE B8 01 00 E0 B8 01 00 D0 B8 01 00  .E..iC..aC..DC..
  0041B230: BE B8 01 00 B2 B8 01 00 A6 B8 01 00 96 B8 01 00  ?C..2C..|C...C..
  0041B240: 82 B8 01 00 2A B7 01 00 5A B8 01 00 40 B8 01 00  .C..*E..ZC..@C..
  0041B250: 2A B8 01 00 14 B8 01 00 FA B7 01 00 DE B7 01 00  *C...C..uE..TE..
  0041B260: CA B7 01 00 B6 B7 01 00 00 00 00 00 00 00 00 00  EE..E..........
  0041B270: 00 00 00 00 00 00 00 00 00 00 00 00 00 00 00 00  ................
  0041B280: 00 00 00 00 00 00 00 00 00 00 00 00 00 00 00 00  ................
  0041B290: 00 00 00 00 00 00 00 00 00 00 00 00 00 00 00 00  ................
  0041B2A0: 00 00 00 00 0C B4 01 00 F2 B3 01 00 E8 B3 01 00  .....L..o3..e3..
  0041B2B0: 28 B4 01 00 42 B4 01 00 C8 B3 01 00 00 00 00 00  (L..BL..E3......
  0041B2C0: 00 00 00 00 00 00 00 00 00 00 00 00 00 00 00 00  ................
  0041B2D0: 00 00 00 00 00 00 00 00 00 00 00 00 00 00 00 00  ................
  0041B2E0: 00 00 00 00 00 00 00 00 00 00 00 00 26 B6 01 00  ............&..
  0041B2F0: 32 B6 01 00 4E B6 01 00 06 B6 01 00 7C B6 01 00  2..N.....|..
  0041B300: 98 B6 01 00 B0 B6 01 00 BE B6 01 00 D4 B6 01 00  .....?..O..
  0041B310: E4 B6 01 00 F0 B6 01 00 00 B7 01 00 10 B7 01 00  a..d...E...E..
  0041B320: 16 B6 01 00 F0 B5 01 00 C2 B5 01 00 B8 B5 01 00  ...d..A..C..
  0041B330: AE B5 01 00 A0 B5 01 00 92 B5 01 00 84 B5 01 00  R...........
  0041B340: 7C B5 01 00 74 B5 01 00 66 B5 01 00 5A B5 01 00  |..t..f..Z..
  0041B350: 38 B5 01 00 16 B5 01 00 FC B4 01 00 E8 B4 01 00  8.....uL..eL..
  0041B360: D8 B4 01 00 C6 B4 01 00 B4 B4 01 00 A4 B4 01 00  OL..AL..LL..?L..
  0041B370: 98 B4 01 00 7E B4 01 00 6C B4 01 00 60 B6 01 00  .L..~L..lL..`..
  0041B380: 00 00 00 00 00 00 00 00 00 00 00 00 00 00 00 00  ................
  0041B390: 00 00 00 00 00 00 00 00 00 00 00 00 00 00 00 00  ................
  0041B3A0: 00 00 00 00 00 00 00 00 00 00 00 00 00 00 00 00  ................
  0041B3B0: 00 00 00 00 00 00 00 00 00 00 00 00 00 00 00 00  ................
  0041B3C0: 00 00 00 00 00 00 00 00 25 00 5F 5F 73 74 64 5F  ........%.__std_
  0041B3D0: 74 79 70 65 5F 69 6E 66 6F 5F 64 65 73 74 72 6F  type_info_destro
  0041B3E0: 79 5F 6C 69 73 74 00 00 48 00 6D 65 6D 73 65 74  y_list..H.memset
  0041B3F0: 00 00 35 00 5F 65 78 63 65 70 74 5F 68 61 6E 64  ..5._except_hand
  0041B400: 6C 65 72 34 5F 63 6F 6D 6D 6F 6E 00 2E 00 5F 5F  ler4_common...__
  0041B410: 76 63 72 74 5F 47 65 74 4D 6F 64 75 6C 65 46 69  vcrt_GetModuleFi
  0041B420: 6C 65 4E 61 6D 65 57 00 2F 00 5F 5F 76 63 72 74  leNameW./.__vcrt
  0041B430: 5F 47 65 74 4D 6F 64 75 6C 65 48 61 6E 64 6C 65  _GetModuleHandle
  0041B440: 57 00 31 00 5F 5F 76 63 72 74 5F 4C 6F 61 64 4C  W.1.__vcrt_LoadL
  0041B450: 69 62 72 61 72 79 45 78 57 00 56 43 52 55 4E 54  ibraryExW.VCRUNT
  0041B460: 49 4D 45 31 34 30 44 2E 64 6C 6C 00 45 00 5F 5F  IME140D.dll.E.__
  0041B470: 61 63 72 74 5F 69 6F 62 5F 66 75 6E 63 00 82 00  acrt_iob_func...
  0041B480: 5F 5F 73 74 64 69 6F 5F 63 6F 6D 6D 6F 6E 5F 76  __stdio_common_v
  0041B490: 66 70 72 69 6E 74 66 00 49 05 73 74 72 63 70 79  fprintf.I.strcpy
  0041B4A0: 5F 73 00 00 14 00 5F 43 72 74 44 62 67 52 65 70  _s...._CrtDbgRep
  0041B4B0: 6F 72 74 00 15 00 5F 43 72 74 44 62 67 52 65 70  ort..._CrtDbgRep
  0041B4C0: 6F 72 74 57 00 00 EF 02 5F 73 65 68 5F 66 69 6C  ortW..i._seh_fil
  0041B4D0: 74 65 72 5F 65 78 65 00 F2 02 5F 73 65 74 5F 61  ter_exe.o._set_a
  0041B4E0: 70 70 5F 74 79 70 65 00 81 00 5F 5F 73 65 74 75  pp_type...__setu
  0041B4F0: 73 65 72 6D 61 74 68 65 72 72 00 00 DC 00 5F 63  sermatherr..U._c
  0041B500: 6F 6E 66 69 67 75 72 65 5F 6E 61 72 72 6F 77 5F  onfigure_narrow_
  0041B510: 61 72 67 76 00 00 96 01 5F 69 6E 69 74 69 61 6C  argv...._initial
  0041B520: 69 7A 65 5F 6E 61 72 72 6F 77 5F 65 6E 76 69 72  ize_narrow_envir
  0041B530: 6F 6E 6D 65 6E 74 00 00 62 01 5F 67 65 74 5F 69  onment..b._get_i
  0041B540: 6E 69 74 69 61 6C 5F 6E 61 72 72 6F 77 5F 65 6E  nitial_narrow_en
  0041B550: 76 69 72 6F 6E 6D 65 6E 74 00 99 01 5F 69 6E 69  vironment..._ini
  0041B560: 74 74 65 72 6D 00 9A 01 5F 69 6E 69 74 74 65 72  tterm..._initter
  0041B570: 6D 5F 65 00 76 04 65 78 69 74 00 00 11 01 5F 65  m_e.v.exit...._e
  0041B580: 78 69 74 00 F7 02 5F 73 65 74 5F 66 6D 6F 64 65  xit.._set_fmode
  0041B590: 00 00 6F 00 5F 5F 70 5F 5F 5F 61 72 67 63 00 00  ..o.__p___argc..
  0041B5A0: 70 00 5F 5F 70 5F 5F 5F 61 72 67 76 00 00 CA 00  p.__p___argv..E.
  0041B5B0: 5F 63 65 78 69 74 00 00 C5 00 5F 63 5F 65 78 69  _cexit..A._c_exi
  0041B5C0: 74 00 E3 02 5F 72 65 67 69 73 74 65 72 5F 74 68  t.a._register_th
  0041B5D0: 72 65 61 64 5F 6C 6F 63 61 6C 5F 65 78 65 5F 61  read_local_exe_a
  0041B5E0: 74 65 78 69 74 5F 63 61 6C 6C 62 61 63 6B 00 00  texit_callback..
  0041B5F0: DB 00 5F 63 6F 6E 66 69 67 74 68 72 65 61 64 6C  U._configthreadl
  0041B600: 6F 63 61 6C 65 00 FA 02 5F 73 65 74 5F 6E 65 77  ocale.u._set_new
  0041B610: 5F 6D 6F 64 65 00 73 00 5F 5F 70 5F 5F 63 6F 6D  _mode.s.__p__com
  0041B620: 6D 6F 64 65 00 00 45 05 73 74 72 63 61 74 5F 73  mode..E.strcat_s
  0041B630: 00 00 8E 00 5F 5F 73 74 64 69 6F 5F 63 6F 6D 6D  ....__stdio_comm
  0041B640: 6F 6E 5F 76 73 70 72 69 6E 74 66 5F 73 00 EE 02  on_vsprintf_s.i.
  0041B650: 5F 73 65 68 5F 66 69 6C 74 65 72 5F 64 6C 6C 00  _seh_filter_dll.
  0041B660: 97 01 5F 69 6E 69 74 69 61 6C 69 7A 65 5F 6F 6E  .._initialize_on
  0041B670: 65 78 69 74 5F 74 61 62 6C 65 00 00 E2 02 5F 72  exit_table..a._r
  0041B680: 65 67 69 73 74 65 72 5F 6F 6E 65 78 69 74 5F 66  egister_onexit_f
  0041B690: 75 6E 63 74 69 6F 6E 00 0C 01 5F 65 78 65 63 75  unction..._execu
  0041B6A0: 74 65 5F 6F 6E 65 78 69 74 5F 74 61 62 6C 65 00  te_onexit_table.
  0041B6B0: E8 00 5F 63 72 74 5F 61 74 65 78 69 74 00 E7 00  e._crt_atexit.c.
  0041B6C0: 5F 63 72 74 5F 61 74 5F 71 75 69 63 6B 5F 65 78  _crt_at_quick_ex
  0041B6D0: 69 74 00 00 E0 00 5F 63 6F 6E 74 72 6F 6C 66 70  it..a._controlfp
  0041B6E0: 5F 73 00 00 66 05 74 65 72 6D 69 6E 61 74 65 00  _s..f.terminate.
  0041B6F0: C9 03 5F 77 6D 61 6B 65 70 61 74 68 5F 73 00 00  E._wmakepath_s..
  0041B700: E5 03 5F 77 73 70 6C 69 74 70 61 74 68 5F 73 00  a._wsplitpath_s.
  0041B710: 7F 05 77 63 73 63 70 79 5F 73 00 00 75 63 72 74  ..wcscpy_s..ucrt
  0041B720: 62 61 73 65 64 2E 64 6C 6C 00 7A 03 49 73 44 65  based.dll.z.IsDe
  0041B730: 62 75 67 67 65 72 50 72 65 73 65 6E 74 00 5B 04  buggerPresent.[.
  0041B740: 52 61 69 73 65 45 78 63 65 70 74 69 6F 6E 00 00  RaiseException..
  0041B750: E8 03 4D 75 6C 74 69 42 79 74 65 54 6F 57 69 64  e.MultiByteToWid
  0041B760: 65 43 68 61 72 00 F6 05 57 69 64 65 43 68 61 72  eChar.o.WideChar
  0041B770: 54 6F 4D 75 6C 74 69 42 79 74 65 00 A5 05 55 6E  ToMultiByte.\.Un
  0041B780: 68 61 6E 64 6C 65 64 45 78 63 65 70 74 69 6F 6E  handledException
  0041B790: 46 69 6C 74 65 72 00 00 65 05 53 65 74 55 6E 68  Filter..e.SetUnh
  0041B7A0: 61 6E 64 6C 65 64 45 78 63 65 70 74 69 6F 6E 46  andledExceptionF
  0041B7B0: 69 6C 74 65 72 00 15 02 47 65 74 43 75 72 72 65  ilter...GetCurre
  0041B7C0: 6E 74 50 72 6F 63 65 73 73 00 84 05 54 65 72 6D  ntProcess...Term
  0041B7D0: 69 6E 61 74 65 50 72 6F 63 65 73 73 00 00 81 03  inateProcess....
  0041B7E0: 49 73 50 72 6F 63 65 73 73 6F 72 46 65 61 74 75  IsProcessorFeatu
  0041B7F0: 72 65 50 72 65 73 65 6E 74 00 46 04 51 75 65 72  rePresent.F.Quer
  0041B800: 79 50 65 72 66 6F 72 6D 61 6E 63 65 43 6F 75 6E  yPerformanceCoun
  0041B810: 74 65 72 00 16 02 47 65 74 43 75 72 72 65 6E 74  ter...GetCurrent
  0041B820: 50 72 6F 63 65 73 73 49 64 00 1A 02 47 65 74 43  ProcessId...GetC
  0041B830: 75 72 72 65 6E 74 54 68 72 65 61 64 49 64 00 00  urrentThreadId..
  0041B840: E5 02 47 65 74 53 79 73 74 65 6D 54 69 6D 65 41  a.GetSystemTimeA
  0041B850: 73 46 69 6C 65 54 69 6D 65 00 5E 03 49 6E 69 74  sFileTime.^.Init
  0041B860: 69 61 6C 69 7A 65 53 4C 69 73 74 48 65 61 64 00  ializeSListHead.
  0041B870: CC 02 47 65 74 53 74 61 72 74 75 70 49 6E 66 6F  I.GetStartupInfo
  0041B880: 57 00 74 02 47 65 74 4D 6F 64 75 6C 65 48 61 6E  W.t.GetModuleHan
  0041B890: 64 6C 65 57 00 00 5D 02 47 65 74 4C 61 73 74 45  dleW..].GetLastE
  0041B8A0: 72 72 6F 72 00 00 41 03 48 65 61 70 41 6C 6C 6F  rror..A.HeapAllo
  0041B8B0: 63 00 45 03 48 65 61 70 46 72 65 65 00 00 B0 02  c.E.HeapFree...
  0041B8C0: 47 65 74 50 72 6F 63 65 73 73 48 65 61 70 00 00  GetProcessHeap..
  0041B8D0: C6 05 56 69 72 74 75 61 6C 51 75 65 72 79 00 00  A.VirtualQuery..
  0041B8E0: A9 01 46 72 65 65 4C 69 62 72 61 72 79 00 AA 02  c.FreeLibrary.a.
  0041B8F0: 47 65 74 50 72 6F 63 41 64 64 72 65 73 73 00 00  GetProcAddress..
  0041B900: 4B 45 52 4E 45 4C 33 32 2E 64 6C 6C 00 00 00 00  KERNEL32.dll....
  0041B910: 00 00 00 00 00 00 00 00 00 00 00 00 00 00 00 00  ................
  0041B920: 00 00 00 00 00 00 00 00 00 00 00 00 00 00 00 00  ................
  0041B930: 00 00 00 00 00 00 00 00 00 00 00 00 00 00 00 00  ................
  0041B940: 00 00 00 00 00 00 00 00 00 00 00 00 00 00 00 00  ................
  0041B950: 00 00 00 00 00 00 00 00 00 00 00 00 00 00 00 00  ................
  0041B960: 00 00 00 00 00 00 00 00 00 00 00 00 00 00 00 00  ................
  0041B970: 00 00 00 00 00 00 00 00 00 00 00 00 00 00 00 00  ................
  0041B980: 00 00 00 00 00 00 00 00 00 00 00 00 00 00 00 00  ................
  0041B990: 00 00 00 00 00 00 00 00 00 00 00 00 00 00 00 00  ................
  0041B9A0: 00 00 00 00 00 00 00 00 00 00 00 00 00 00 00 00  ................
  0041B9B0: 00 00 00 00 00 00 00 00 00 00 00 00 00 00 00 00  ................
  0041B9C0: 00 00 00 00 00 00 00 00 00 00 00 00 00 00 00 00  ................
  0041B9D0: 00 00 00 00 00 00 00 00 00 00 00 00 00 00 00 00  ................
  0041B9E0: 00 00 00 00 00 00 00 00 00 00 00 00 00 00 00 00  ................
  0041B9F0: 00 00 00 00 00 00 00 00 00 00 00 00 00 00 00 00  ................
  0041BA00: 00 00 00 00 00 00 00 00 00 00 00 00 00 00 00 00  ................
  0041BA10: 00 00 00 00 00 00 00 00 00 00 00 00 00 00 00 00  ................
  0041BA20: 00 00 00 00 00 00 00 00 00 00 00 00 00 00 00 00  ................
  0041BA30: 00 00 00 00 00 00 00 00 00 00 00 00 00 00 00 00  ................
  0041BA40: 00 00 00 00 00 00 00 00 00 00 00 00 00 00 00 00  ................
  0041BA50: 00 00 00 00 00 00 00 00 00 00 00 00 00 00 00 00  ................
  0041BA60: 00 00 00 00 00 00 00 00 00 00 00 00 00 00 00 00  ................
  0041BA70: 00 00 00 00 00 00 00 00 00 00 00 00 00 00 00 00  ................
  0041BA80: 00 00 00 00 00 00 00 00 00 00 00 00 00 00 00 00  ................
  0041BA90: 00 00 00 00 00                                   .....

RAW DATA #6
  0041C000: A3 12 41 00 00 00 00 00 00 00 00 00 00 00 00 00  .A.............
  0041C010: 00 00 00 00 00 00 00 00 00 00 00 00 00 00 00 00  ................
  0041C020: 00 00 00 00 00 00 00 00 00 00 00 00 00 00 00 00  ................
  0041C030: 00 00 00 00 00 00 00 00 00 00 00 00 00 00 00 00  ................
  0041C040: 00 00 00 00 00 00 00 00 00 00 00 00 00 00 00 00  ................
  0041C050: 00 00 00 00 00 00 00 00 00 00 00 00 00 00 00 00  ................
  0041C060: 00 00 00 00 00 00 00 00 00 00 00 00 00 00 00 00  ................
  0041C070: 00 00 00 00 00 00 00 00 00 00 00 00 00 00 00 00  ................
  0041C080: 00 00 00 00 00 00 00 00 00 00 00 00 00 00 00 00  ................
  0041C090: 00 00 00 00 00 00 00 00 00 00 00 00 00 00 00 00  ................
  0041C0A0: 00 00 00 00 00 00 00 00 00 00 00 00 00 00 00 00  ................
  0041C0B0: 00 00 00 00 00 00 00 00 00 00 00 00 00 00 00 00  ................
  0041C0C0: 00 00 00 00 00 00 00 00 00 00 00 00 00 00 00 00  ................
  0041C0D0: 00 00 00 00 00 00 00 00 00 00 00 00 00 00 00 00  ................
  0041C0E0: 00 00 00 00 00 00 00 00 00 00 00 00 00 00 00 00  ................
  0041C0F0: 00 00 00 00 00 00 00 00 00 00 00 00 00 00 00 00  ................
  0041C100: 00 00 00 00                                      ....

RAW DATA #7
  0041D000: 00 00 00 00 00 00 00 00 00 00 00 00 00 00 01 00  ................
  0041D010: 18 00 00 00 18 00 00 80 00 00 00 00 00 00 00 00  ................
  0041D020: 00 00 00 00 00 00 01 00 01 00 00 00 30 00 00 80  ............0...
  0041D030: 00 00 00 00 00 00 00 00 00 00 00 00 00 00 01 00  ................
  0041D040: 09 04 00 00 48 00 00 00 70 D1 01 00 7D 01 00 00  ....H...pN..}...
  0041D050: 00 00 00 00 00 00 00 00 00 00 00 00 00 00 00 00  ................
  0041D060: 00 00 00 00 00 00 00 00 00 00 00 00 00 00 00 00  ................
  0041D070: 00 00 00 00 00 00 00 00 00 00 00 00 00 00 00 00  ................
  0041D080: 00 00 00 00 00 00 00 00 00 00 00 00 00 00 00 00  ................
  0041D090: 00 00 00 00 00 00 00 00 00 00 00 00 00 00 00 00  ................
  0041D0A0: 00 00 00 00 00 00 00 00 00 00 00 00 00 00 00 00  ................
  0041D0B0: 00 00 00 00 00 00 00 00 00 00 00 00 00 00 00 00  ................
  0041D0C0: 00 00 00 00 00 00 00 00 00 00 00 00 00 00 00 00  ................
  0041D0D0: 00 00 00 00 00 00 00 00 00 00 00 00 00 00 00 00  ................
  0041D0E0: 00 00 00 00 00 00 00 00 00 00 00 00 00 00 00 00  ................
  0041D0F0: 00 00 00 00 00 00 00 00 00 00 00 00 00 00 00 00  ................
  0041D100: 00 00 00 00 00 00 00 00 00 00 00 00 00 00 00 00  ................
  0041D110: 00 00 00 00 00 00 00 00 00 00 00 00 00 00 00 00  ................
  0041D120: 00 00 00 00 00 00 00 00 00 00 00 00 00 00 00 00  ................
  0041D130: 00 00 00 00 00 00 00 00 00 00 00 00 00 00 00 00  ................
  0041D140: 00 00 00 00 00 00 00 00 00 00 00 00 00 00 00 00  ................
  0041D150: 00 00 00 00 00 00 00 00 00 00 00 00 00 00 00 00  ................
  0041D160: 00 00 00 00 00 00 00 00 00 00 00 00 00 00 00 00  ................
  0041D170: 3C 3F 78 6D 6C 20 76 65 72 73 69 6F 6E 3D 27 31  <?xml version='1
  0041D180: 2E 30 27 20 65 6E 63 6F 64 69 6E 67 3D 27 55 54  .0' encoding='UT
  0041D190: 46 2D 38 27 20 73 74 61 6E 64 61 6C 6F 6E 65 3D  F-8' standalone=
  0041D1A0: 27 79 65 73 27 3F 3E 0D 0A 3C 61 73 73 65 6D 62  'yes'?>..<assemb
  0041D1B0: 6C 79 20 78 6D 6C 6E 73 3D 27 75 72 6E 3A 73 63  ly xmlns='urn:sc
  0041D1C0: 68 65 6D 61 73 2D 6D 69 63 72 6F 73 6F 66 74 2D  hemas-microsoft-
  0041D1D0: 63 6F 6D 3A 61 73 6D 2E 76 31 27 20 6D 61 6E 69  com:asm.v1' mani
  0041D1E0: 66 65 73 74 56 65 72 73 69 6F 6E 3D 27 31 2E 30  festVersion='1.0
  0041D1F0: 27 3E 0D 0A 20 20 3C 74 72 75 73 74 49 6E 66 6F  '>..  <trustInfo
  0041D200: 20 78 6D 6C 6E 73 3D 22 75 72 6E 3A 73 63 68 65   xmlns="urn:sche
  0041D210: 6D 61 73 2D 6D 69 63 72 6F 73 6F 66 74 2D 63 6F  mas-microsoft-co
  0041D220: 6D 3A 61 73 6D 2E 76 33 22 3E 0D 0A 20 20 20 20  m:asm.v3">..    
  0041D230: 3C 73 65 63 75 72 69 74 79 3E 0D 0A 20 20 20 20  <security>..    
  0041D240: 20 20 3C 72 65 71 75 65 73 74 65 64 50 72 69 76    <requestedPriv
  0041D250: 69 6C 65 67 65 73 3E 0D 0A 20 20 20 20 20 20 20  ileges>..       
  0041D260: 20 3C 72 65 71 75 65 73 74 65 64 45 78 65 63 75   <requestedExecu
  0041D270: 74 69 6F 6E 4C 65 76 65 6C 20 6C 65 76 65 6C 3D  tionLevel level=
  0041D280: 27 61 73 49 6E 76 6F 6B 65 72 27 20 75 69 41 63  'asInvoker' uiAc
  0041D290: 63 65 73 73 3D 27 66 61 6C 73 65 27 20 2F 3E 0D  cess='false' />.
  0041D2A0: 0A 20 20 20 20 20 20 3C 2F 72 65 71 75 65 73 74  .      </request
  0041D2B0: 65 64 50 72 69 76 69 6C 65 67 65 73 3E 0D 0A 20  edPrivileges>.. 
  0041D2C0: 20 20 20 3C 2F 73 65 63 75 72 69 74 79 3E 0D 0A     </security>..
  0041D2D0: 20 20 3C 2F 74 72 75 73 74 49 6E 66 6F 3E 0D 0A    </trustInfo>..
  0041D2E0: 3C 2F 61 73 73 65 6D 62 6C 79 3E 0D 0A 00 00 00  </assembly>.....
  0041D2F0: 00 00 00 00 00 00 00 00 00 00 00 00 00 00 00 00  ................
  0041D300: 00 00 00 00 00 00 00 00 00 00 00 00 00 00 00 00  ................
  0041D310: 00 00 00 00 00 00 00 00 00 00 00 00 00 00 00 00  ................
  0041D320: 00 00 00 00 00 00 00 00 00 00 00 00 00 00 00 00  ................
  0041D330: 00 00 00 00 00 00 00 00 00 00 00 00 00 00 00 00  ................
  0041D340: 00 00 00 00 00 00 00 00 00 00 00 00 00 00 00 00  ................
  0041D350: 00 00 00 00 00 00 00 00 00 00 00 00 00 00 00 00  ................
  0041D360: 00 00 00 00 00 00 00 00 00 00 00 00 00 00 00 00  ................
  0041D370: 00 00 00 00 00 00 00 00 00 00 00 00 00 00 00 00  ................
  0041D380: 00 00 00 00 00 00 00 00 00 00 00 00 00 00 00 00  ................
  0041D390: 00 00 00 00 00 00 00 00 00 00 00 00 00 00 00 00  ................
  0041D3A0: 00 00 00 00 00 00 00 00 00 00 00 00 00 00 00 00  ................
  0041D3B0: 00 00 00 00 00 00 00 00 00 00 00 00 00 00 00 00  ................
  0041D3C0: 00 00 00 00 00 00 00 00 00 00 00 00 00 00 00 00  ................
  0041D3D0: 00 00 00 00 00 00 00 00 00 00 00 00 00 00 00 00  ................
  0041D3E0: 00 00 00 00 00 00 00 00 00 00 00 00 00 00 00 00  ................
  0041D3F0: 00 00 00 00 00 00 00 00 00 00 00 00 00 00 00 00  ................
  0041D400: 00 00 00 00 00 00 00 00 00 00 00 00 00 00 00 00  ................
  0041D410: 00 00 00 00 00 00 00 00 00 00 00 00 00 00 00 00  ................
  0041D420: 00 00 00 00 00 00 00 00 00 00 00 00 00 00 00 00  ................
  0041D430: 00 00 00 00 00 00 00 00 00 00 00 00              ............

RAW DATA #8
  0041E000: 00 10 01 00 40 00 00 00 3A 37 4E 37 65 37 D4 37  ....@...:7N7e7O7
  0041E010: 47 38 4F 39 AE 39 0F 3A 1B 3A 2D 3A 3E 3A 50 3A  G8O9R9.:.:-:>:P:
  0041E020: 64 3A EF 3A 1C 3B 28 3B 34 3B 40 3B 4C 3B 14 3C  d:i:.;(;4;@;L;.<
  0041E030: 92 3E B1 3E C1 3E D2 3E E5 3E 62 3F 8D 3F 00 00  .>}>A>O>a>b?.?..
  0041E040: 00 20 01 00 10 01 00 00 56 30 5B 30 6D 30 B0 30  . ......V0[0m00
  0041E050: C2 30 CB 30 D4 30 D9 30 00 31 05 31 13 31 64 31  A0E0O0U0.1.1.1d1
  0041E060: 7A 34 8D 34 A5 34 DF 34 E8 34 F4 34 FF 34 05 35  z4.4\4s4e4o4y4.5
  0041E070: 0B 35 10 35 15 35 9E 35 A5 35 C0 35 0A 36 1E 36  .5.5.5.5\5A5.6.6
  0041E080: 40 36 68 36 89 36 1B 37 9A 37 F3 37 12 38 21 38  @6h6.6.7.7o7.8!8
  0041E090: 41 38 71 38 BC 38 D3 38 EE 38 05 39 23 39 3A 39  A8q8?8O8i8.9#9:9
  0041E0A0: 5D 39 6E 39 16 3A 1B 3A 2D 3A 58 3A BA 3A CA 3A  ]9n9.:.:-:X:o:E:
  0041E0B0: EB 3A 13 3B 34 3B 07 3C 11 3C 1C 3C 23 3C 5C 3C  e:.;4;.<.<.<#<\<
  0041E0C0: 62 3C 68 3C 6E 3C 74 3C 7A 3C 81 3C 88 3C 8F 3C  b<h<n<t<z<.<.<.<
  0041E0D0: 96 3C 9D 3C A4 3C AB 3C B3 3C BB 3C C3 3C CF 3C  .<.<?<<3<<A<I<
  0041E0E0: D8 3C DD 3C E3 3C ED 3C F7 3C 09 3D 1B 3D 2D 3D  O<Y<a<i<<.=.=-=
  0041E0F0: 36 3D BA 3D C0 3D C6 3D CC 3D D2 3D D8 3D DF 3D  6=o=A=A=I=O=O=s=
  0041E100: E6 3D ED 3D F4 3D FB 3D 02 3E 09 3E 11 3E 19 3E  a=i=o=u=.>.>.>.>
  0041E110: 21 3E 2C 3E 31 3E 37 3E 41 3E 4B 3E 60 3E 65 3E  !>,>1>7>A>K>`>e>
  0041E120: CA 3E D0 3E D6 3E DC 3E E2 3E E8 3E EF 3E F6 3E  E>D>O>U>a>e>i>o>
  0041E130: FD 3E 04 3F 0B 3F 12 3F 19 3F 21 3F 29 3F 31 3F  y>.?.?.?.?!?)?1?
  0041E140: 3C 3F 41 3F 47 3F 51 3F 83 3F 94 3F C1 3F C8 3F  <?A?G?Q?.?.?A?E?
  0041E150: 00 30 01 00 94 00 00 00 21 30 31 30 4E 30 74 30  .0......!010N0t0
  0041E160: 7D 30 83 30 A4 30 AD 30 B3 30 DE 30 E8 30 04 31  }0.0?0-030T0e0.1
  0041E170: 17 31 34 31 57 31 F2 32 28 34 6D 34 CB 34 29 35  .141W1o2(4m4E4)5
  0041E180: 5B 35 73 35 AD 35 B6 35 BE 35 D9 35 E2 35 EA 35  [5s5-55?5U5a5e5
  0041E190: F0 35 46 36 4B 36 5D 36 7C 36 DB 37 F6 37 47 38  d5F6K6]6|6U7o7G8
  0041E1A0: 88 38 D7 38 08 39 84 39 99 39 A5 39 B5 39 06 3A  .8~8.9.9.9\99.:
  0041E1B0: 11 3A 1E 3A 26 3A 67 3A 72 3A 04 3B 0A 3B 24 3B  .:.:&:g:r:.;.;$;
  0041E1C0: A4 3B 06 3C 34 3C 44 3C 2C 3D 58 3D 62 3D FC 3D  ?;.<4<D<,=X=b=u=
  0041E1D0: 4A 3E F4 3E FA 3E 95 3F B2 3F B9 3F CA 3F D5 3F  J>o>u>.?2?1?E?O?
  0041E1E0: F2 3F F9 3F 00 40 01 00 14 01 00 00 0A 30 15 30  o?u?.@.......0.0
  0041E1F0: 44 30 49 30 B5 30 C2 30 FA 30 05 31 12 31 25 31  D0I00A0u0.1.1%1
  0041E200: 8D 31 B5 31 C7 31 8A 32 9E 32 B7 32 CB 32 D7 32  .11C1.2.2E2E2~2
  0041E210: EA 32 F1 32 FC 32 03 33 0E 33 15 33 31 33 3C 33  e2n2u2.3.3.313<3
  0041E220: 49 33 84 33 90 33 A8 33 B1 33 1B 34 27 34 33 34  I3.3.3N3}3.4'434
  0041E230: 3F 34 4B 34 57 34 63 34 6F 34 7C 34 A6 34 7A 35  ?4K4W4c4o4|4|4z5
  0041E240: C2 35 DC 35 A7 36 32 37 3E 37 4F 37 5D 37 65 37  A5U5627>7O7]7e7
  0041E250: 6A 37 71 37 98 37 BB 37 D6 37 E5 37 0F 38 36 38  j7q7.77O7a7.868
  0041E260: 5C 38 90 38 C5 38 D8 38 DF 38 EE 38 02 39 16 39  \8.8A8O8s8i8.9.9
  0041E270: 2A 39 52 39 59 39 83 39 E4 39 57 3B 64 3B 6D 3B  *9R9Y9.9a9W;d;m;
  0041E280: 75 3B A2 3B AC 3B B5 3B BE 3C C7 3C 43 3D 4B 3D  u;;;;?<C<C=K=
  0041E290: 69 3D 72 3D 7A 3D D1 3D DB 3D E4 3D FA 3D 04 3E  i=r=z=N=U=a=u=.>
  0041E2A0: 0D 3E E6 3E 0F 3F 15 3F 1B 3F 21 3F 27 3F 2D 3F  .>a>.?.?.?!?'?-?
  0041E2B0: 33 3F 39 3F 3F 3F 45 3F 4B 3F 51 3F 57 3F 5D 3F  3?9???E?K?Q?W?]?
  0041E2C0: 63 3F 69 3F 6F 3F 75 3F 7B 3F 81 3F 87 3F 8D 3F  c?i?o?u?{?.?.?.?
  0041E2D0: 93 3F 99 3F 9F 3F A5 3F AB 3F B1 3F B7 3F BD 3F  .?.?.?\??}?E???
  0041E2E0: C3 3F C9 3F CF 3F D5 3F DB 3F E1 3F E7 3F ED 3F  A?E?I?O?U?a?c?i?
  0041E2F0: F3 3F F9 3F FF 3F 00 00 00 50 01 00 3C 00 00 00  o?u?y?...P..<...
  0041E300: 05 30 0B 30 11 30 17 30 1D 30 23 30 29 30 2F 30  .0.0.0.0.0#0)0/0
  0041E310: 35 30 3B 30 41 30 47 30 4D 30 53 30 59 30 5F 30  50;0A0G0M0S0Y0_0
  0041E320: 65 30 6B 30 71 30 77 30 7D 30 83 30 89 30 8F 30  e0k0q0w0}0.0.0.0
  0041E330: 95 30 00 00 00 70 01 00 1C 00 00 00 04 31 10 34  .0...p.......1.4
  0041E340: 14 35 A4 3B A8 3B AC 3B B0 3B B4 3B B8 3B 00 00  .5?;N;;;L;C;..
  0041E350: 00 80 01 00 2C 00 00 00 60 32 64 32 6C 32 70 32  ....,...`2d2l2p2
  0041E360: 74 32 78 32 7C 32 D4 35 E0 35 4C 3A 58 3D 74 3F  t2x2|2O5a5L:X=t?
  0041E370: 78 3F 94 3F 98 3F B4 3F B8 3F 00 00 00 C0 01 00  x?.?.?L?C?...A..
  0041E380: 0C 00 00 00 00 30 00 00 00 00 00 00 00 00 00 00  .....0..........
  0041E390: 00 00 00 00 00 00 00 00 00 00 00 00 00 00 00 00  ................
  0041E3A0: 00 00 00 00 00 00 00 00 00 00 00 00 00 00 00 00  ................
  0041E3B0: 00 00 00 00 00 00 00 00 00 00 00 00 00 00 00 00  ................
  0041E3C0: 00 00 00 00 00 00 00 00 00 00 00 00 00 00 00 00  ................
  0041E3D0: 00 00 00 00 00 00 00 00 00 00 00 00 00 00 00 00  ................
  0041E3E0: 00 00 00 00 00 00 00 00 00 00 00 00 00 00 00 00  ................
  0041E3F0: 00 00 00 00 00 00 00 00 00 00 00 00 00 00 00 00  ................
  0041E400: 00 00 00 00 00 00 00 00 00 00 00 00 00 00 00 00  ................
  0041E410: 00 00 00 00 00 00 00 00 00 00 00 00 00 00 00 00  ................
  0041E420: 00 00 00 00 00 00 00 00 00 00 00 00 00 00 00 00  ................
  0041E430: 00 00 00 00 00 00 00 00 00 00 00 00 00 00 00 00  ................
  0041E440: 00 00 00 00 00 00 00 00 00 00 00 00 00 00 00 00  ................
  0041E450: 00 00 00 00 00 00 00 00 00 00 00 00 00 00 00 00  ................
  0041E460: 00 00 00 00 00 00 00 00 00 00 00 00 00 00 00 00  ................
  0041E470: 00 00 00 00 00 00 00 00 00 00 00 00 00 00 00 00  ................
  0041E480: 00 00 00 00 00 00 00 00 00 00 00 00 00 00 00 00  ................
  0041E490: 00 00 00 00 00 00 00 00 00 00 00 00 00 00 00 00  ................
  0041E4A0: 00 00 00 00 00 00 00 00 00 00 00 00 00 00 00 00  ................
  0041E4B0: 00 00 00 00 00 00 00 00 00 00 00 00 00 00 00 00  ................
  0041E4C0: 00 00 00 00 00 00 00 00 00 00 00 00 00 00 00 00  ................
  0041E4D0: 00 00 00 00 00 00 00 00 00 00 00 00 00 00 00 00  ................
  0041E4E0: 00 00 00 00 00 00 00 00 00 00 00 00 00 00 00 00  ................
  0041E4F0: 00 00 00 00 00 00 00 00 00 00 00 00 00 00 00 00  ................
  0041E500: 00 00 00 00 00 00 00 00 00 00 00 00 00 00 00 00  ................
  0041E510: 00 00 00 00 00 00 00 00 00 00 00 00 00 00 00 00  ................
  0041E520: 00 00 00 00 00 00 00 00 00 00 00 00 00 00 00 00  ................
  0041E530: 00 00 00 00 00 00 00 00 00 00 00 00 00 00 00 00  ................
  0041E540: 00 00 00 00 00 00 00 00 00 00 00 00 00 00 00 00  ................
  0041E550: 00 00 00 00 00 00 00 00 00 00 00 00 00 00 00 00  ................
  0041E560: 00 00 00                                         ...

  Summary

        1000 .00cfg
        1000 .data
        1000 .idata
        3000 .rdata
        1000 .reloc
        1000 .rsrc
        6000 .text
       10000 .textbss
